
/Users/nickallott/pico/Wave-Machine-Firmware/build/wavemachine.elf:     file format elf32-littlearm

Sections:
Idx Name          Size      VMA       LMA       File off  Algn
  0 .text         0000ddb8  10000000  10000000  00001000  2**3
                  CONTENTS, ALLOC, LOAD, READONLY, CODE
  1 .rodata       00007f20  1000ddb8  1000ddb8  0000edb8  2**3
                  CONTENTS, ALLOC, LOAD, READONLY, DATA
  2 .ARM.exidx    00000008  10015cd8  10015cd8  00016cd8  2**2
                  CONTENTS, ALLOC, LOAD, READONLY, DATA
  3 .binary_info  0000002c  10015ce0  10015ce0  00016ce0  2**2
                  CONTENTS, ALLOC, LOAD, READONLY, DATA
  4 .ram_vector_table 00000110  20000000  20000000  0001c000  2**2
                  ALLOC
  5 .uninitialized_data 00000000  20000110  20000110  0001b5f8  2**0
                  CONTENTS
  6 .data         000038d8  20000110  10015d0c  00017110  2**3
                  CONTENTS, ALLOC, LOAD, READONLY, CODE
  7 .tdata        00000000  200039e8  200039e8  0001b5f8  2**0
                  CONTENTS, ALLOC, LOAD, DATA, THREAD_LOCAL
  8 .tbss         00000000  200039e8  200039e8  00000000  2**0
                  ALLOC, THREAD_LOCAL
  9 .bss          0002c644  20003a00  100195e4  0001ba00  2**5
                  ALLOC
 10 .heap         0004ffbc  20030044  100195e4  0001c044  2**2
                  ALLOC, READONLY
 11 .scratch_x    00000000  20080000  20080000  0001b5f8  2**0
                  CONTENTS
 12 .scratch_y    00000000  20081000  20081000  0001b5f8  2**0
                  CONTENTS
 13 .stack1_dummy 00000800  20080000  20080000  0001c000  2**2
                  ALLOC
 14 .stack_dummy  00000800  20081000  20081000  0001b600  2**5
                  CONTENTS, READONLY
 15 .flash_end    00000014  100195e4  100195e4  0001b5e4  2**0
                  CONTENTS, ALLOC, LOAD, READONLY, DATA
 16 .ARM.attributes 00000034  00000000  00000000  0001be00  2**0
                  CONTENTS, READONLY
 17 .comment      00000049  00000000  00000000  0001be34  2**0
                  CONTENTS, READONLY
 18 .debug_info   000e523f  00000000  00000000  0001be7d  2**0
                  CONTENTS, READONLY, DEBUGGING, OCTETS
 19 .debug_abbrev 000152b2  00000000  00000000  001010bc  2**0
                  CONTENTS, READONLY, DEBUGGING, OCTETS
 20 .debug_loc    0003988d  00000000  00000000  0011636e  2**0
                  CONTENTS, READONLY, DEBUGGING, OCTETS
 21 .debug_aranges 00002368  00000000  00000000  0014fc00  2**3
                  CONTENTS, READONLY, DEBUGGING, OCTETS
 22 .debug_ranges 00016540  00000000  00000000  00151f68  2**0
                  CONTENTS, READONLY, DEBUGGING, OCTETS
 23 .debug_line   0003f3da  00000000  00000000  001684a8  2**0
                  CONTENTS, READONLY, DEBUGGING, OCTETS
 24 .debug_str    00012750  00000000  00000000  001a7882  2**0
                  CONTENTS, READONLY, DEBUGGING, OCTETS
 25 .debug_frame  000064b4  00000000  00000000  001b9fd4  2**2
                  CONTENTS, READONLY, DEBUGGING, OCTETS
 26 .debug_line_str 000000cd  00000000  00000000  001c0488  2**0
                  CONTENTS, READONLY, DEBUGGING, OCTETS
 27 .debug_rnglists 000000ba  00000000  00000000  001c0555  2**0
                  CONTENTS, READONLY, DEBUGGING, OCTETS

/Users/nickallott/pico/Wave-Machine-Firmware/build/wavemachine.elf:     file format elf32-littlearm


Disassembly of section .text:

10000000 <__VECTOR_TABLE>:
10000000:	20082000 	.word	0x20082000
10000004:	1000015d 	.word	0x1000015d
10000008:	10000113 	.word	0x10000113
1000000c:	10000115 	.word	0x10000115
10000010:	10000111 	.word	0x10000111
10000014:	10000111 	.word	0x10000111
10000018:	10000111 	.word	0x10000111
1000001c:	10000111 	.word	0x10000111
10000020:	10000111 	.word	0x10000111
10000024:	10000111 	.word	0x10000111
10000028:	10000111 	.word	0x10000111
1000002c:	10000117 	.word	0x10000117
10000030:	10000111 	.word	0x10000111
10000034:	10000111 	.word	0x10000111
10000038:	10000119 	.word	0x10000119
1000003c:	1000011b 	.word	0x1000011b
10000040:	1000011d 	.word	0x1000011d
10000044:	1000011d 	.word	0x1000011d
10000048:	1000011d 	.word	0x1000011d
1000004c:	1000011d 	.word	0x1000011d
10000050:	1000011d 	.word	0x1000011d
10000054:	1000011d 	.word	0x1000011d
10000058:	1000011d 	.word	0x1000011d
1000005c:	1000011d 	.word	0x1000011d
10000060:	1000011d 	.word	0x1000011d
10000064:	1000011d 	.word	0x1000011d
10000068:	1000011d 	.word	0x1000011d
1000006c:	1000011d 	.word	0x1000011d
10000070:	1000011d 	.word	0x1000011d
10000074:	1000011d 	.word	0x1000011d
10000078:	1000011d 	.word	0x1000011d
1000007c:	1000011d 	.word	0x1000011d
10000080:	1000011d 	.word	0x1000011d
10000084:	1000011d 	.word	0x1000011d
10000088:	1000011d 	.word	0x1000011d
1000008c:	1000011d 	.word	0x1000011d
10000090:	1000011d 	.word	0x1000011d
10000094:	1000011d 	.word	0x1000011d
10000098:	1000011d 	.word	0x1000011d
1000009c:	1000011d 	.word	0x1000011d
100000a0:	1000011d 	.word	0x1000011d
100000a4:	1000011d 	.word	0x1000011d
100000a8:	1000011d 	.word	0x1000011d
100000ac:	1000011d 	.word	0x1000011d
100000b0:	1000011d 	.word	0x1000011d
100000b4:	1000011d 	.word	0x1000011d
100000b8:	1000011d 	.word	0x1000011d
100000bc:	1000011d 	.word	0x1000011d
100000c0:	1000011d 	.word	0x1000011d
100000c4:	1000011d 	.word	0x1000011d
100000c8:	1000011d 	.word	0x1000011d
100000cc:	1000011d 	.word	0x1000011d
100000d0:	1000011d 	.word	0x1000011d
100000d4:	1000011d 	.word	0x1000011d
100000d8:	1000011d 	.word	0x1000011d
100000dc:	1000011d 	.word	0x1000011d
100000e0:	1000011d 	.word	0x1000011d
100000e4:	1000011d 	.word	0x1000011d
100000e8:	1000011d 	.word	0x1000011d
100000ec:	1000011d 	.word	0x1000011d
100000f0:	1000011d 	.word	0x1000011d
100000f4:	1000011d 	.word	0x1000011d
100000f8:	1000011d 	.word	0x1000011d
100000fc:	1000011d 	.word	0x1000011d
10000100:	1000011d 	.word	0x1000011d
10000104:	1000011d 	.word	0x1000011d
10000108:	1000011d 	.word	0x1000011d
1000010c:	1000011d 	.word	0x1000011d

10000110 <isr_invalid>:
10000110:	be00      	bkpt	0x0000

10000112 <isr_nmi>:
10000112:	be00      	bkpt	0x0000

10000114 <isr_hardfault>:
10000114:	be00      	bkpt	0x0000

10000116 <isr_svcall>:
10000116:	be00      	bkpt	0x0000

10000118 <isr_pendsv>:
10000118:	be00      	bkpt	0x0000

1000011a <isr_systick>:
1000011a:	be00      	bkpt	0x0000

1000011c <__unhandled_user_irq>:
1000011c:	f3ef 8005 	mrs	r0, IPSR
10000120:	3810      	subs	r0, #16

10000122 <unhandled_user_irq_num_in_r0>:
10000122:	be00      	bkpt	0x0000

10000124 <binary_info_header>:
10000124:	7188ebf2 	.word	0x7188ebf2
10000128:	10015ce0 	.word	0x10015ce0
1000012c:	10015d0c 	.word	0x10015d0c
10000130:	100001a8 	.word	0x100001a8
10000134:	e71aa390 	.word	0xe71aa390

10000138 <__binary_info_header_end>:
10000138:	ffffded3 	.word	0xffffded3
1000013c:	10210142 	.word	0x10210142
10000140:	000001ff 	.word	0x000001ff
10000144:	000194ac 	.word	0x000194ac
10000148:	ab123579 	.word	0xab123579

1000014c <_entry_point>:
1000014c:	f04f 0000 	mov.w	r0, #0

10000150 <_enter_vtable_in_r0>:
10000150:	4920      	ldr	r1, [pc, #128]	@ (100001d4 <data_cpy_table+0x2c>)
10000152:	6008      	str	r0, [r1, #0]
10000154:	c806      	ldmia	r0!, {r1, r2}
10000156:	f381 8808 	msr	MSP, r1
1000015a:	4710      	bx	r2

1000015c <_reset_handler>:
1000015c:	f04f 4050 	mov.w	r0, #3489660928	@ 0xd0000000
10000160:	6800      	ldr	r0, [r0, #0]
10000162:	b110      	cbz	r0, 1000016a <hold_non_core0_in_bootrom+0x6>

10000164 <hold_non_core0_in_bootrom>:
10000164:	f04f 0000 	mov.w	r0, #0
10000168:	e7f2      	b.n	10000150 <_enter_vtable_in_r0>
1000016a:	a40f      	add	r4, pc, #60	@ (adr r4, 100001a8 <data_cpy_table>)
1000016c:	cc0e      	ldmia	r4!, {r1, r2, r3}
1000016e:	2900      	cmp	r1, #0
10000170:	d002      	beq.n	10000178 <hold_non_core0_in_bootrom+0x14>
10000172:	f000 f815 	bl	100001a0 <data_cpy>
10000176:	e7f9      	b.n	1000016c <hold_non_core0_in_bootrom+0x8>
10000178:	4917      	ldr	r1, [pc, #92]	@ (100001d8 <data_cpy_table+0x30>)
1000017a:	4a18      	ldr	r2, [pc, #96]	@ (100001dc <data_cpy_table+0x34>)
1000017c:	2000      	movs	r0, #0
1000017e:	e000      	b.n	10000182 <bss_fill_test>

10000180 <bss_fill_loop>:
10000180:	c101      	stmia	r1!, {r0}

10000182 <bss_fill_test>:
10000182:	4291      	cmp	r1, r2
10000184:	d1fc      	bne.n	10000180 <bss_fill_loop>

10000186 <platform_entry>:
10000186:	2000      	movs	r0, #0
10000188:	f380 880a 	msr	MSPLIM, r0
1000018c:	4914      	ldr	r1, [pc, #80]	@ (100001e0 <data_cpy_table+0x38>)
1000018e:	4788      	blx	r1
10000190:	4914      	ldr	r1, [pc, #80]	@ (100001e4 <data_cpy_table+0x3c>)
10000192:	4788      	blx	r1
10000194:	4914      	ldr	r1, [pc, #80]	@ (100001e8 <data_cpy_table+0x40>)
10000196:	4788      	blx	r1
10000198:	be00      	bkpt	0x0000
1000019a:	e7fd      	b.n	10000198 <platform_entry+0x12>

1000019c <data_cpy_loop>:
1000019c:	c901      	ldmia	r1!, {r0}
1000019e:	c201      	stmia	r2!, {r0}

100001a0 <data_cpy>:
100001a0:	429a      	cmp	r2, r3
100001a2:	d3fb      	bcc.n	1000019c <data_cpy_loop>
100001a4:	4770      	bx	lr
100001a6:	bf00      	nop

100001a8 <data_cpy_table>:
100001a8:	10015d0c 	.word	0x10015d0c
100001ac:	20000110 	.word	0x20000110
100001b0:	200039e8 	.word	0x200039e8
100001b4:	100195e4 	.word	0x100195e4
100001b8:	20080000 	.word	0x20080000
100001bc:	20080000 	.word	0x20080000
100001c0:	100195e4 	.word	0x100195e4
100001c4:	20081000 	.word	0x20081000
100001c8:	20081000 	.word	0x20081000
100001cc:	00000000 	.word	0x00000000
100001d0:	4770      	bx	lr
100001d2:	0000      	.short	0x0000
100001d4:	e000ed08 	.word	0xe000ed08
100001d8:	200039e8 	.word	0x200039e8
100001dc:	20030044 	.word	0x20030044
100001e0:	10009d01 	.word	0x10009d01
100001e4:	100002dd 	.word	0x100002dd
100001e8:	10009cf9 	.word	0x10009cf9

100001ec <_init>:
100001ec:	b5f8      	push	{r3, r4, r5, r6, r7, lr}
100001ee:	bf00      	nop

100001f0 <__do_global_dtors_aux>:
100001f0:	b510      	push	{r4, lr}
100001f2:	4c05      	ldr	r4, [pc, #20]	@ (10000208 <__do_global_dtors_aux+0x18>)
100001f4:	7823      	ldrb	r3, [r4, #0]
100001f6:	b933      	cbnz	r3, 10000206 <__do_global_dtors_aux+0x16>
100001f8:	4b04      	ldr	r3, [pc, #16]	@ (1000020c <__do_global_dtors_aux+0x1c>)
100001fa:	b113      	cbz	r3, 10000202 <__do_global_dtors_aux+0x12>
100001fc:	4804      	ldr	r0, [pc, #16]	@ (10000210 <__do_global_dtors_aux+0x20>)
100001fe:	e000      	b.n	10000202 <__do_global_dtors_aux+0x12>
10000200:	bf00      	nop
10000202:	2301      	movs	r3, #1
10000204:	7023      	strb	r3, [r4, #0]
10000206:	bd10      	pop	{r4, pc}
10000208:	20003bc0 	.word	0x20003bc0
1000020c:	00000000 	.word	0x00000000
10000210:	1000ddb8 	.word	0x1000ddb8

10000214 <frame_dummy>:
10000214:	b508      	push	{r3, lr}
10000216:	4b03      	ldr	r3, [pc, #12]	@ (10000224 <frame_dummy+0x10>)
10000218:	b11b      	cbz	r3, 10000222 <frame_dummy+0xe>
1000021a:	4903      	ldr	r1, [pc, #12]	@ (10000228 <frame_dummy+0x14>)
1000021c:	4803      	ldr	r0, [pc, #12]	@ (1000022c <frame_dummy+0x18>)
1000021e:	e000      	b.n	10000222 <frame_dummy+0xe>
10000220:	bf00      	nop
10000222:	bd08      	pop	{r3, pc}
10000224:	00000000 	.word	0x00000000
10000228:	20003bc4 	.word	0x20003bc4
1000022c:	1000ddb8 	.word	0x1000ddb8

10000230 <_Z9synthCorev>:
10000230:	b580      	push	{r7, lr}
10000232:	4c1f      	ldr	r4, [pc, #124]	@ (100002b0 <_Z9synthCorev+0x80>)
10000234:	f006 fc6e 	bl	10006b14 <_ZN5SYNTH4initEv>
10000238:	f000 fc30 	bl	10000a9c <_ZN3DAC4initEv>
1000023c:	f005 fc1a 	bl	10005a74 <_ZN5CLOCK4initEv>
10000240:	481c      	ldr	r0, [pc, #112]	@ (100002b4 <_Z9synthCorev+0x84>)
10000242:	f009 feeb 	bl	1000a01c <__wrap_printf>
10000246:	7823      	ldrb	r3, [r4, #0]
10000248:	b94b      	cbnz	r3, 1000025e <_Z9synthCorev+0x2e>
1000024a:	f44f 70fa 	mov.w	r0, #500	@ 0x1f4
1000024e:	f007 fe27 	bl	10007ea0 <sleep_ms>
10000252:	202e      	movs	r0, #46	@ 0x2e
10000254:	f009 fe7c 	bl	10009f50 <__wrap_putchar>
10000258:	7823      	ldrb	r3, [r4, #0]
1000025a:	2b00      	cmp	r3, #0
1000025c:	d0f5      	beq.n	1000024a <_Z9synthCorev+0x1a>
1000025e:	4816      	ldr	r0, [pc, #88]	@ (100002b8 <_Z9synthCorev+0x88>)
10000260:	f009 fe86 	bl	10009f70 <__wrap_puts>
10000264:	4c15      	ldr	r4, [pc, #84]	@ (100002bc <_Z9synthCorev+0x8c>)
10000266:	4e16      	ldr	r6, [pc, #88]	@ (100002c0 <_Z9synthCorev+0x90>)
10000268:	f8df 8060 	ldr.w	r8, [pc, #96]	@ 100002cc <_Z9synthCorev+0x9c>
1000026c:	4f15      	ldr	r7, [pc, #84]	@ (100002c4 <_Z9synthCorev+0x94>)
1000026e:	4d16      	ldr	r5, [pc, #88]	@ (100002c8 <_Z9synthCorev+0x98>)
10000270:	7833      	ldrb	r3, [r6, #0]
10000272:	f894 9000 	ldrb.w	r9, [r4]
10000276:	4599      	cmp	r9, r3
10000278:	d00e      	beq.n	10000298 <_Z9synthCorev+0x68>
1000027a:	f006 fc53 	bl	10006b24 <_ZN5SYNTH7processEv>
1000027e:	7823      	ldrb	r3, [r4, #0]
10000280:	683a      	ldr	r2, [r7, #0]
10000282:	3301      	adds	r3, #1
10000284:	f003 031f 	and.w	r3, r3, #31
10000288:	3201      	adds	r2, #1
1000028a:	7023      	strb	r3, [r4, #0]
1000028c:	603a      	str	r2, [r7, #0]
1000028e:	f828 0019 	strh.w	r0, [r8, r9, lsl #1]
10000292:	f005 fc8b 	bl	10005bac <_ZN5CLOCK17internalClockTickEv>
10000296:	7823      	ldrb	r3, [r4, #0]
10000298:	b13b      	cbz	r3, 100002aa <_Z9synthCorev+0x7a>
1000029a:	4628      	mov	r0, r5
1000029c:	f003 fe54 	bl	10003f48 <_ZN8INTERVAL15IntervalChecker13checkIntervalEv>
100002a0:	2800      	cmp	r0, #0
100002a2:	d0e5      	beq.n	10000270 <_Z9synthCorev+0x40>
100002a4:	f003 fe8e 	bl	10003fc4 <_ZN5QUEUE6updateEv>
100002a8:	e7e2      	b.n	10000270 <_Z9synthCorev+0x40>
100002aa:	f006 fcfb 	bl	10006ca4 <_ZN5SYNTH19calculateIncrementsEv>
100002ae:	e7f4      	b.n	1000029a <_Z9synthCorev+0x6a>
100002b0:	20030040 	.word	0x20030040
100002b4:	1000ddb8 	.word	0x1000ddb8
100002b8:	1000ddd8 	.word	0x1000ddd8
100002bc:	2003003f 	.word	0x2003003f
100002c0:	200010d9 	.word	0x200010d9
100002c4:	2002ffcc 	.word	0x2002ffcc
100002c8:	2002f21c 	.word	0x2002f21c
100002cc:	2002fda4 	.word	0x2002fda4

100002d0 <_Z12hardwareCorev>:
100002d0:	b508      	push	{r3, lr}
100002d2:	f002 f9c3 	bl	1000265c <_ZN2UI4initEv>
100002d6:	f002 f961 	bl	1000259c <_ZN2UI6updateEv>
100002da:	e7fc      	b.n	100002d6 <_Z12hardwareCorev+0x6>

100002dc <main>:
100002dc:	b508      	push	{r3, lr}
100002de:	f009 fe31 	bl	10009f44 <stdio_init_all>
100002e2:	f003 fe57 	bl	10003f94 <_ZN5QUEUE4initEv>
100002e6:	4802      	ldr	r0, [pc, #8]	@ (100002f0 <main+0x14>)
100002e8:	f009 ffea 	bl	1000a2c0 <multicore_launch_core1>
100002ec:	f7ff fff0 	bl	100002d0 <_Z12hardwareCorev>
100002f0:	10000231 	.word	0x10000231

100002f4 <_GLOBAL__sub_I_sampleClockLast>:
100002f4:	2200      	movs	r2, #0
100002f6:	f46f 437e 	mvn.w	r3, #65024	@ 0xfe00
100002fa:	492e      	ldr	r1, [pc, #184]	@ (100003b4 <_GLOBAL__sub_I_sampleClockLast+0xc0>)
100002fc:	482e      	ldr	r0, [pc, #184]	@ (100003b8 <_GLOBAL__sub_I_sampleClockLast+0xc4>)
100002fe:	b570      	push	{r4, r5, r6, lr}
10000300:	f04f 0c04 	mov.w	ip, #4
10000304:	f64a 4544 	movw	r5, #44100	@ 0xac44
10000308:	f64f 74ff 	movw	r4, #65535	@ 0xffff
1000030c:	e9c1 2306 	strd	r2, r3, [r1, #24]
10000310:	e9c1 2309 	strd	r2, r3, [r1, #36]	@ 0x24
10000314:	e9c1 230c 	strd	r2, r3, [r1, #48]	@ 0x30
10000318:	4603      	mov	r3, r0
1000031a:	600d      	str	r5, [r1, #0]
1000031c:	f8a1 4040 	strh.w	r4, [r1, #64]	@ 0x40
10000320:	82ca      	strh	r2, [r1, #22]
10000322:	844a      	strh	r2, [r1, #34]	@ 0x22
10000324:	85ca      	strh	r2, [r1, #46]	@ 0x2e
10000326:	870a      	strh	r2, [r1, #56]	@ 0x38
10000328:	eb01 060c 	add.w	r6, r1, ip
1000032c:	f101 0508 	add.w	r5, r1, #8
10000330:	f101 040c 	add.w	r4, r1, #12
10000334:	f500 7ef0 	add.w	lr, r0, #480	@ 0x1e0
10000338:	3110      	adds	r1, #16
1000033a:	f883 c020 	strb.w	ip, [r3, #32]
1000033e:	f883 2024 	strb.w	r2, [r3, #36]	@ 0x24
10000342:	f883 2026 	strb.w	r2, [r3, #38]	@ 0x26
10000346:	f883 2027 	strb.w	r2, [r3, #39]	@ 0x27
1000034a:	f883 2028 	strb.w	r2, [r3, #40]	@ 0x28
1000034e:	e9c3 6500 	strd	r6, r5, [r3]
10000352:	e9c3 4102 	strd	r4, r1, [r3, #8]
10000356:	e9c3 2204 	strd	r2, r2, [r3, #16]
1000035a:	e9c3 2206 	strd	r2, r2, [r3, #24]
1000035e:	e9c3 220b 	strd	r2, r2, [r3, #44]	@ 0x2c
10000362:	e9c3 220d 	strd	r2, r2, [r3, #52]	@ 0x34
10000366:	333c      	adds	r3, #60	@ 0x3c
10000368:	459e      	cmp	lr, r3
1000036a:	d1e6      	bne.n	1000033a <_GLOBAL__sub_I_sampleClockLast+0x46>
1000036c:	2403      	movs	r4, #3
1000036e:	f8c0 21e0 	str.w	r2, [r0, #480]	@ 0x1e0
10000372:	f880 2024 	strb.w	r2, [r0, #36]	@ 0x24
10000376:	2206      	movs	r2, #6
10000378:	2301      	movs	r3, #1
1000037a:	2102      	movs	r1, #2
1000037c:	2505      	movs	r5, #5
1000037e:	f880 40d8 	strb.w	r4, [r0, #216]	@ 0xd8
10000382:	2407      	movs	r4, #7
10000384:	f880 218c 	strb.w	r2, [r0, #396]	@ 0x18c
10000388:	2200      	movs	r2, #0
1000038a:	f880 3060 	strb.w	r3, [r0, #96]	@ 0x60
1000038e:	f880 109c 	strb.w	r1, [r0, #156]	@ 0x9c
10000392:	4b0a      	ldr	r3, [pc, #40]	@ (100003bc <_GLOBAL__sub_I_sampleClockLast+0xc8>)
10000394:	490a      	ldr	r1, [pc, #40]	@ (100003c0 <_GLOBAL__sub_I_sampleClockLast+0xcc>)
10000396:	f880 c114 	strb.w	ip, [r0, #276]	@ 0x114
1000039a:	f880 5150 	strb.w	r5, [r0, #336]	@ 0x150
1000039e:	f880 41c8 	strb.w	r4, [r0, #456]	@ 0x1c8
100003a2:	f883 2103 	strb.w	r2, [r3, #259]	@ 0x103
100003a6:	701a      	strb	r2, [r3, #0]
100003a8:	f203 1305 	addw	r3, r3, #261	@ 0x105
100003ac:	428b      	cmp	r3, r1
100003ae:	d1f8      	bne.n	100003a2 <_GLOBAL__sub_I_sampleClockLast+0xae>
100003b0:	bd70      	pop	{r4, r5, r6, pc}
100003b2:	bf00      	nop
100003b4:	2002cdc4 	.word	0x2002cdc4
100003b8:	2002d138 	.word	0x2002d138
100003bc:	20003ef8 	.word	0x20003ef8
100003c0:	20008038 	.word	0x20008038

100003c4 <_Z3maplllll>:
100003c4:	eba0 0c01 	sub.w	ip, r0, r1
100003c8:	9800      	ldr	r0, [sp, #0]
100003ca:	1a51      	subs	r1, r2, r1
100003cc:	1ac0      	subs	r0, r0, r3
100003ce:	fb00 fc0c 	mul.w	ip, r0, ip
100003d2:	fb9c fcf1 	sdiv	ip, ip, r1
100003d6:	eb0c 0003 	add.w	r0, ip, r3
100003da:	4770      	bx	lr

100003dc <_Z15map_constrainedlllll>:
100003dc:	b410      	push	{r4}
100003de:	9c01      	ldr	r4, [sp, #4]
100003e0:	eba0 0c01 	sub.w	ip, r0, r1
100003e4:	1ae0      	subs	r0, r4, r3
100003e6:	fb00 fc0c 	mul.w	ip, r0, ip
100003ea:	1a51      	subs	r1, r2, r1
100003ec:	fb9c fcf1 	sdiv	ip, ip, r1
100003f0:	449c      	add	ip, r3
100003f2:	4564      	cmp	r4, ip
100003f4:	4620      	mov	r0, r4
100003f6:	bfa8      	it	ge
100003f8:	4660      	movge	r0, ip
100003fa:	4298      	cmp	r0, r3
100003fc:	bfb8      	it	lt
100003fe:	4618      	movlt	r0, r3
10000400:	f85d 4b04 	ldr.w	r4, [sp], #4
10000404:	4770      	bx	lr
10000406:	bf00      	nop

10000408 <_Z15applyHysteresisRiii>:
10000408:	6803      	ldr	r3, [r0, #0]
1000040a:	1acb      	subs	r3, r1, r3
1000040c:	2b00      	cmp	r3, #0
1000040e:	bfb8      	it	lt
10000410:	425b      	neglt	r3, r3
10000412:	4293      	cmp	r3, r2
10000414:	bfc8      	it	gt
10000416:	6001      	strgt	r1, [r0, #0]
10000418:	4770      	bx	lr
1000041a:	bf00      	nop

1000041c <_ZN6RANDOM6updateEt>:
1000041c:	4b05      	ldr	r3, [pc, #20]	@ (10000434 <_ZN6RANDOM6updateEt+0x18>)
1000041e:	881a      	ldrh	r2, [r3, #0]
10000420:	4410      	add	r0, r2
10000422:	ea80 10c0 	eor.w	r0, r0, r0, lsl #7
10000426:	b280      	uxth	r0, r0
10000428:	ea80 2050 	eor.w	r0, r0, r0, lsr #9
1000042c:	ea80 2000 	eor.w	r0, r0, r0, lsl #8
10000430:	8018      	strh	r0, [r3, #0]
10000432:	4770      	bx	lr
10000434:	20030004 	.word	0x20030004

10000438 <_ZN6RANDOM3getEv>:
10000438:	4b01      	ldr	r3, [pc, #4]	@ (10000440 <_ZN6RANDOM3getEv+0x8>)
1000043a:	8818      	ldrh	r0, [r3, #0]
1000043c:	4770      	bx	lr
1000043e:	bf00      	nop
10000440:	20030004 	.word	0x20030004

10000444 <_ZN6RANDOM9getSignalEv>:
10000444:	4b02      	ldr	r3, [pc, #8]	@ (10000450 <_ZN6RANDOM9getSignalEv+0xc>)
10000446:	8818      	ldrh	r0, [r3, #0]
10000448:	3080      	adds	r0, #128	@ 0x80
1000044a:	b200      	sxth	r0, r0
1000044c:	4770      	bx	lr
1000044e:	bf00      	nop
10000450:	20030004 	.word	0x20030004

10000454 <tud_descriptor_device_cb>:
10000454:	4b04      	ldr	r3, [pc, #16]	@ (10000468 <tud_descriptor_device_cb+0x14>)
10000456:	4905      	ldr	r1, [pc, #20]	@ (1000046c <tud_descriptor_device_cb+0x18>)
10000458:	781b      	ldrb	r3, [r3, #0]
1000045a:	4a05      	ldr	r2, [pc, #20]	@ (10000470 <tud_descriptor_device_cb+0x1c>)
1000045c:	4805      	ldr	r0, [pc, #20]	@ (10000474 <tud_descriptor_device_cb+0x20>)
1000045e:	600b      	str	r3, [r1, #0]
10000460:	2b00      	cmp	r3, #0
10000462:	bf08      	it	eq
10000464:	4610      	moveq	r0, r2
10000466:	4770      	bx	lr
10000468:	2003000c 	.word	0x2003000c
1000046c:	2002fd9c 	.word	0x2002fd9c
10000470:	1000dea0 	.word	0x1000dea0
10000474:	1000deb4 	.word	0x1000deb4

10000478 <tud_umount_cb>:
10000478:	4770      	bx	lr
1000047a:	bf00      	nop

1000047c <tud_suspend_cb>:
1000047c:	4770      	bx	lr
1000047e:	bf00      	nop

10000480 <tud_descriptor_configuration_cb>:
10000480:	4b04      	ldr	r3, [pc, #16]	@ (10000494 <tud_descriptor_configuration_cb+0x14>)
10000482:	4a05      	ldr	r2, [pc, #20]	@ (10000498 <tud_descriptor_configuration_cb+0x18>)
10000484:	6818      	ldr	r0, [r3, #0]
10000486:	4b05      	ldr	r3, [pc, #20]	@ (1000049c <tud_descriptor_configuration_cb+0x1c>)
10000488:	2800      	cmp	r0, #0
1000048a:	bf14      	ite	ne
1000048c:	4610      	movne	r0, r2
1000048e:	4618      	moveq	r0, r3
10000490:	4770      	bx	lr
10000492:	bf00      	nop
10000494:	2002fd9c 	.word	0x2002fd9c
10000498:	1000de80 	.word	0x1000de80
1000049c:	1000de18 	.word	0x1000de18

100004a0 <tud_descriptor_string_cb>:
100004a0:	b538      	push	{r3, r4, r5, lr}
100004a2:	b948      	cbnz	r0, 100004b8 <tud_descriptor_string_cb+0x18>
100004a4:	4b1c      	ldr	r3, [pc, #112]	@ (10000518 <tud_descriptor_string_cb+0x78>)
100004a6:	4d1d      	ldr	r5, [pc, #116]	@ (1000051c <tud_descriptor_string_cb+0x7c>)
100004a8:	681a      	ldr	r2, [r3, #0]
100004aa:	f44f 7341 	mov.w	r3, #772	@ 0x304
100004ae:	8812      	ldrh	r2, [r2, #0]
100004b0:	806a      	strh	r2, [r5, #2]
100004b2:	481a      	ldr	r0, [pc, #104]	@ (1000051c <tud_descriptor_string_cb+0x7c>)
100004b4:	802b      	strh	r3, [r5, #0]
100004b6:	bd38      	pop	{r3, r4, r5, pc}
100004b8:	2803      	cmp	r0, #3
100004ba:	4604      	mov	r4, r0
100004bc:	d020      	beq.n	10000500 <tud_descriptor_string_cb+0x60>
100004be:	d824      	bhi.n	1000050a <tud_descriptor_string_cb+0x6a>
100004c0:	4b15      	ldr	r3, [pc, #84]	@ (10000518 <tud_descriptor_string_cb+0x78>)
100004c2:	f853 4024 	ldr.w	r4, [r3, r4, lsl #2]
100004c6:	4620      	mov	r0, r4
100004c8:	f00d fa3c 	bl	1000d944 <strlen>
100004cc:	b2c0      	uxtb	r0, r0
100004ce:	281f      	cmp	r0, #31
100004d0:	4602      	mov	r2, r0
100004d2:	bf28      	it	cs
100004d4:	221f      	movcs	r2, #31
100004d6:	b1d0      	cbz	r0, 1000050e <tud_descriptor_string_cb+0x6e>
100004d8:	4d10      	ldr	r5, [pc, #64]	@ (1000051c <tud_descriptor_string_cb+0x7c>)
100004da:	2300      	movs	r3, #0
100004dc:	4629      	mov	r1, r5
100004de:	1e60      	subs	r0, r4, #1
100004e0:	3301      	adds	r3, #1
100004e2:	f810 4f01 	ldrb.w	r4, [r0, #1]!
100004e6:	b2db      	uxtb	r3, r3
100004e8:	429a      	cmp	r2, r3
100004ea:	f821 4f02 	strh.w	r4, [r1, #2]!
100004ee:	d8f7      	bhi.n	100004e0 <tud_descriptor_string_cb+0x40>
100004f0:	1c53      	adds	r3, r2, #1
100004f2:	b2db      	uxtb	r3, r3
100004f4:	005b      	lsls	r3, r3, #1
100004f6:	f443 7340 	orr.w	r3, r3, #768	@ 0x300
100004fa:	4808      	ldr	r0, [pc, #32]	@ (1000051c <tud_descriptor_string_cb+0x7c>)
100004fc:	802b      	strh	r3, [r5, #0]
100004fe:	e7da      	b.n	100004b6 <tud_descriptor_string_cb+0x16>
10000500:	2111      	movs	r1, #17
10000502:	4807      	ldr	r0, [pc, #28]	@ (10000520 <tud_descriptor_string_cb+0x80>)
10000504:	f009 ff22 	bl	1000a34c <pico_get_unique_board_id_string>
10000508:	e7da      	b.n	100004c0 <tud_descriptor_string_cb+0x20>
1000050a:	2000      	movs	r0, #0
1000050c:	bd38      	pop	{r3, r4, r5, pc}
1000050e:	f240 3302 	movw	r3, #770	@ 0x302
10000512:	4d02      	ldr	r5, [pc, #8]	@ (1000051c <tud_descriptor_string_cb+0x7c>)
10000514:	e7cd      	b.n	100004b2 <tud_descriptor_string_cb+0x12>
10000516:	bf00      	nop
10000518:	200010c8 	.word	0x200010c8
1000051c:	2002f274 	.word	0x2002f274
10000520:	2002ffd0 	.word	0x2002ffd0

10000524 <_ZN3USB4initEv>:
10000524:	f00c bad8 	b.w	1000cad8 <tusb_init>

10000528 <_ZN3USB6updateEv>:
10000528:	2100      	movs	r1, #0
1000052a:	f04f 30ff 	mov.w	r0, #4294967295	@ 0xffffffff
1000052e:	f00a bd77 	b.w	1000b020 <tud_task_ext>
10000532:	bf00      	nop

10000534 <_ZN3USB4MIDI9availableEv>:
10000534:	2100      	movs	r1, #0
10000536:	4608      	mov	r0, r1
10000538:	f00b bba0 	b.w	1000bc7c <tud_midi_n_available>

1000053c <_ZN3USB4MIDI3getEhPh>:
1000053c:	460a      	mov	r2, r1
1000053e:	2100      	movs	r1, #0
10000540:	4603      	mov	r3, r0
10000542:	4608      	mov	r0, r1
10000544:	f00b bbae 	b.w	1000bca4 <tud_midi_n_stream_read>

10000548 <_ZN3USB4MIDI4sendEPhj>:
10000548:	4602      	mov	r2, r0
1000054a:	460b      	mov	r3, r1
1000054c:	b149      	cbz	r1, 10000562 <_ZN3USB4MIDI4sendEPhj+0x1a>
1000054e:	293f      	cmp	r1, #63	@ 0x3f
10000550:	d803      	bhi.n	1000055a <_ZN3USB4MIDI4sendEPhj+0x12>
10000552:	2100      	movs	r1, #0
10000554:	4608      	mov	r0, r1
10000556:	f00b bc0d 	b.w	1000bd74 <tud_midi_n_stream_write>
1000055a:	4904      	ldr	r1, [pc, #16]	@ (1000056c <_ZN3USB4MIDI4sendEPhj+0x24>)
1000055c:	4804      	ldr	r0, [pc, #16]	@ (10000570 <_ZN3USB4MIDI4sendEPhj+0x28>)
1000055e:	f009 bd5d 	b.w	1000a01c <__wrap_printf>
10000562:	4904      	ldr	r1, [pc, #16]	@ (10000574 <_ZN3USB4MIDI4sendEPhj+0x2c>)
10000564:	4802      	ldr	r0, [pc, #8]	@ (10000570 <_ZN3USB4MIDI4sendEPhj+0x28>)
10000566:	f009 bd59 	b.w	1000a01c <__wrap_printf>
1000056a:	bf00      	nop
1000056c:	1000def8 	.word	0x1000def8
10000570:	1000dee8 	.word	0x1000dee8
10000574:	1000dec8 	.word	0x1000dec8

10000578 <_ZN3ADC12_GLOBAL__N_19readNoiseEv>:
10000578:	b410      	push	{r4}
1000057a:	2404      	movs	r4, #4
1000057c:	4a0f      	ldr	r2, [pc, #60]	@ (100005bc <_ZN3ADC12_GLOBAL__N_19readNoiseEv+0x44>)
1000057e:	4810      	ldr	r0, [pc, #64]	@ (100005c0 <_ZN3ADC12_GLOBAL__N_19readNoiseEv+0x48>)
10000580:	6813      	ldr	r3, [r2, #0]
10000582:	4910      	ldr	r1, [pc, #64]	@ (100005c4 <_ZN3ADC12_GLOBAL__N_19readNoiseEv+0x4c>)
10000584:	f483 5380 	eor.w	r3, r3, #4096	@ 0x1000
10000588:	f403 4370 	and.w	r3, r3, #61440	@ 0xf000
1000058c:	6003      	str	r3, [r0, #0]
1000058e:	4b0e      	ldr	r3, [pc, #56]	@ (100005c8 <_ZN3ADC12_GLOBAL__N_19readNoiseEv+0x50>)
10000590:	7808      	ldrb	r0, [r1, #0]
10000592:	601c      	str	r4, [r3, #0]
10000594:	6813      	ldr	r3, [r2, #0]
10000596:	05db      	lsls	r3, r3, #23
10000598:	d5fc      	bpl.n	10000594 <_ZN3ADC12_GLOBAL__N_19readNoiseEv+0x1c>
1000059a:	6854      	ldr	r4, [r2, #4]
1000059c:	4b0b      	ldr	r3, [pc, #44]	@ (100005cc <_ZN3ADC12_GLOBAL__N_19readNoiseEv+0x54>)
1000059e:	f823 4010 	strh.w	r4, [r3, r0, lsl #1]
100005a2:	780b      	ldrb	r3, [r1, #0]
100005a4:	4806      	ldr	r0, [pc, #24]	@ (100005c0 <_ZN3ADC12_GLOBAL__N_19readNoiseEv+0x48>)
100005a6:	3301      	adds	r3, #1
100005a8:	f003 031f 	and.w	r3, r3, #31
100005ac:	700b      	strb	r3, [r1, #0]
100005ae:	6813      	ldr	r3, [r2, #0]
100005b0:	f85d 4b04 	ldr.w	r4, [sp], #4
100005b4:	f403 4370 	and.w	r3, r3, #61440	@ 0xf000
100005b8:	6003      	str	r3, [r0, #0]
100005ba:	4770      	bx	lr
100005bc:	400a0000 	.word	0x400a0000
100005c0:	400a1000 	.word	0x400a1000
100005c4:	20030012 	.word	0x20030012
100005c8:	400a2000 	.word	0x400a2000
100005cc:	20003c8c 	.word	0x20003c8c

100005d0 <_ZN3ADC12_GLOBAL__N_111readBatteryEv>:
100005d0:	2004      	movs	r0, #4
100005d2:	4a18      	ldr	r2, [pc, #96]	@ (10000634 <_ZN3ADC12_GLOBAL__N_111readBatteryEv+0x64>)
100005d4:	b510      	push	{r4, lr}
100005d6:	6813      	ldr	r3, [r2, #0]
100005d8:	4c17      	ldr	r4, [pc, #92]	@ (10000638 <_ZN3ADC12_GLOBAL__N_111readBatteryEv+0x68>)
100005da:	4918      	ldr	r1, [pc, #96]	@ (1000063c <_ZN3ADC12_GLOBAL__N_111readBatteryEv+0x6c>)
100005dc:	f483 5340 	eor.w	r3, r3, #12288	@ 0x3000
100005e0:	f403 4370 	and.w	r3, r3, #61440	@ 0xf000
100005e4:	6023      	str	r3, [r4, #0]
100005e6:	6008      	str	r0, [r1, #0]
100005e8:	6813      	ldr	r3, [r2, #0]
100005ea:	05d9      	lsls	r1, r3, #23
100005ec:	d5fc      	bpl.n	100005e8 <_ZN3ADC12_GLOBAL__N_111readBatteryEv+0x18>
100005ee:	2002      	movs	r0, #2
100005f0:	6853      	ldr	r3, [r2, #4]
100005f2:	f007 fc55 	bl	10007ea0 <sleep_ms>
100005f6:	2104      	movs	r1, #4
100005f8:	4b10      	ldr	r3, [pc, #64]	@ (1000063c <_ZN3ADC12_GLOBAL__N_111readBatteryEv+0x6c>)
100005fa:	4a0e      	ldr	r2, [pc, #56]	@ (10000634 <_ZN3ADC12_GLOBAL__N_111readBatteryEv+0x64>)
100005fc:	6019      	str	r1, [r3, #0]
100005fe:	6813      	ldr	r3, [r2, #0]
10000600:	05db      	lsls	r3, r3, #23
10000602:	d5fc      	bpl.n	100005fe <_ZN3ADC12_GLOBAL__N_111readBatteryEv+0x2e>
10000604:	6853      	ldr	r3, [r2, #4]
10000606:	eddf 6a0e 	vldr	s13, [pc, #56]	@ 10000640 <_ZN3ADC12_GLOBAL__N_111readBatteryEv+0x70>
1000060a:	b29b      	uxth	r3, r3
1000060c:	ee07 3a90 	vmov	s15, r3
10000610:	eef8 7a67 	vcvt.f32.u32	s15, s15
10000614:	eeb0 7a08 	vmov.f32	s14, #8	@ 0x40400000  3.0
10000618:	ee67 7aa6 	vmul.f32	s15, s15, s13
1000061c:	ee67 7a87 	vmul.f32	s15, s15, s14
10000620:	4b08      	ldr	r3, [pc, #32]	@ (10000644 <_ZN3ADC12_GLOBAL__N_111readBatteryEv+0x74>)
10000622:	4905      	ldr	r1, [pc, #20]	@ (10000638 <_ZN3ADC12_GLOBAL__N_111readBatteryEv+0x68>)
10000624:	edc3 7a00 	vstr	s15, [r3]
10000628:	6813      	ldr	r3, [r2, #0]
1000062a:	f403 4370 	and.w	r3, r3, #61440	@ 0xf000
1000062e:	600b      	str	r3, [r1, #0]
10000630:	bd10      	pop	{r4, pc}
10000632:	bf00      	nop
10000634:	400a0000 	.word	0x400a0000
10000638:	400a1000 	.word	0x400a1000
1000063c:	400a2000 	.word	0x400a2000
10000640:	3a5147ae 	.word	0x3a5147ae
10000644:	20003c74 	.word	0x20003c74

10000648 <_ZN3ADC4initEv>:
10000648:	b510      	push	{r4, lr}
1000064a:	f009 ff49 	bl	1000a4e0 <adc_init>
1000064e:	211f      	movs	r1, #31
10000650:	201a      	movs	r0, #26
10000652:	f006 fceb 	bl	1000702c <gpio_set_function>
10000656:	2200      	movs	r2, #0
10000658:	201a      	movs	r0, #26
1000065a:	4611      	mov	r1, r2
1000065c:	f006 fd04 	bl	10007068 <gpio_set_pulls>
10000660:	2100      	movs	r1, #0
10000662:	201a      	movs	r0, #26
10000664:	f006 fd36 	bl	100070d4 <gpio_set_input_enabled>
10000668:	211f      	movs	r1, #31
1000066a:	201b      	movs	r0, #27
1000066c:	f006 fcde 	bl	1000702c <gpio_set_function>
10000670:	2200      	movs	r2, #0
10000672:	201b      	movs	r0, #27
10000674:	4611      	mov	r1, r2
10000676:	f006 fcf7 	bl	10007068 <gpio_set_pulls>
1000067a:	2100      	movs	r1, #0
1000067c:	201b      	movs	r0, #27
1000067e:	f006 fd29 	bl	100070d4 <gpio_set_input_enabled>
10000682:	211f      	movs	r1, #31
10000684:	202b      	movs	r0, #43	@ 0x2b
10000686:	f006 fcd1 	bl	1000702c <gpio_set_function>
1000068a:	2200      	movs	r2, #0
1000068c:	202b      	movs	r0, #43	@ 0x2b
1000068e:	4611      	mov	r1, r2
10000690:	f006 fcea 	bl	10007068 <gpio_set_pulls>
10000694:	2100      	movs	r1, #0
10000696:	202b      	movs	r0, #43	@ 0x2b
10000698:	f006 fd1c 	bl	100070d4 <gpio_set_input_enabled>
1000069c:	2302      	movs	r3, #2
1000069e:	2004      	movs	r0, #4
100006a0:	4933      	ldr	r1, [pc, #204]	@ (10000770 <_ZN3ADC4initEv+0x128>)
100006a2:	4a34      	ldr	r2, [pc, #208]	@ (10000774 <_ZN3ADC4initEv+0x12c>)
100006a4:	600b      	str	r3, [r1, #0]
100006a6:	6813      	ldr	r3, [r2, #0]
100006a8:	4c33      	ldr	r4, [pc, #204]	@ (10000778 <_ZN3ADC4initEv+0x130>)
100006aa:	f483 4300 	eor.w	r3, r3, #32768	@ 0x8000
100006ae:	f403 4370 	and.w	r3, r3, #61440	@ 0xf000
100006b2:	6023      	str	r3, [r4, #0]
100006b4:	6008      	str	r0, [r1, #0]
100006b6:	6813      	ldr	r3, [r2, #0]
100006b8:	05db      	lsls	r3, r3, #23
100006ba:	d5fc      	bpl.n	100006b6 <_ZN3ADC4initEv+0x6e>
100006bc:	6853      	ldr	r3, [r2, #4]
100006be:	eddf 5a2f 	vldr	s11, [pc, #188]	@ 1000077c <_ZN3ADC4initEv+0x134>
100006c2:	b29b      	uxth	r3, r3
100006c4:	ee07 3a90 	vmov	s15, r3
100006c8:	eddf 6a2d 	vldr	s13, [pc, #180]	@ 10000780 <_ZN3ADC4initEv+0x138>
100006cc:	eef8 7a67 	vcvt.f32.u32	s15, s15
100006d0:	ed9f 6a2c 	vldr	s12, [pc, #176]	@ 10000784 <_ZN3ADC4initEv+0x13c>
100006d4:	eee7 6aa5 	vfma.f32	s13, s15, s11
100006d8:	eeb3 7a0b 	vmov.f32	s14, #59	@ 0x41d80000  27.0
100006dc:	eec6 7a86 	vdiv.f32	s15, s13, s12
100006e0:	2002      	movs	r0, #2
100006e2:	ee77 7a67 	vsub.f32	s15, s14, s15
100006e6:	4b28      	ldr	r3, [pc, #160]	@ (10000788 <_ZN3ADC4initEv+0x140>)
100006e8:	4c28      	ldr	r4, [pc, #160]	@ (1000078c <_ZN3ADC4initEv+0x144>)
100006ea:	4923      	ldr	r1, [pc, #140]	@ (10000778 <_ZN3ADC4initEv+0x130>)
100006ec:	edc4 7a00 	vstr	s15, [r4]
100006f0:	6018      	str	r0, [r3, #0]
100006f2:	6813      	ldr	r3, [r2, #0]
100006f4:	f403 4370 	and.w	r3, r3, #61440	@ 0xf000
100006f8:	600b      	str	r3, [r1, #0]
100006fa:	f7ff ff3d 	bl	10000578 <_ZN3ADC12_GLOBAL__N_19readNoiseEv>
100006fe:	f7ff ff3b 	bl	10000578 <_ZN3ADC12_GLOBAL__N_19readNoiseEv>
10000702:	f7ff ff39 	bl	10000578 <_ZN3ADC12_GLOBAL__N_19readNoiseEv>
10000706:	f7ff ff37 	bl	10000578 <_ZN3ADC12_GLOBAL__N_19readNoiseEv>
1000070a:	f7ff ff35 	bl	10000578 <_ZN3ADC12_GLOBAL__N_19readNoiseEv>
1000070e:	f7ff ff33 	bl	10000578 <_ZN3ADC12_GLOBAL__N_19readNoiseEv>
10000712:	f7ff ff31 	bl	10000578 <_ZN3ADC12_GLOBAL__N_19readNoiseEv>
10000716:	f7ff ff2f 	bl	10000578 <_ZN3ADC12_GLOBAL__N_19readNoiseEv>
1000071a:	f7ff ff2d 	bl	10000578 <_ZN3ADC12_GLOBAL__N_19readNoiseEv>
1000071e:	f7ff ff57 	bl	100005d0 <_ZN3ADC12_GLOBAL__N_111readBatteryEv>
10000722:	f7ff ff55 	bl	100005d0 <_ZN3ADC12_GLOBAL__N_111readBatteryEv>
10000726:	f7ff ff53 	bl	100005d0 <_ZN3ADC12_GLOBAL__N_111readBatteryEv>
1000072a:	f7ff ff51 	bl	100005d0 <_ZN3ADC12_GLOBAL__N_111readBatteryEv>
1000072e:	f7ff ff4f 	bl	100005d0 <_ZN3ADC12_GLOBAL__N_111readBatteryEv>
10000732:	4b17      	ldr	r3, [pc, #92]	@ (10000790 <_ZN3ADC4initEv+0x148>)
10000734:	ed9f 7a17 	vldr	s14, [pc, #92]	@ 10000794 <_ZN3ADC4initEv+0x14c>
10000738:	edd3 7a00 	vldr	s15, [r3]
1000073c:	eef4 7ac7 	vcmpe.f32	s15, s14
10000740:	eef1 fa10 	vmrs	APSR_nzcv, fpscr
10000744:	d403      	bmi.n	1000074e <_ZN3ADC4initEv+0x106>
10000746:	2200      	movs	r2, #0
10000748:	4b13      	ldr	r3, [pc, #76]	@ (10000798 <_ZN3ADC4initEv+0x150>)
1000074a:	701a      	strb	r2, [r3, #0]
1000074c:	bd10      	pop	{r4, pc}
1000074e:	ee17 0a90 	vmov	r0, s15
10000752:	f00d fa89 	bl	1000dc68 <____aeabi_f2d_veneer>
10000756:	4602      	mov	r2, r0
10000758:	460b      	mov	r3, r1
1000075a:	4810      	ldr	r0, [pc, #64]	@ (1000079c <_ZN3ADC4initEv+0x154>)
1000075c:	f009 fc5e 	bl	1000a01c <__wrap_printf>
10000760:	480f      	ldr	r0, [pc, #60]	@ (100007a0 <_ZN3ADC4initEv+0x158>)
10000762:	f009 fc05 	bl	10009f70 <__wrap_puts>
10000766:	2201      	movs	r2, #1
10000768:	4b0b      	ldr	r3, [pc, #44]	@ (10000798 <_ZN3ADC4initEv+0x150>)
1000076a:	701a      	strb	r2, [r3, #0]
1000076c:	bd10      	pop	{r4, pc}
1000076e:	bf00      	nop
10000770:	400a2000 	.word	0x400a2000
10000774:	400a0000 	.word	0x400a0000
10000778:	400a1000 	.word	0x400a1000
1000077c:	3a5147ae 	.word	0x3a5147ae
10000780:	bf34bc6a 	.word	0xbf34bc6a
10000784:	3ae1932d 	.word	0x3ae1932d
10000788:	400a3000 	.word	0x400a3000
1000078c:	20003c78 	.word	0x20003c78
10000790:	20003c74 	.word	0x20003c74
10000794:	40651eb8 	.word	0x40651eb8
10000798:	20030011 	.word	0x20030011
1000079c:	1000df14 	.word	0x1000df14
100007a0:	1000df28 	.word	0x1000df28

100007a4 <_ZN3ADC6updateEv>:
100007a4:	b570      	push	{r4, r5, r6, lr}
100007a6:	b082      	sub	sp, #8
100007a8:	f001 fa8e 	bl	10001cc8 <_ZN3MUX10getAddressEv>
100007ac:	2104      	movs	r1, #4
100007ae:	4b1b      	ldr	r3, [pc, #108]	@ (1000081c <_ZN3ADC6updateEv+0x78>)
100007b0:	4a1b      	ldr	r2, [pc, #108]	@ (10000820 <_ZN3ADC6updateEv+0x7c>)
100007b2:	f000 0403 	and.w	r4, r0, #3
100007b6:	6019      	str	r1, [r3, #0]
100007b8:	6813      	ldr	r3, [r2, #0]
100007ba:	05db      	lsls	r3, r3, #23
100007bc:	d5fc      	bpl.n	100007b8 <_ZN3ADC6updateEv+0x14>
100007be:	6855      	ldr	r5, [r2, #4]
100007c0:	4e18      	ldr	r6, [pc, #96]	@ (10000824 <_ZN3ADC6updateEv+0x80>)
100007c2:	b2a9      	uxth	r1, r5
100007c4:	eb06 0084 	add.w	r0, r6, r4, lsl #2
100007c8:	2205      	movs	r2, #5
100007ca:	f7ff fe1d 	bl	10000408 <_Z15applyHysteresisRiii>
100007ce:	f836 0024 	ldrh.w	r0, [r6, r4, lsl #2]
100007d2:	f240 36ff 	movw	r6, #1023	@ 0x3ff
100007d6:	4a14      	ldr	r2, [pc, #80]	@ (10000828 <_ZN3ADC6updateEv+0x84>)
100007d8:	210a      	movs	r1, #10
100007da:	f852 3024 	ldr.w	r3, [r2, r4, lsl #2]
100007de:	f005 0503 	and.w	r5, r5, #3
100007e2:	eba3 13a3 	sub.w	r3, r3, r3, asr #6
100007e6:	4418      	add	r0, r3
100007e8:	f842 0024 	str.w	r0, [r2, r4, lsl #2]
100007ec:	2300      	movs	r3, #0
100007ee:	9600      	str	r6, [sp, #0]
100007f0:	f640 7298 	movw	r2, #3992	@ 0xf98
100007f4:	1180      	asrs	r0, r0, #6
100007f6:	f7ff fdf1 	bl	100003dc <_Z15map_constrainedlllll>
100007fa:	4a0c      	ldr	r2, [pc, #48]	@ (1000082c <_ZN3ADC6updateEv+0x88>)
100007fc:	4e0c      	ldr	r6, [pc, #48]	@ (10000830 <_ZN3ADC6updateEv+0x8c>)
100007fe:	7813      	ldrb	r3, [r2, #0]
10000800:	490c      	ldr	r1, [pc, #48]	@ (10000834 <_ZN3ADC6updateEv+0x90>)
10000802:	f826 5013 	strh.w	r5, [r6, r3, lsl #1]
10000806:	3301      	adds	r3, #1
10000808:	f003 031f 	and.w	r3, r3, #31
1000080c:	7013      	strb	r3, [r2, #0]
1000080e:	f841 0024 	str.w	r0, [r1, r4, lsl #2]
10000812:	b002      	add	sp, #8
10000814:	e8bd 4070 	ldmia.w	sp!, {r4, r5, r6, lr}
10000818:	f7ff beae 	b.w	10000578 <_ZN3ADC12_GLOBAL__N_19readNoiseEv>
1000081c:	400a2000 	.word	0x400a2000
10000820:	400a0000 	.word	0x400a0000
10000824:	20003c54 	.word	0x20003c54
10000828:	20003c7c 	.word	0x20003c7c
1000082c:	20030012 	.word	0x20030012
10000830:	20003c8c 	.word	0x20003c8c
10000834:	20003c64 	.word	0x20003c64

10000838 <_ZN3ADC5valueEi>:
10000838:	4b01      	ldr	r3, [pc, #4]	@ (10000840 <_ZN3ADC5valueEi+0x8>)
1000083a:	f833 0020 	ldrh.w	r0, [r3, r0, lsl #2]
1000083e:	4770      	bx	lr
10000840:	20003c64 	.word	0x20003c64

10000844 <_ZN3ADC5noiseEv>:
10000844:	4a04      	ldr	r2, [pc, #16]	@ (10000858 <_ZN3ADC5noiseEv+0x14>)
10000846:	4905      	ldr	r1, [pc, #20]	@ (1000085c <_ZN3ADC5noiseEv+0x18>)
10000848:	7813      	ldrb	r3, [r2, #0]
1000084a:	3301      	adds	r3, #1
1000084c:	f003 031f 	and.w	r3, r3, #31
10000850:	f811 0013 	ldrb.w	r0, [r1, r3, lsl #1]
10000854:	7013      	strb	r3, [r2, #0]
10000856:	4770      	bx	lr
10000858:	200010d8 	.word	0x200010d8
1000085c:	20003c8c 	.word	0x20003c8c

10000860 <_ZN3ADC11temperatureEv>:
10000860:	4b01      	ldr	r3, [pc, #4]	@ (10000868 <_ZN3ADC11temperatureEv+0x8>)
10000862:	6818      	ldr	r0, [r3, #0]
10000864:	4770      	bx	lr
10000866:	bf00      	nop
10000868:	20003c78 	.word	0x20003c78

1000086c <_ZN3ADC7batteryEv>:
1000086c:	4b01      	ldr	r3, [pc, #4]	@ (10000874 <_ZN3ADC7batteryEv+0x8>)
1000086e:	6818      	ldr	r0, [r3, #0]
10000870:	4770      	bx	lr
10000872:	bf00      	nop
10000874:	20003c74 	.word	0x20003c74

10000878 <_ZN3ADC12isBatteryLowEv>:
10000878:	4b01      	ldr	r3, [pc, #4]	@ (10000880 <_ZN3ADC12isBatteryLowEv+0x8>)
1000087a:	7818      	ldrb	r0, [r3, #0]
1000087c:	4770      	bx	lr
1000087e:	bf00      	nop
10000880:	20030011 	.word	0x20030011

10000884 <_ZN7Buttons6Button7pressedEv>:
10000884:	b510      	push	{r4, lr}
10000886:	4604      	mov	r4, r0
10000888:	f007 fb7e 	bl	10007f88 <time_us_64>
1000088c:	b179      	cbz	r1, 100008ae <_ZN7Buttons6Button7pressedEv+0x2a>
1000088e:	f44f 727a 	mov.w	r2, #1000	@ 0x3e8
10000892:	2300      	movs	r3, #0
10000894:	f00d f9e0 	bl	1000dc58 <____aeabi_uldivmod_veneer>
10000898:	68e2      	ldr	r2, [r4, #12]
1000089a:	6060      	str	r0, [r4, #4]
1000089c:	1a82      	subs	r2, r0, r2
1000089e:	2a96      	cmp	r2, #150	@ 0x96
100008a0:	bf9c      	itt	ls
100008a2:	2201      	movls	r2, #1
100008a4:	70a2      	strbls	r2, [r4, #2]
100008a6:	2201      	movs	r2, #1
100008a8:	60e0      	str	r0, [r4, #12]
100008aa:	70e2      	strb	r2, [r4, #3]
100008ac:	bd10      	pop	{r4, pc}
100008ae:	4603      	mov	r3, r0
100008b0:	4802      	ldr	r0, [pc, #8]	@ (100008bc <_ZN7Buttons6Button7pressedEv+0x38>)
100008b2:	fba0 2303 	umull	r2, r3, r0, r3
100008b6:	0998      	lsrs	r0, r3, #6
100008b8:	e7ee      	b.n	10000898 <_ZN7Buttons6Button7pressedEv+0x14>
100008ba:	bf00      	nop
100008bc:	10624dd3 	.word	0x10624dd3

100008c0 <_ZN7Buttons6Button8releasedEv>:
100008c0:	2300      	movs	r3, #0
100008c2:	b510      	push	{r4, lr}
100008c4:	70c3      	strb	r3, [r0, #3]
100008c6:	4604      	mov	r4, r0
100008c8:	f007 fb5e 	bl	10007f88 <time_us_64>
100008cc:	b319      	cbz	r1, 10000916 <_ZN7Buttons6Button8releasedEv+0x56>
100008ce:	2300      	movs	r3, #0
100008d0:	f44f 727a 	mov.w	r2, #1000	@ 0x3e8
100008d4:	f00d f9c0 	bl	1000dc58 <____aeabi_uldivmod_veneer>
100008d8:	4603      	mov	r3, r0
100008da:	6860      	ldr	r0, [r4, #4]
100008dc:	1a1b      	subs	r3, r3, r0
100008de:	1f9a      	subs	r2, r3, #6
100008e0:	2ab9      	cmp	r2, #185	@ 0xb9
100008e2:	d809      	bhi.n	100008f8 <_ZN7Buttons6Button8releasedEv+0x38>
100008e4:	2301      	movs	r3, #1
100008e6:	7023      	strb	r3, [r4, #0]
100008e8:	6923      	ldr	r3, [r4, #16]
100008ea:	b113      	cbz	r3, 100008f2 <_ZN7Buttons6Button8releasedEv+0x32>
100008ec:	4798      	blx	r3
100008ee:	2300      	movs	r3, #0
100008f0:	7023      	strb	r3, [r4, #0]
100008f2:	7863      	ldrb	r3, [r4, #1]
100008f4:	b943      	cbnz	r3, 10000908 <_ZN7Buttons6Button8releasedEv+0x48>
100008f6:	bd10      	pop	{r4, pc}
100008f8:	f5b3 7faf 	cmp.w	r3, #350	@ 0x15e
100008fc:	d911      	bls.n	10000922 <_ZN7Buttons6Button8releasedEv+0x62>
100008fe:	2201      	movs	r2, #1
10000900:	7823      	ldrb	r3, [r4, #0]
10000902:	7062      	strb	r2, [r4, #1]
10000904:	2b00      	cmp	r3, #0
10000906:	d1ef      	bne.n	100008e8 <_ZN7Buttons6Button8releasedEv+0x28>
10000908:	6963      	ldr	r3, [r4, #20]
1000090a:	2b00      	cmp	r3, #0
1000090c:	d0f3      	beq.n	100008f6 <_ZN7Buttons6Button8releasedEv+0x36>
1000090e:	4798      	blx	r3
10000910:	2300      	movs	r3, #0
10000912:	7063      	strb	r3, [r4, #1]
10000914:	bd10      	pop	{r4, pc}
10000916:	4603      	mov	r3, r0
10000918:	4804      	ldr	r0, [pc, #16]	@ (1000092c <_ZN7Buttons6Button8releasedEv+0x6c>)
1000091a:	fba0 2303 	umull	r2, r3, r0, r3
1000091e:	099b      	lsrs	r3, r3, #6
10000920:	e7db      	b.n	100008da <_ZN7Buttons6Button8releasedEv+0x1a>
10000922:	7823      	ldrb	r3, [r4, #0]
10000924:	2b00      	cmp	r3, #0
10000926:	d0e4      	beq.n	100008f2 <_ZN7Buttons6Button8releasedEv+0x32>
10000928:	e7de      	b.n	100008e8 <_ZN7Buttons6Button8releasedEv+0x28>
1000092a:	bf00      	nop
1000092c:	10624dd3 	.word	0x10624dd3

10000930 <_ZN7Buttons6Button3getENS_5StateE>:
10000930:	b538      	push	{r3, r4, r5, lr}
10000932:	4604      	mov	r4, r0
10000934:	2903      	cmp	r1, #3
10000936:	d808      	bhi.n	1000094a <_ZN7Buttons6Button3getENS_5StateE+0x1a>
10000938:	e8df f001 	tbb	[pc, r1]
1000093c:	02050a22 	.word	0x02050a22
10000940:	78c5      	ldrb	r5, [r0, #3]
10000942:	4628      	mov	r0, r5
10000944:	bd38      	pop	{r3, r4, r5, pc}
10000946:	7885      	ldrb	r5, [r0, #2]
10000948:	bb1d      	cbnz	r5, 10000992 <_ZN7Buttons6Button3getENS_5StateE+0x62>
1000094a:	2500      	movs	r5, #0
1000094c:	4628      	mov	r0, r5
1000094e:	bd38      	pop	{r3, r4, r5, pc}
10000950:	7845      	ldrb	r5, [r0, #1]
10000952:	b9dd      	cbnz	r5, 1000098c <_ZN7Buttons6Button3getENS_5StateE+0x5c>
10000954:	78c5      	ldrb	r5, [r0, #3]
10000956:	2d00      	cmp	r5, #0
10000958:	d0f7      	beq.n	1000094a <_ZN7Buttons6Button3getENS_5StateE+0x1a>
1000095a:	f007 fb15 	bl	10007f88 <time_us_64>
1000095e:	4603      	mov	r3, r0
10000960:	b1d1      	cbz	r1, 10000998 <_ZN7Buttons6Button3getENS_5StateE+0x68>
10000962:	f44f 727a 	mov.w	r2, #1000	@ 0x3e8
10000966:	2300      	movs	r3, #0
10000968:	f00d f976 	bl	1000dc58 <____aeabi_uldivmod_veneer>
1000096c:	6863      	ldr	r3, [r4, #4]
1000096e:	1ac3      	subs	r3, r0, r3
10000970:	f5b3 7faf 	cmp.w	r3, #350	@ 0x15e
10000974:	d9e9      	bls.n	1000094a <_ZN7Buttons6Button3getENS_5StateE+0x1a>
10000976:	7863      	ldrb	r3, [r4, #1]
10000978:	2b00      	cmp	r3, #0
1000097a:	d1e6      	bne.n	1000094a <_ZN7Buttons6Button3getENS_5StateE+0x1a>
1000097c:	70e3      	strb	r3, [r4, #3]
1000097e:	e7e0      	b.n	10000942 <_ZN7Buttons6Button3getENS_5StateE+0x12>
10000980:	7805      	ldrb	r5, [r0, #0]
10000982:	2d00      	cmp	r5, #0
10000984:	d0e1      	beq.n	1000094a <_ZN7Buttons6Button3getENS_5StateE+0x1a>
10000986:	2300      	movs	r3, #0
10000988:	7003      	strb	r3, [r0, #0]
1000098a:	e7da      	b.n	10000942 <_ZN7Buttons6Button3getENS_5StateE+0x12>
1000098c:	2300      	movs	r3, #0
1000098e:	7043      	strb	r3, [r0, #1]
10000990:	e7d7      	b.n	10000942 <_ZN7Buttons6Button3getENS_5StateE+0x12>
10000992:	2300      	movs	r3, #0
10000994:	7083      	strb	r3, [r0, #2]
10000996:	e7d4      	b.n	10000942 <_ZN7Buttons6Button3getENS_5StateE+0x12>
10000998:	4802      	ldr	r0, [pc, #8]	@ (100009a4 <_ZN7Buttons6Button3getENS_5StateE+0x74>)
1000099a:	fba0 3003 	umull	r3, r0, r0, r3
1000099e:	0980      	lsrs	r0, r0, #6
100009a0:	e7e4      	b.n	1000096c <_ZN7Buttons6Button3getENS_5StateE+0x3c>
100009a2:	bf00      	nop
100009a4:	10624dd3 	.word	0x10624dd3

100009a8 <_GLOBAL__sub_I__ZN7Buttons6Button7pressedEv>:
100009a8:	2300      	movs	r3, #0
100009aa:	4810      	ldr	r0, [pc, #64]	@ (100009ec <_GLOBAL__sub_I__ZN7Buttons6Button7pressedEv+0x44>)
100009ac:	4910      	ldr	r1, [pc, #64]	@ (100009f0 <_GLOBAL__sub_I__ZN7Buttons6Button7pressedEv+0x48>)
100009ae:	4a11      	ldr	r2, [pc, #68]	@ (100009f4 <_GLOBAL__sub_I__ZN7Buttons6Button7pressedEv+0x4c>)
100009b0:	b410      	push	{r4}
100009b2:	e9c0 3300 	strd	r3, r3, [r0]
100009b6:	e9c1 3300 	strd	r3, r3, [r1]
100009ba:	e9c2 3300 	strd	r3, r3, [r2]
100009be:	4c0e      	ldr	r4, [pc, #56]	@ (100009f8 <_GLOBAL__sub_I__ZN7Buttons6Button7pressedEv+0x50>)
100009c0:	e9c0 3302 	strd	r3, r3, [r0, #8]
100009c4:	e9c4 3300 	strd	r3, r3, [r4]
100009c8:	e9c4 3302 	strd	r3, r3, [r4, #8]
100009cc:	e9c4 3304 	strd	r3, r3, [r4, #16]
100009d0:	e9c0 3304 	strd	r3, r3, [r0, #16]
100009d4:	e9c1 3302 	strd	r3, r3, [r1, #8]
100009d8:	e9c1 3304 	strd	r3, r3, [r1, #16]
100009dc:	e9c2 3302 	strd	r3, r3, [r2, #8]
100009e0:	e9c2 3304 	strd	r3, r3, [r2, #16]
100009e4:	f85d 4b04 	ldr.w	r4, [sp], #4
100009e8:	4770      	bx	lr
100009ea:	bf00      	nop
100009ec:	2002ebcc 	.word	0x2002ebcc
100009f0:	2002ebe4 	.word	0x2002ebe4
100009f4:	2002ebfc 	.word	0x2002ebfc
100009f8:	2002ebb4 	.word	0x2002ebb4

100009fc <_ZN3DAC12_GLOBAL__N_111dma_handlerEv>:
100009fc:	f04f 42a0 	mov.w	r2, #1342177280	@ 0x50000000
10000a00:	2301      	movs	r3, #1
10000a02:	4920      	ldr	r1, [pc, #128]	@ (10000a84 <_ZN3DAC12_GLOBAL__N_111dma_handlerEv+0x88>)
10000a04:	b410      	push	{r4}
10000a06:	6808      	ldr	r0, [r1, #0]
10000a08:	f8d2 1400 	ldr.w	r1, [r2, #1024]	@ 0x400
10000a0c:	4083      	lsls	r3, r0
10000a0e:	4219      	tst	r1, r3
10000a10:	d10c      	bne.n	10000a2c <_ZN3DAC12_GLOBAL__N_111dma_handlerEv+0x30>
10000a12:	f04f 42a0 	mov.w	r2, #1342177280	@ 0x50000000
10000a16:	2301      	movs	r3, #1
10000a18:	491b      	ldr	r1, [pc, #108]	@ (10000a88 <_ZN3DAC12_GLOBAL__N_111dma_handlerEv+0x8c>)
10000a1a:	6808      	ldr	r0, [r1, #0]
10000a1c:	f8d2 1400 	ldr.w	r1, [r2, #1024]	@ 0x400
10000a20:	4083      	lsls	r3, r0
10000a22:	4219      	tst	r1, r3
10000a24:	d117      	bne.n	10000a56 <_ZN3DAC12_GLOBAL__N_111dma_handlerEv+0x5a>
10000a26:	f85d 4b04 	ldr.w	r4, [sp], #4
10000a2a:	4770      	bx	lr
10000a2c:	4c17      	ldr	r4, [pc, #92]	@ (10000a8c <_ZN3DAC12_GLOBAL__N_111dma_handlerEv+0x90>)
10000a2e:	4918      	ldr	r1, [pc, #96]	@ (10000a90 <_ZN3DAC12_GLOBAL__N_111dma_handlerEv+0x94>)
10000a30:	f8c2 340c 	str.w	r3, [r2, #1036]	@ 0x40c
10000a34:	7823      	ldrb	r3, [r4, #0]
10000a36:	4817      	ldr	r0, [pc, #92]	@ (10000a94 <_ZN3DAC12_GLOBAL__N_111dma_handlerEv+0x98>)
10000a38:	f101 0c20 	add.w	ip, r1, #32
10000a3c:	f830 2013 	ldrh.w	r2, [r0, r3, lsl #1]
10000a40:	3301      	adds	r3, #1
10000a42:	f442 42e0 	orr.w	r2, r2, #28672	@ 0x7000
10000a46:	f821 2f02 	strh.w	r2, [r1, #2]!
10000a4a:	4561      	cmp	r1, ip
10000a4c:	f003 031f 	and.w	r3, r3, #31
10000a50:	d1f4      	bne.n	10000a3c <_ZN3DAC12_GLOBAL__N_111dma_handlerEv+0x40>
10000a52:	7023      	strb	r3, [r4, #0]
10000a54:	e7dd      	b.n	10000a12 <_ZN3DAC12_GLOBAL__N_111dma_handlerEv+0x16>
10000a56:	4c0d      	ldr	r4, [pc, #52]	@ (10000a8c <_ZN3DAC12_GLOBAL__N_111dma_handlerEv+0x90>)
10000a58:	490f      	ldr	r1, [pc, #60]	@ (10000a98 <_ZN3DAC12_GLOBAL__N_111dma_handlerEv+0x9c>)
10000a5a:	f8c2 340c 	str.w	r3, [r2, #1036]	@ 0x40c
10000a5e:	7823      	ldrb	r3, [r4, #0]
10000a60:	480c      	ldr	r0, [pc, #48]	@ (10000a94 <_ZN3DAC12_GLOBAL__N_111dma_handlerEv+0x98>)
10000a62:	f101 0c20 	add.w	ip, r1, #32
10000a66:	f830 2013 	ldrh.w	r2, [r0, r3, lsl #1]
10000a6a:	3301      	adds	r3, #1
10000a6c:	f442 42e0 	orr.w	r2, r2, #28672	@ 0x7000
10000a70:	f821 2f02 	strh.w	r2, [r1, #2]!
10000a74:	458c      	cmp	ip, r1
10000a76:	f003 031f 	and.w	r3, r3, #31
10000a7a:	d1f4      	bne.n	10000a66 <_ZN3DAC12_GLOBAL__N_111dma_handlerEv+0x6a>
10000a7c:	7023      	strb	r3, [r4, #0]
10000a7e:	f85d 4b04 	ldr.w	r4, [sp], #4
10000a82:	4770      	bx	lr
10000a84:	20003da8 	.word	0x20003da8
10000a88:	20003dac 	.word	0x20003dac
10000a8c:	200010d9 	.word	0x200010d9
10000a90:	200039fe 	.word	0x200039fe
10000a94:	2002fda4 	.word	0x2002fda4
10000a98:	20003a1e 	.word	0x20003a1e

10000a9c <_ZN3DAC4initEv>:
10000a9c:	e92d 4ff8 	stmdb	sp!, {r3, r4, r5, r6, r7, r8, r9, sl, fp, lr}
10000aa0:	2005      	movs	r0, #5
10000aa2:	f007 fca9 	bl	100083f8 <clock_get_hz>
10000aa6:	4603      	mov	r3, r0
10000aa8:	4a47      	ldr	r2, [pc, #284]	@ (10000bc8 <_ZN3DAC4initEv+0x12c>)
10000aaa:	4e48      	ldr	r6, [pc, #288]	@ (10000bcc <_ZN3DAC4initEv+0x130>)
10000aac:	fba2 2303 	umull	r2, r3, r2, r3
10000ab0:	0bdb      	lsrs	r3, r3, #15
10000ab2:	ee07 3a90 	vmov	s15, r3
10000ab6:	eef8 7ae7 	vcvt.f32.s32	s15, s15
10000aba:	f8df 8138 	ldr.w	r8, [pc, #312]	@ 10000bf4 <_ZN3DAC4initEv+0x158>
10000abe:	4630      	mov	r0, r6
10000ac0:	4943      	ldr	r1, [pc, #268]	@ (10000bd0 <_ZN3DAC4initEv+0x134>)
10000ac2:	edc8 7a00 	vstr	s15, [r8]
10000ac6:	f009 fcb9 	bl	1000a43c <spi_init>
10000aca:	2002      	movs	r0, #2
10000acc:	2401      	movs	r4, #1
10000ace:	4b41      	ldr	r3, [pc, #260]	@ (10000bd4 <_ZN3DAC4initEv+0x138>)
10000ad0:	6871      	ldr	r1, [r6, #4]
10000ad2:	f503 5240 	add.w	r2, r3, #12288	@ 0x3000
10000ad6:	6010      	str	r0, [r2, #0]
10000ad8:	f503 5200 	add.w	r2, r3, #8192	@ 0x2000
10000adc:	6833      	ldr	r3, [r6, #0]
10000ade:	4001      	ands	r1, r0
10000ae0:	f083 030f 	eor.w	r3, r3, #15
10000ae4:	f003 03cf 	and.w	r3, r3, #207	@ 0xcf
10000ae8:	f506 5680 	add.w	r6, r6, #4096	@ 0x1000
10000aec:	6033      	str	r3, [r6, #0]
10000aee:	200b      	movs	r0, #11
10000af0:	6011      	str	r1, [r2, #0]
10000af2:	4621      	mov	r1, r4
10000af4:	f006 fa9a 	bl	1000702c <gpio_set_function>
10000af8:	4621      	mov	r1, r4
10000afa:	200a      	movs	r0, #10
10000afc:	f006 fa96 	bl	1000702c <gpio_set_function>
10000b00:	4621      	mov	r1, r4
10000b02:	2009      	movs	r0, #9
10000b04:	f006 fa92 	bl	1000702c <gpio_set_function>
10000b08:	4620      	mov	r0, r4
10000b0a:	f009 fccf 	bl	1000a4ac <dma_claim_unused_channel>
10000b0e:	4603      	mov	r3, r0
10000b10:	4d31      	ldr	r5, [pc, #196]	@ (10000bd8 <_ZN3DAC4initEv+0x13c>)
10000b12:	4620      	mov	r0, r4
10000b14:	602b      	str	r3, [r5, #0]
10000b16:	f009 fcc9 	bl	1000a4ac <dma_claim_unused_channel>
10000b1a:	682e      	ldr	r6, [r5, #0]
10000b1c:	4b2f      	ldr	r3, [pc, #188]	@ (10000bdc <_ZN3DAC4initEv+0x140>)
10000b1e:	ea4f 1c86 	mov.w	ip, r6, lsl #6
10000b22:	f10c 4ca0 	add.w	ip, ip, #1342177280	@ 0x50000000
10000b26:	f8cc 3000 	str.w	r3, [ip]
10000b2a:	4603      	mov	r3, r0
10000b2c:	f04f 0910 	mov.w	r9, #16
10000b30:	4a2b      	ldr	r2, [pc, #172]	@ (10000be0 <_ZN3DAC4initEv+0x144>)
10000b32:	f8df b0c4 	ldr.w	fp, [pc, #196]	@ 10000bf8 <_ZN3DAC4initEv+0x15c>
10000b36:	ea02 3e46 	and.w	lr, r2, r6, lsl #13
10000b3a:	ea4e 3e43 	orr.w	lr, lr, r3, lsl #13
10000b3e:	4f29      	ldr	r7, [pc, #164]	@ (10000be4 <_ZN3DAC4initEv+0x148>)
10000b40:	f8df a0b8 	ldr.w	sl, [pc, #184]	@ 10000bfc <_ZN3DAC4initEv+0x160>
10000b44:	ea02 3243 	and.w	r2, r2, r3, lsl #13
10000b48:	ea42 3246 	orr.w	r2, r2, r6, lsl #13
10000b4c:	ea4e 060b 	orr.w	r6, lr, fp
10000b50:	f8cc a004 	str.w	sl, [ip, #4]
10000b54:	603b      	str	r3, [r7, #0]
10000b56:	f8cc 9008 	str.w	r9, [ip, #8]
10000b5a:	019b      	lsls	r3, r3, #6
10000b5c:	f8cc 6010 	str.w	r6, [ip, #16]
10000b60:	4e21      	ldr	r6, [pc, #132]	@ (10000be8 <_ZN3DAC4initEv+0x14c>)
10000b62:	f103 43a0 	add.w	r3, r3, #1342177280	@ 0x50000000
10000b66:	ea42 020b 	orr.w	r2, r2, fp
10000b6a:	601e      	str	r6, [r3, #0]
10000b6c:	200a      	movs	r0, #10
10000b6e:	f8c3 a004 	str.w	sl, [r3, #4]
10000b72:	491e      	ldr	r1, [pc, #120]	@ (10000bec <_ZN3DAC4initEv+0x150>)
10000b74:	f8c3 9008 	str.w	r9, [r3, #8]
10000b78:	611a      	str	r2, [r3, #16]
10000b7a:	f006 fbf1 	bl	10007360 <irq_set_exclusive_handler>
10000b7e:	682b      	ldr	r3, [r5, #0]
10000b80:	683a      	ldr	r2, [r7, #0]
10000b82:	fa04 f303 	lsl.w	r3, r4, r3
10000b86:	fa04 f202 	lsl.w	r2, r4, r2
10000b8a:	4313      	orrs	r3, r2
10000b8c:	4a18      	ldr	r2, [pc, #96]	@ (10000bf0 <_ZN3DAC4initEv+0x154>)
10000b8e:	4621      	mov	r1, r4
10000b90:	f8c2 3404 	str.w	r3, [r2, #1028]	@ 0x404
10000b94:	200a      	movs	r0, #10
10000b96:	f006 fbbd 	bl	10007314 <irq_set_enabled>
10000b9a:	2000      	movs	r0, #0
10000b9c:	f009 fc96 	bl	1000a4cc <dma_timer_claim>
10000ba0:	edd8 7a00 	vldr	s15, [r8]
10000ba4:	eefc 7ae7 	vcvt.u32.f32	s15, s15
10000ba8:	ee17 3a90 	vmov	r3, s15
10000bac:	f04f 42a0 	mov.w	r2, #1342177280	@ 0x50000000
10000bb0:	b29b      	uxth	r3, r3
10000bb2:	f443 3380 	orr.w	r3, r3, #65536	@ 0x10000
10000bb6:	f8c2 3440 	str.w	r3, [r2, #1088]	@ 0x440
10000bba:	682b      	ldr	r3, [r5, #0]
10000bbc:	409c      	lsls	r4, r3
10000bbe:	f8c2 4450 	str.w	r4, [r2, #1104]	@ 0x450
10000bc2:	e8bd 8ff8 	ldmia.w	sp!, {r3, r4, r5, r6, r7, r8, r9, sl, fp, pc}
10000bc6:	bf00      	nop
10000bc8:	be37c63b 	.word	0xbe37c63b
10000bcc:	40088000 	.word	0x40088000
10000bd0:	01312d00 	.word	0x01312d00
10000bd4:	40088004 	.word	0x40088004
10000bd8:	20003da8 	.word	0x20003da8
10000bdc:	20003a00 	.word	0x20003a00
10000be0:	fc001ffd 	.word	0xfc001ffd
10000be4:	20003dac 	.word	0x20003dac
10000be8:	20003a20 	.word	0x20003a20
10000bec:	100009fd 	.word	0x100009fd
10000bf0:	50002000 	.word	0x50002000
10000bf4:	20003db0 	.word	0x20003db0
10000bf8:	00760515 	.word	0x00760515
10000bfc:	40088008 	.word	0x40088008

10000c00 <_GLOBAL__sub_I_sampleClock>:
10000c00:	2200      	movs	r2, #0
10000c02:	f46f 437e 	mvn.w	r3, #65024	@ 0xfe00
10000c06:	492e      	ldr	r1, [pc, #184]	@ (10000cc0 <_GLOBAL__sub_I_sampleClock+0xc0>)
10000c08:	482e      	ldr	r0, [pc, #184]	@ (10000cc4 <_GLOBAL__sub_I_sampleClock+0xc4>)
10000c0a:	b570      	push	{r4, r5, r6, lr}
10000c0c:	f04f 0c04 	mov.w	ip, #4
10000c10:	f64a 4544 	movw	r5, #44100	@ 0xac44
10000c14:	f64f 74ff 	movw	r4, #65535	@ 0xffff
10000c18:	e9c1 2306 	strd	r2, r3, [r1, #24]
10000c1c:	e9c1 2309 	strd	r2, r3, [r1, #36]	@ 0x24
10000c20:	e9c1 230c 	strd	r2, r3, [r1, #48]	@ 0x30
10000c24:	4603      	mov	r3, r0
10000c26:	600d      	str	r5, [r1, #0]
10000c28:	f8a1 4040 	strh.w	r4, [r1, #64]	@ 0x40
10000c2c:	82ca      	strh	r2, [r1, #22]
10000c2e:	844a      	strh	r2, [r1, #34]	@ 0x22
10000c30:	85ca      	strh	r2, [r1, #46]	@ 0x2e
10000c32:	870a      	strh	r2, [r1, #56]	@ 0x38
10000c34:	eb01 060c 	add.w	r6, r1, ip
10000c38:	f101 0508 	add.w	r5, r1, #8
10000c3c:	f101 040c 	add.w	r4, r1, #12
10000c40:	f500 7ef0 	add.w	lr, r0, #480	@ 0x1e0
10000c44:	3110      	adds	r1, #16
10000c46:	f883 c020 	strb.w	ip, [r3, #32]
10000c4a:	f883 2024 	strb.w	r2, [r3, #36]	@ 0x24
10000c4e:	f883 2026 	strb.w	r2, [r3, #38]	@ 0x26
10000c52:	f883 2027 	strb.w	r2, [r3, #39]	@ 0x27
10000c56:	f883 2028 	strb.w	r2, [r3, #40]	@ 0x28
10000c5a:	e9c3 6500 	strd	r6, r5, [r3]
10000c5e:	e9c3 4102 	strd	r4, r1, [r3, #8]
10000c62:	e9c3 2204 	strd	r2, r2, [r3, #16]
10000c66:	e9c3 2206 	strd	r2, r2, [r3, #24]
10000c6a:	e9c3 220b 	strd	r2, r2, [r3, #44]	@ 0x2c
10000c6e:	e9c3 220d 	strd	r2, r2, [r3, #52]	@ 0x34
10000c72:	333c      	adds	r3, #60	@ 0x3c
10000c74:	459e      	cmp	lr, r3
10000c76:	d1e6      	bne.n	10000c46 <_GLOBAL__sub_I_sampleClock+0x46>
10000c78:	2403      	movs	r4, #3
10000c7a:	f8c0 21e0 	str.w	r2, [r0, #480]	@ 0x1e0
10000c7e:	f880 2024 	strb.w	r2, [r0, #36]	@ 0x24
10000c82:	2206      	movs	r2, #6
10000c84:	2301      	movs	r3, #1
10000c86:	2102      	movs	r1, #2
10000c88:	2505      	movs	r5, #5
10000c8a:	f880 40d8 	strb.w	r4, [r0, #216]	@ 0xd8
10000c8e:	2407      	movs	r4, #7
10000c90:	f880 218c 	strb.w	r2, [r0, #396]	@ 0x18c
10000c94:	2200      	movs	r2, #0
10000c96:	f880 3060 	strb.w	r3, [r0, #96]	@ 0x60
10000c9a:	f880 109c 	strb.w	r1, [r0, #156]	@ 0x9c
10000c9e:	4b0a      	ldr	r3, [pc, #40]	@ (10000cc8 <_GLOBAL__sub_I_sampleClock+0xc8>)
10000ca0:	490a      	ldr	r1, [pc, #40]	@ (10000ccc <_GLOBAL__sub_I_sampleClock+0xcc>)
10000ca2:	f880 c114 	strb.w	ip, [r0, #276]	@ 0x114
10000ca6:	f880 5150 	strb.w	r5, [r0, #336]	@ 0x150
10000caa:	f880 41c8 	strb.w	r4, [r0, #456]	@ 0x1c8
10000cae:	f883 2103 	strb.w	r2, [r3, #259]	@ 0x103
10000cb2:	701a      	strb	r2, [r3, #0]
10000cb4:	f203 1305 	addw	r3, r3, #261	@ 0x105
10000cb8:	428b      	cmp	r3, r1
10000cba:	d1f8      	bne.n	10000cae <_GLOBAL__sub_I_sampleClock+0xae>
10000cbc:	bd70      	pop	{r4, r5, r6, pc}
10000cbe:	bf00      	nop
10000cc0:	2002ce08 	.word	0x2002ce08
10000cc4:	2002d31c 	.word	0x2002d31c
10000cc8:	20008038 	.word	0x20008038
10000ccc:	2000c178 	.word	0x2000c178

10000cd0 <_ZN6EEPROM4initEv>:
10000cd0:	b508      	push	{r3, lr}
10000cd2:	490f      	ldr	r1, [pc, #60]	@ (10000d10 <_ZN6EEPROM4initEv+0x40>)
10000cd4:	480f      	ldr	r0, [pc, #60]	@ (10000d14 <_ZN6EEPROM4initEv+0x44>)
10000cd6:	f009 fd77 	bl	1000a7c8 <i2c_init>
10000cda:	2002      	movs	r0, #2
10000cdc:	f006 fa0a 	bl	100070f4 <gpio_init>
10000ce0:	2003      	movs	r0, #3
10000ce2:	f006 fa07 	bl	100070f4 <gpio_init>
10000ce6:	2103      	movs	r1, #3
10000ce8:	2002      	movs	r0, #2
10000cea:	f006 f99f 	bl	1000702c <gpio_set_function>
10000cee:	2103      	movs	r1, #3
10000cf0:	4608      	mov	r0, r1
10000cf2:	f006 f99b 	bl	1000702c <gpio_set_function>
10000cf6:	2200      	movs	r2, #0
10000cf8:	2101      	movs	r1, #1
10000cfa:	2002      	movs	r0, #2
10000cfc:	f006 f9b4 	bl	10007068 <gpio_set_pulls>
10000d00:	e8bd 4008 	ldmia.w	sp!, {r3, lr}
10000d04:	2200      	movs	r2, #0
10000d06:	2101      	movs	r1, #1
10000d08:	2003      	movs	r0, #3
10000d0a:	f006 b9ad 	b.w	10007068 <gpio_set_pulls>
10000d0e:	bf00      	nop
10000d10:	00061a80 	.word	0x00061a80
10000d14:	20003170 	.word	0x20003170

10000d18 <_ZN6EEPROM5writeEtPht>:
10000d18:	b3aa      	cbz	r2, 10000d86 <_ZN6EEPROM5writeEtPht+0x6e>
10000d1a:	e92d 43f0 	stmdb	sp!, {r4, r5, r6, r7, r8, r9, lr}
10000d1e:	4605      	mov	r5, r0
10000d20:	460f      	mov	r7, r1
10000d22:	4614      	mov	r4, r2
10000d24:	f04f 0800 	mov.w	r8, #0
10000d28:	f8df 905c 	ldr.w	r9, [pc, #92]	@ 10000d88 <_ZN6EEPROM5writeEtPht+0x70>
10000d2c:	b095      	sub	sp, #84	@ 0x54
10000d2e:	2c40      	cmp	r4, #64	@ 0x40
10000d30:	4626      	mov	r6, r4
10000d32:	bf28      	it	cs
10000d34:	2640      	movcs	r6, #64	@ 0x40
10000d36:	223e      	movs	r2, #62	@ 0x3e
10000d38:	2100      	movs	r1, #0
10000d3a:	a804      	add	r0, sp, #16
10000d3c:	f8cd 800c 	str.w	r8, [sp, #12]
10000d40:	f00c fd90 	bl	1000d864 <memset>
10000d44:	0a2b      	lsrs	r3, r5, #8
10000d46:	4639      	mov	r1, r7
10000d48:	4632      	mov	r2, r6
10000d4a:	f10d 000e 	add.w	r0, sp, #14
10000d4e:	f88d 500d 	strb.w	r5, [sp, #13]
10000d52:	f88d 300c 	strb.w	r3, [sp, #12]
10000d56:	f00c fc93 	bl	1000d680 <memcpy>
10000d5a:	1cb3      	adds	r3, r6, #2
10000d5c:	2150      	movs	r1, #80	@ 0x50
10000d5e:	aa03      	add	r2, sp, #12
10000d60:	b29b      	uxth	r3, r3
10000d62:	4648      	mov	r0, r9
10000d64:	f8cd 8000 	str.w	r8, [sp]
10000d68:	1ba4      	subs	r4, r4, r6
10000d6a:	f009 fd53 	bl	1000a814 <i2c_write_blocking>
10000d6e:	4435      	add	r5, r6
10000d70:	200a      	movs	r0, #10
10000d72:	b2a4      	uxth	r4, r4
10000d74:	f007 f894 	bl	10007ea0 <sleep_ms>
10000d78:	b2ad      	uxth	r5, r5
10000d7a:	4437      	add	r7, r6
10000d7c:	2c00      	cmp	r4, #0
10000d7e:	d1d6      	bne.n	10000d2e <_ZN6EEPROM5writeEtPht+0x16>
10000d80:	b015      	add	sp, #84	@ 0x54
10000d82:	e8bd 83f0 	ldmia.w	sp!, {r4, r5, r6, r7, r8, r9, pc}
10000d86:	4770      	bx	lr
10000d88:	20003170 	.word	0x20003170

10000d8c <_ZN6EEPROM4readEtPht>:
10000d8c:	b38a      	cbz	r2, 10000df2 <_ZN6EEPROM4readEtPht+0x66>
10000d8e:	e92d 43f0 	stmdb	sp!, {r4, r5, r6, r7, r8, r9, lr}
10000d92:	4605      	mov	r5, r0
10000d94:	4688      	mov	r8, r1
10000d96:	4614      	mov	r4, r2
10000d98:	4f16      	ldr	r7, [pc, #88]	@ (10000df4 <_ZN6EEPROM4readEtPht+0x68>)
10000d9a:	b085      	sub	sp, #20
10000d9c:	2600      	movs	r6, #0
10000d9e:	2c40      	cmp	r4, #64	@ 0x40
10000da0:	46a1      	mov	r9, r4
10000da2:	bf28      	it	cs
10000da4:	f04f 0940 	movcs.w	r9, #64	@ 0x40
10000da8:	ea4f 2c15 	mov.w	ip, r5, lsr #8
10000dac:	2302      	movs	r3, #2
10000dae:	2150      	movs	r1, #80	@ 0x50
10000db0:	aa03      	add	r2, sp, #12
10000db2:	4638      	mov	r0, r7
10000db4:	9600      	str	r6, [sp, #0]
10000db6:	f88d c00c 	strb.w	ip, [sp, #12]
10000dba:	f88d 500d 	strb.w	r5, [sp, #13]
10000dbe:	f009 fd29 	bl	1000a814 <i2c_write_blocking>
10000dc2:	200a      	movs	r0, #10
10000dc4:	f007 f86c 	bl	10007ea0 <sleep_ms>
10000dc8:	eba4 0409 	sub.w	r4, r4, r9
10000dcc:	4642      	mov	r2, r8
10000dce:	464b      	mov	r3, r9
10000dd0:	2150      	movs	r1, #80	@ 0x50
10000dd2:	4638      	mov	r0, r7
10000dd4:	9600      	str	r6, [sp, #0]
10000dd6:	f009 fd29 	bl	1000a82c <i2c_read_blocking>
10000dda:	444d      	add	r5, r9
10000ddc:	200a      	movs	r0, #10
10000dde:	b2a4      	uxth	r4, r4
10000de0:	f007 f85e 	bl	10007ea0 <sleep_ms>
10000de4:	b2ad      	uxth	r5, r5
10000de6:	44c8      	add	r8, r9
10000de8:	2c00      	cmp	r4, #0
10000dea:	d1d7      	bne.n	10000d9c <_ZN6EEPROM4readEtPht+0x10>
10000dec:	b005      	add	sp, #20
10000dee:	e8bd 83f0 	ldmia.w	sp!, {r4, r5, r6, r7, r8, r9, pc}
10000df2:	4770      	bx	lr
10000df4:	20003170 	.word	0x20003170

10000df8 <_ZN4KEYS4initEv>:
10000df8:	b510      	push	{r4, lr}
10000dfa:	2010      	movs	r0, #16
10000dfc:	f006 f97a 	bl	100070f4 <gpio_init>
10000e00:	2400      	movs	r4, #0
10000e02:	2010      	movs	r0, #16
10000e04:	ec44 0044 	gpioc_bit_oe_put r0, r4
10000e08:	2101      	movs	r1, #1
10000e0a:	4622      	mov	r2, r4
10000e0c:	f006 f92c 	bl	10007068 <gpio_set_pulls>
10000e10:	2011      	movs	r0, #17
10000e12:	f006 f96f 	bl	100070f4 <gpio_init>
10000e16:	2011      	movs	r0, #17
10000e18:	ec44 0044 	gpioc_bit_oe_put r0, r4
10000e1c:	2101      	movs	r1, #1
10000e1e:	4622      	mov	r2, r4
10000e20:	e8bd 4010 	ldmia.w	sp!, {r4, lr}
10000e24:	f006 b920 	b.w	10007068 <gpio_set_pulls>

10000e28 <_ZN4KEYS4readEv>:
10000e28:	b510      	push	{r4, lr}
10000e2a:	f000 ff4d 	bl	10001cc8 <_ZN3MUX10getAddressEv>
10000e2e:	4a1a      	ldr	r2, [pc, #104]	@ (10000e98 <_ZN4KEYS4readEv+0x70>)
10000e30:	7813      	ldrb	r3, [r2, #0]
10000e32:	4283      	cmp	r3, r0
10000e34:	d016      	beq.n	10000e64 <_ZN4KEYS4readEv+0x3c>
10000e36:	f04f 4c50 	mov.w	ip, #3489660928	@ 0xd0000000
10000e3a:	4c18      	ldr	r4, [pc, #96]	@ (10000e9c <_ZN4KEYS4readEv+0x74>)
10000e3c:	f8dc 1004 	ldr.w	r1, [ip, #4]
10000e40:	f8dc 3004 	ldr.w	r3, [ip, #4]
10000e44:	f3c1 4100 	ubfx	r1, r1, #16, #1
10000e48:	7010      	strb	r0, [r2, #0]
10000e4a:	6822      	ldr	r2, [r4, #0]
10000e4c:	f100 0e10 	add.w	lr, r0, #16
10000e50:	4081      	lsls	r1, r0
10000e52:	f3c3 4340 	ubfx	r3, r3, #17, #1
10000e56:	4311      	orrs	r1, r2
10000e58:	fa03 f30e 	lsl.w	r3, r3, lr
10000e5c:	4319      	orrs	r1, r3
10000e5e:	280f      	cmp	r0, #15
10000e60:	6021      	str	r1, [r4, #0]
10000e62:	d000      	beq.n	10000e66 <_ZN4KEYS4readEv+0x3e>
10000e64:	bd10      	pop	{r4, pc}
10000e66:	2000      	movs	r0, #0
10000e68:	f04f 0c01 	mov.w	ip, #1
10000e6c:	f04f 4e00 	mov.w	lr, #2147483648	@ 0x80000000
10000e70:	4603      	mov	r3, r0
10000e72:	ea41 010c 	orr.w	r1, r1, ip
10000e76:	fa0c f203 	lsl.w	r2, ip, r3
10000e7a:	420a      	tst	r2, r1
10000e7c:	bf18      	it	ne
10000e7e:	fa2e f203 	lsrne.w	r2, lr, r3
10000e82:	f103 0301 	add.w	r3, r3, #1
10000e86:	bf18      	it	ne
10000e88:	4310      	orrne	r0, r2
10000e8a:	2b20      	cmp	r3, #32
10000e8c:	d1f3      	bne.n	10000e76 <_ZN4KEYS4readEv+0x4e>
10000e8e:	2300      	movs	r3, #0
10000e90:	4a03      	ldr	r2, [pc, #12]	@ (10000ea0 <_ZN4KEYS4readEv+0x78>)
10000e92:	6023      	str	r3, [r4, #0]
10000e94:	6010      	str	r0, [r2, #0]
10000e96:	bd10      	pop	{r4, pc}
10000e98:	2003002a 	.word	0x2003002a
10000e9c:	20003e30 	.word	0x20003e30
10000ea0:	200010e0 	.word	0x200010e0

10000ea4 <_ZN4KEYS6updateEv>:
10000ea4:	b570      	push	{r4, r5, r6, lr}
10000ea6:	4e45      	ldr	r6, [pc, #276]	@ (10000fbc <_ZN4KEYS6updateEv+0x118>)
10000ea8:	4d45      	ldr	r5, [pc, #276]	@ (10000fc0 <_ZN4KEYS6updateEv+0x11c>)
10000eaa:	6832      	ldr	r2, [r6, #0]
10000eac:	6828      	ldr	r0, [r5, #0]
10000eae:	4282      	cmp	r2, r0
10000eb0:	d027      	beq.n	10000f02 <_ZN4KEYS6updateEv+0x5e>
10000eb2:	2400      	movs	r4, #0
10000eb4:	e004      	b.n	10000ec0 <_ZN4KEYS6updateEv+0x1c>
10000eb6:	07cb      	lsls	r3, r1, #31
10000eb8:	d424      	bmi.n	10000f04 <_ZN4KEYS6updateEv+0x60>
10000eba:	3401      	adds	r4, #1
10000ebc:	2c1b      	cmp	r4, #27
10000ebe:	d00e      	beq.n	10000ede <_ZN4KEYS6updateEv+0x3a>
10000ec0:	fa22 f304 	lsr.w	r3, r2, r4
10000ec4:	07db      	lsls	r3, r3, #31
10000ec6:	fa20 f104 	lsr.w	r1, r0, r4
10000eca:	d5f4      	bpl.n	10000eb6 <_ZN4KEYS6updateEv+0x12>
10000ecc:	fa20 f104 	lsr.w	r1, r0, r4
10000ed0:	f011 0101 	ands.w	r1, r1, #1
10000ed4:	d023      	beq.n	10000f1e <_ZN4KEYS6updateEv+0x7a>
10000ed6:	3401      	adds	r4, #1
10000ed8:	2c1b      	cmp	r4, #27
10000eda:	6832      	ldr	r2, [r6, #0]
10000edc:	d1f0      	bne.n	10000ec0 <_ZN4KEYS6updateEv+0x1c>
10000ede:	0113      	lsls	r3, r2, #4
10000ee0:	d525      	bpl.n	10000f2e <_ZN4KEYS6updateEv+0x8a>
10000ee2:	0102      	lsls	r2, r0, #4
10000ee4:	d554      	bpl.n	10000f90 <_ZN4KEYS6updateEv+0xec>
10000ee6:	6832      	ldr	r2, [r6, #0]
10000ee8:	00d3      	lsls	r3, r2, #3
10000eea:	d42b      	bmi.n	10000f44 <_ZN4KEYS6updateEv+0xa0>
10000eec:	00c4      	lsls	r4, r0, #3
10000eee:	d447      	bmi.n	10000f80 <_ZN4KEYS6updateEv+0xdc>
10000ef0:	0093      	lsls	r3, r2, #2
10000ef2:	d42c      	bmi.n	10000f4e <_ZN4KEYS6updateEv+0xaa>
10000ef4:	0084      	lsls	r4, r0, #2
10000ef6:	d43b      	bmi.n	10000f70 <_ZN4KEYS6updateEv+0xcc>
10000ef8:	0054      	lsls	r4, r2, #1
10000efa:	d42d      	bmi.n	10000f58 <_ZN4KEYS6updateEv+0xb4>
10000efc:	0040      	lsls	r0, r0, #1
10000efe:	d42f      	bmi.n	10000f60 <_ZN4KEYS6updateEv+0xbc>
10000f00:	602a      	str	r2, [r5, #0]
10000f02:	bd70      	pop	{r4, r5, r6, pc}
10000f04:	f104 003c 	add.w	r0, r4, #60	@ 0x3c
10000f08:	217f      	movs	r1, #127	@ 0x7f
10000f0a:	b2c0      	uxtb	r0, r0
10000f0c:	f005 fce8 	bl	100068e0 <_ZN13NOTE_HANDLING6noteOnEhh>
10000f10:	6832      	ldr	r2, [r6, #0]
10000f12:	6828      	ldr	r0, [r5, #0]
10000f14:	fa22 f304 	lsr.w	r3, r2, r4
10000f18:	07d9      	lsls	r1, r3, #31
10000f1a:	d4d7      	bmi.n	10000ecc <_ZN4KEYS6updateEv+0x28>
10000f1c:	e7cd      	b.n	10000eba <_ZN4KEYS6updateEv+0x16>
10000f1e:	f104 003c 	add.w	r0, r4, #60	@ 0x3c
10000f22:	b2c0      	uxtb	r0, r0
10000f24:	f005 fcee 	bl	10006904 <_ZN13NOTE_HANDLING7noteOffEhh>
10000f28:	6832      	ldr	r2, [r6, #0]
10000f2a:	6828      	ldr	r0, [r5, #0]
10000f2c:	e7c5      	b.n	10000eba <_ZN4KEYS6updateEv+0x16>
10000f2e:	0104      	lsls	r4, r0, #4
10000f30:	d5da      	bpl.n	10000ee8 <_ZN4KEYS6updateEv+0x44>
10000f32:	4824      	ldr	r0, [pc, #144]	@ (10000fc4 <_ZN4KEYS6updateEv+0x120>)
10000f34:	f7ff fca6 	bl	10000884 <_ZN7Buttons6Button7pressedEv>
10000f38:	6832      	ldr	r2, [r6, #0]
10000f3a:	6828      	ldr	r0, [r5, #0]
10000f3c:	0111      	lsls	r1, r2, #4
10000f3e:	d4d0      	bmi.n	10000ee2 <_ZN4KEYS6updateEv+0x3e>
10000f40:	00d3      	lsls	r3, r2, #3
10000f42:	d5d3      	bpl.n	10000eec <_ZN4KEYS6updateEv+0x48>
10000f44:	00c2      	lsls	r2, r0, #3
10000f46:	d529      	bpl.n	10000f9c <_ZN4KEYS6updateEv+0xf8>
10000f48:	6832      	ldr	r2, [r6, #0]
10000f4a:	0093      	lsls	r3, r2, #2
10000f4c:	d5d2      	bpl.n	10000ef4 <_ZN4KEYS6updateEv+0x50>
10000f4e:	0083      	lsls	r3, r0, #2
10000f50:	d52a      	bpl.n	10000fa8 <_ZN4KEYS6updateEv+0x104>
10000f52:	6832      	ldr	r2, [r6, #0]
10000f54:	0054      	lsls	r4, r2, #1
10000f56:	d5d1      	bpl.n	10000efc <_ZN4KEYS6updateEv+0x58>
10000f58:	0043      	lsls	r3, r0, #1
10000f5a:	d52b      	bpl.n	10000fb4 <_ZN4KEYS6updateEv+0x110>
10000f5c:	6832      	ldr	r2, [r6, #0]
10000f5e:	e7cf      	b.n	10000f00 <_ZN4KEYS6updateEv+0x5c>
10000f60:	4819      	ldr	r0, [pc, #100]	@ (10000fc8 <_ZN4KEYS6updateEv+0x124>)
10000f62:	f7ff fc8f 	bl	10000884 <_ZN7Buttons6Button7pressedEv>
10000f66:	6832      	ldr	r2, [r6, #0]
10000f68:	0051      	lsls	r1, r2, #1
10000f6a:	d5c9      	bpl.n	10000f00 <_ZN4KEYS6updateEv+0x5c>
10000f6c:	6828      	ldr	r0, [r5, #0]
10000f6e:	e7f3      	b.n	10000f58 <_ZN4KEYS6updateEv+0xb4>
10000f70:	4816      	ldr	r0, [pc, #88]	@ (10000fcc <_ZN4KEYS6updateEv+0x128>)
10000f72:	f7ff fc87 	bl	10000884 <_ZN7Buttons6Button7pressedEv>
10000f76:	6832      	ldr	r2, [r6, #0]
10000f78:	6828      	ldr	r0, [r5, #0]
10000f7a:	0091      	lsls	r1, r2, #2
10000f7c:	d4e7      	bmi.n	10000f4e <_ZN4KEYS6updateEv+0xaa>
10000f7e:	e7bb      	b.n	10000ef8 <_ZN4KEYS6updateEv+0x54>
10000f80:	4813      	ldr	r0, [pc, #76]	@ (10000fd0 <_ZN4KEYS6updateEv+0x12c>)
10000f82:	f7ff fc7f 	bl	10000884 <_ZN7Buttons6Button7pressedEv>
10000f86:	6832      	ldr	r2, [r6, #0]
10000f88:	6828      	ldr	r0, [r5, #0]
10000f8a:	00d1      	lsls	r1, r2, #3
10000f8c:	d4da      	bmi.n	10000f44 <_ZN4KEYS6updateEv+0xa0>
10000f8e:	e7af      	b.n	10000ef0 <_ZN4KEYS6updateEv+0x4c>
10000f90:	480c      	ldr	r0, [pc, #48]	@ (10000fc4 <_ZN4KEYS6updateEv+0x120>)
10000f92:	f7ff fc95 	bl	100008c0 <_ZN7Buttons6Button8releasedEv>
10000f96:	6832      	ldr	r2, [r6, #0]
10000f98:	6828      	ldr	r0, [r5, #0]
10000f9a:	e7a5      	b.n	10000ee8 <_ZN4KEYS6updateEv+0x44>
10000f9c:	480c      	ldr	r0, [pc, #48]	@ (10000fd0 <_ZN4KEYS6updateEv+0x12c>)
10000f9e:	f7ff fc8f 	bl	100008c0 <_ZN7Buttons6Button8releasedEv>
10000fa2:	6832      	ldr	r2, [r6, #0]
10000fa4:	6828      	ldr	r0, [r5, #0]
10000fa6:	e7a3      	b.n	10000ef0 <_ZN4KEYS6updateEv+0x4c>
10000fa8:	4808      	ldr	r0, [pc, #32]	@ (10000fcc <_ZN4KEYS6updateEv+0x128>)
10000faa:	f7ff fc89 	bl	100008c0 <_ZN7Buttons6Button8releasedEv>
10000fae:	6832      	ldr	r2, [r6, #0]
10000fb0:	6828      	ldr	r0, [r5, #0]
10000fb2:	e7a1      	b.n	10000ef8 <_ZN4KEYS6updateEv+0x54>
10000fb4:	4804      	ldr	r0, [pc, #16]	@ (10000fc8 <_ZN4KEYS6updateEv+0x124>)
10000fb6:	f7ff fc83 	bl	100008c0 <_ZN7Buttons6Button8releasedEv>
10000fba:	e7cf      	b.n	10000f5c <_ZN4KEYS6updateEv+0xb8>
10000fbc:	200010e0 	.word	0x200010e0
10000fc0:	200010dc 	.word	0x200010dc
10000fc4:	2002ebb4 	.word	0x2002ebb4
10000fc8:	2002ebfc 	.word	0x2002ebfc
10000fcc:	2002ebe4 	.word	0x2002ebe4
10000fd0:	2002ebcc 	.word	0x2002ebcc

10000fd4 <_ZN4LEDS4initEv>:
10000fd4:	b538      	push	{r3, r4, r5, lr}
10000fd6:	4d15      	ldr	r5, [pc, #84]	@ (1000102c <_ZN4LEDS4initEv+0x58>)
10000fd8:	2401      	movs	r4, #1
10000fda:	7828      	ldrb	r0, [r5, #0]
10000fdc:	f006 f88a 	bl	100070f4 <gpio_init>
10000fe0:	782b      	ldrb	r3, [r5, #0]
10000fe2:	ec44 3044 	gpioc_bit_oe_put r3, r4
10000fe6:	4d12      	ldr	r5, [pc, #72]	@ (10001030 <_ZN4LEDS4initEv+0x5c>)
10000fe8:	7828      	ldrb	r0, [r5, #0]
10000fea:	f006 f883 	bl	100070f4 <gpio_init>
10000fee:	782b      	ldrb	r3, [r5, #0]
10000ff0:	ec44 3044 	gpioc_bit_oe_put r3, r4
10000ff4:	4d0f      	ldr	r5, [pc, #60]	@ (10001034 <_ZN4LEDS4initEv+0x60>)
10000ff6:	7828      	ldrb	r0, [r5, #0]
10000ff8:	f006 f87c 	bl	100070f4 <gpio_init>
10000ffc:	782b      	ldrb	r3, [r5, #0]
10000ffe:	ec44 3044 	gpioc_bit_oe_put r3, r4
10001002:	f000 fe67 	bl	10001cd4 <_ZN7RGB_LED4initEv>
10001006:	4b0c      	ldr	r3, [pc, #48]	@ (10001038 <_ZN4LEDS4initEv+0x64>)
10001008:	7818      	ldrb	r0, [r3, #0]
1000100a:	7859      	ldrb	r1, [r3, #1]
1000100c:	789a      	ldrb	r2, [r3, #2]
1000100e:	ea40 0401 	orr.w	r4, r0, r1
10001012:	4314      	orrs	r4, r2
10001014:	bf14      	ite	ne
10001016:	2401      	movne	r4, #1
10001018:	2400      	moveq	r4, #0
1000101a:	779c      	strb	r4, [r3, #30]
1000101c:	f001 f82a 	bl	10002074 <_ZN7RGB_LED3setEttt>
10001020:	f000 ffc6 	bl	10001fb0 <_ZN7RGB_LED6updateEv>
10001024:	e8bd 4038 	ldmia.w	sp!, {r3, r4, r5, lr}
10001028:	f001 b8ee 	b.w	10002208 <_ZN8ShiftReg4initEv>
1000102c:	20003e34 	.word	0x20003e34
10001030:	20003e40 	.word	0x20003e40
10001034:	20003e4c 	.word	0x20003e4c
10001038:	20003ed0 	.word	0x20003ed0

1000103c <_ZN4LEDS9KNOBS_offEv>:
1000103c:	b510      	push	{r4, lr}
1000103e:	2400      	movs	r4, #0
10001040:	4b0c      	ldr	r3, [pc, #48]	@ (10001074 <_ZN4LEDS9KNOBS_offEv+0x38>)
10001042:	4621      	mov	r1, r4
10001044:	7818      	ldrb	r0, [r3, #0]
10001046:	705c      	strb	r4, [r3, #1]
10001048:	f001 f90c 	bl	10002264 <_ZN8ShiftReg7set_bitE4Pinsb>
1000104c:	4b0a      	ldr	r3, [pc, #40]	@ (10001078 <_ZN4LEDS9KNOBS_offEv+0x3c>)
1000104e:	4621      	mov	r1, r4
10001050:	7818      	ldrb	r0, [r3, #0]
10001052:	705c      	strb	r4, [r3, #1]
10001054:	f001 f906 	bl	10002264 <_ZN8ShiftReg7set_bitE4Pinsb>
10001058:	4b08      	ldr	r3, [pc, #32]	@ (1000107c <_ZN4LEDS9KNOBS_offEv+0x40>)
1000105a:	4621      	mov	r1, r4
1000105c:	7818      	ldrb	r0, [r3, #0]
1000105e:	705c      	strb	r4, [r3, #1]
10001060:	f001 f900 	bl	10002264 <_ZN8ShiftReg7set_bitE4Pinsb>
10001064:	4b06      	ldr	r3, [pc, #24]	@ (10001080 <_ZN4LEDS9KNOBS_offEv+0x44>)
10001066:	4621      	mov	r1, r4
10001068:	705c      	strb	r4, [r3, #1]
1000106a:	7818      	ldrb	r0, [r3, #0]
1000106c:	e8bd 4010 	ldmia.w	sp!, {r4, lr}
10001070:	f001 b8f8 	b.w	10002264 <_ZN8ShiftReg7set_bitE4Pinsb>
10001074:	20003e7c 	.word	0x20003e7c
10001078:	20003e88 	.word	0x20003e88
1000107c:	20003e94 	.word	0x20003e94
10001080:	20003ea0 	.word	0x20003ea0

10001084 <_ZN4LEDS11KNOB_selectEhb>:
10001084:	2803      	cmp	r0, #3
10001086:	d833      	bhi.n	100010f0 <_ZN4LEDS11KNOB_selectEhb+0x6c>
10001088:	e8df f000 	tbb	[pc, r0]
1000108c:	02080e14 	.word	0x02080e14
10001090:	bb41      	cbnz	r1, 100010e4 <_ZN4LEDS11KNOB_selectEhb+0x60>
10001092:	4b18      	ldr	r3, [pc, #96]	@ (100010f4 <_ZN4LEDS11KNOB_selectEhb+0x70>)
10001094:	7818      	ldrb	r0, [r3, #0]
10001096:	7059      	strb	r1, [r3, #1]
10001098:	f001 b8e4 	b.w	10002264 <_ZN8ShiftReg7set_bitE4Pinsb>
1000109c:	b981      	cbnz	r1, 100010c0 <_ZN4LEDS11KNOB_selectEhb+0x3c>
1000109e:	4b16      	ldr	r3, [pc, #88]	@ (100010f8 <_ZN4LEDS11KNOB_selectEhb+0x74>)
100010a0:	7818      	ldrb	r0, [r3, #0]
100010a2:	7059      	strb	r1, [r3, #1]
100010a4:	f001 b8de 	b.w	10002264 <_ZN8ShiftReg7set_bitE4Pinsb>
100010a8:	b9b1      	cbnz	r1, 100010d8 <_ZN4LEDS11KNOB_selectEhb+0x54>
100010aa:	4b14      	ldr	r3, [pc, #80]	@ (100010fc <_ZN4LEDS11KNOB_selectEhb+0x78>)
100010ac:	7818      	ldrb	r0, [r3, #0]
100010ae:	7059      	strb	r1, [r3, #1]
100010b0:	f001 b8d8 	b.w	10002264 <_ZN8ShiftReg7set_bitE4Pinsb>
100010b4:	b951      	cbnz	r1, 100010cc <_ZN4LEDS11KNOB_selectEhb+0x48>
100010b6:	4b12      	ldr	r3, [pc, #72]	@ (10001100 <_ZN4LEDS11KNOB_selectEhb+0x7c>)
100010b8:	7818      	ldrb	r0, [r3, #0]
100010ba:	7059      	strb	r1, [r3, #1]
100010bc:	f001 b8d2 	b.w	10002264 <_ZN8ShiftReg7set_bitE4Pinsb>
100010c0:	2101      	movs	r1, #1
100010c2:	4b0d      	ldr	r3, [pc, #52]	@ (100010f8 <_ZN4LEDS11KNOB_selectEhb+0x74>)
100010c4:	7818      	ldrb	r0, [r3, #0]
100010c6:	7059      	strb	r1, [r3, #1]
100010c8:	f001 b8cc 	b.w	10002264 <_ZN8ShiftReg7set_bitE4Pinsb>
100010cc:	2101      	movs	r1, #1
100010ce:	4b0c      	ldr	r3, [pc, #48]	@ (10001100 <_ZN4LEDS11KNOB_selectEhb+0x7c>)
100010d0:	7818      	ldrb	r0, [r3, #0]
100010d2:	7059      	strb	r1, [r3, #1]
100010d4:	f001 b8c6 	b.w	10002264 <_ZN8ShiftReg7set_bitE4Pinsb>
100010d8:	2101      	movs	r1, #1
100010da:	4b08      	ldr	r3, [pc, #32]	@ (100010fc <_ZN4LEDS11KNOB_selectEhb+0x78>)
100010dc:	7818      	ldrb	r0, [r3, #0]
100010de:	7059      	strb	r1, [r3, #1]
100010e0:	f001 b8c0 	b.w	10002264 <_ZN8ShiftReg7set_bitE4Pinsb>
100010e4:	2101      	movs	r1, #1
100010e6:	4b03      	ldr	r3, [pc, #12]	@ (100010f4 <_ZN4LEDS11KNOB_selectEhb+0x70>)
100010e8:	7818      	ldrb	r0, [r3, #0]
100010ea:	7059      	strb	r1, [r3, #1]
100010ec:	f001 b8ba 	b.w	10002264 <_ZN8ShiftReg7set_bitE4Pinsb>
100010f0:	4770      	bx	lr
100010f2:	bf00      	nop
100010f4:	20003ea0 	.word	0x20003ea0
100010f8:	20003e94 	.word	0x20003e94
100010fc:	20003e88 	.word	0x20003e88
10001100:	20003e7c 	.word	0x20003e7c

10001104 <_ZN4LEDS11PAGE_selectEh>:
10001104:	e92d 41f0 	stmdb	sp!, {r4, r5, r6, r7, r8, lr}
10001108:	2400      	movs	r4, #0
1000110a:	4605      	mov	r5, r0
1000110c:	f8df 8094 	ldr.w	r8, [pc, #148]	@ 100011a4 <_ZN4LEDS11PAGE_selectEh+0xa0>
10001110:	4f22      	ldr	r7, [pc, #136]	@ (1000119c <_ZN4LEDS11PAGE_selectEh+0x98>)
10001112:	4621      	mov	r1, r4
10001114:	f898 0000 	ldrb.w	r0, [r8]
10001118:	4e21      	ldr	r6, [pc, #132]	@ (100011a0 <_ZN4LEDS11PAGE_selectEh+0x9c>)
1000111a:	f888 4001 	strb.w	r4, [r8, #1]
1000111e:	f001 f8a1 	bl	10002264 <_ZN8ShiftReg7set_bitE4Pinsb>
10001122:	4621      	mov	r1, r4
10001124:	7838      	ldrb	r0, [r7, #0]
10001126:	707c      	strb	r4, [r7, #1]
10001128:	f001 f89c 	bl	10002264 <_ZN8ShiftReg7set_bitE4Pinsb>
1000112c:	4621      	mov	r1, r4
1000112e:	7830      	ldrb	r0, [r6, #0]
10001130:	7074      	strb	r4, [r6, #1]
10001132:	f001 f897 	bl	10002264 <_ZN8ShiftReg7set_bitE4Pinsb>
10001136:	2d03      	cmp	r5, #3
10001138:	d82e      	bhi.n	10001198 <_ZN4LEDS11PAGE_selectEh+0x94>
1000113a:	e8df f005 	tbb	[pc, r5]
1000113e:	1d24      	.short	0x1d24
10001140:	0216      	.short	0x0216
10001142:	2401      	movs	r4, #1
10001144:	f898 0000 	ldrb.w	r0, [r8]
10001148:	4621      	mov	r1, r4
1000114a:	f888 4001 	strb.w	r4, [r8, #1]
1000114e:	f001 f889 	bl	10002264 <_ZN8ShiftReg7set_bitE4Pinsb>
10001152:	4621      	mov	r1, r4
10001154:	7838      	ldrb	r0, [r7, #0]
10001156:	707c      	strb	r4, [r7, #1]
10001158:	f001 f884 	bl	10002264 <_ZN8ShiftReg7set_bitE4Pinsb>
1000115c:	4621      	mov	r1, r4
1000115e:	7830      	ldrb	r0, [r6, #0]
10001160:	7074      	strb	r4, [r6, #1]
10001162:	e8bd 41f0 	ldmia.w	sp!, {r4, r5, r6, r7, r8, lr}
10001166:	f001 b87d 	b.w	10002264 <_ZN8ShiftReg7set_bitE4Pinsb>
1000116a:	2101      	movs	r1, #1
1000116c:	7830      	ldrb	r0, [r6, #0]
1000116e:	7071      	strb	r1, [r6, #1]
10001170:	e8bd 41f0 	ldmia.w	sp!, {r4, r5, r6, r7, r8, lr}
10001174:	f001 b876 	b.w	10002264 <_ZN8ShiftReg7set_bitE4Pinsb>
10001178:	2101      	movs	r1, #1
1000117a:	7838      	ldrb	r0, [r7, #0]
1000117c:	7079      	strb	r1, [r7, #1]
1000117e:	e8bd 41f0 	ldmia.w	sp!, {r4, r5, r6, r7, r8, lr}
10001182:	f001 b86f 	b.w	10002264 <_ZN8ShiftReg7set_bitE4Pinsb>
10001186:	2101      	movs	r1, #1
10001188:	f898 0000 	ldrb.w	r0, [r8]
1000118c:	f888 1001 	strb.w	r1, [r8, #1]
10001190:	e8bd 41f0 	ldmia.w	sp!, {r4, r5, r6, r7, r8, lr}
10001194:	f001 b866 	b.w	10002264 <_ZN8ShiftReg7set_bitE4Pinsb>
10001198:	e8bd 81f0 	ldmia.w	sp!, {r4, r5, r6, r7, r8, pc}
1000119c:	20003eb8 	.word	0x20003eb8
100011a0:	20003ec4 	.word	0x20003ec4
100011a4:	20003eac 	.word	0x20003eac

100011a8 <_ZN4LEDS4testEh>:
100011a8:	e92d 4ff0 	stmdb	sp!, {r4, r5, r6, r7, r8, r9, sl, fp, lr}
100011ac:	ed2d 8b02 	vpush	{d8}
100011b0:	f8df b3d8 	ldr.w	fp, [pc, #984]	@ 1000158c <_ZN4LEDS4testEh+0x3e4>
100011b4:	4607      	mov	r7, r0
100011b6:	f89b 3001 	ldrb.w	r3, [fp, #1]
100011ba:	f89b 4000 	ldrb.w	r4, [fp]
100011be:	f083 0301 	eor.w	r3, r3, #1
100011c2:	b085      	sub	sp, #20
100011c4:	f88b 3001 	strb.w	r3, [fp, #1]
100011c8:	ec43 4040 	gpioc_bit_out_put r4, r3
100011cc:	f89b 2004 	ldrb.w	r2, [fp, #4]
100011d0:	b1ea      	cbz	r2, 1000120e <_ZN4LEDS4testEh+0x66>
100011d2:	f8bb 1002 	ldrh.w	r1, [fp, #2]
100011d6:	f8bb 0006 	ldrh.w	r0, [fp, #6]
100011da:	3101      	adds	r1, #1
100011dc:	b289      	uxth	r1, r1
100011de:	4288      	cmp	r0, r1
100011e0:	f8ab 1002 	strh.w	r1, [fp, #2]
100011e4:	d213      	bcs.n	1000120e <_ZN4LEDS4testEh+0x66>
100011e6:	f89b 1008 	ldrb.w	r1, [fp, #8]
100011ea:	ec41 4040 	gpioc_bit_out_put r4, r1
100011ee:	f081 0101 	eor.w	r1, r1, #1
100011f2:	f88b 1008 	strb.w	r1, [fp, #8]
100011f6:	2100      	movs	r1, #0
100011f8:	2aff      	cmp	r2, #255	@ 0xff
100011fa:	f8ab 1002 	strh.w	r1, [fp, #2]
100011fe:	d006      	beq.n	1000120e <_ZN4LEDS4testEh+0x66>
10001200:	3a01      	subs	r2, #1
10001202:	b2d2      	uxtb	r2, r2
10001204:	f88b 2004 	strb.w	r2, [fp, #4]
10001208:	2a00      	cmp	r2, #0
1000120a:	f000 83db 	beq.w	100019c4 <_ZN4LEDS4testEh+0x81c>
1000120e:	4638      	mov	r0, r7
10001210:	f006 fe46 	bl	10007ea0 <sleep_ms>
10001214:	f89b 3001 	ldrb.w	r3, [fp, #1]
10001218:	f89b 0000 	ldrb.w	r0, [fp]
1000121c:	f083 0301 	eor.w	r3, r3, #1
10001220:	f88b 3001 	strb.w	r3, [fp, #1]
10001224:	ec43 0040 	gpioc_bit_out_put r0, r3
10001228:	f89b 2004 	ldrb.w	r2, [fp, #4]
1000122c:	b1ea      	cbz	r2, 1000126a <_ZN4LEDS4testEh+0xc2>
1000122e:	f8bb 1002 	ldrh.w	r1, [fp, #2]
10001232:	f8bb 4006 	ldrh.w	r4, [fp, #6]
10001236:	3101      	adds	r1, #1
10001238:	b289      	uxth	r1, r1
1000123a:	428c      	cmp	r4, r1
1000123c:	f8ab 1002 	strh.w	r1, [fp, #2]
10001240:	d213      	bcs.n	1000126a <_ZN4LEDS4testEh+0xc2>
10001242:	f89b 1008 	ldrb.w	r1, [fp, #8]
10001246:	ec41 0040 	gpioc_bit_out_put r0, r1
1000124a:	f081 0101 	eor.w	r1, r1, #1
1000124e:	f88b 1008 	strb.w	r1, [fp, #8]
10001252:	2100      	movs	r1, #0
10001254:	2aff      	cmp	r2, #255	@ 0xff
10001256:	f8ab 1002 	strh.w	r1, [fp, #2]
1000125a:	d006      	beq.n	1000126a <_ZN4LEDS4testEh+0xc2>
1000125c:	3a01      	subs	r2, #1
1000125e:	b2d2      	uxtb	r2, r2
10001260:	f88b 2004 	strb.w	r2, [fp, #4]
10001264:	2a00      	cmp	r2, #0
10001266:	f000 83b2 	beq.w	100019ce <_ZN4LEDS4testEh+0x826>
1000126a:	4638      	mov	r0, r7
1000126c:	f006 fe18 	bl	10007ea0 <sleep_ms>
10001270:	4bbe      	ldr	r3, [pc, #760]	@ (1000156c <_ZN4LEDS4testEh+0x3c4>)
10001272:	f8df 831c 	ldr.w	r8, [pc, #796]	@ 10001590 <_ZN4LEDS4testEh+0x3e8>
10001276:	461c      	mov	r4, r3
10001278:	7859      	ldrb	r1, [r3, #1]
1000127a:	7818      	ldrb	r0, [r3, #0]
1000127c:	f081 0101 	eor.w	r1, r1, #1
10001280:	7059      	strb	r1, [r3, #1]
10001282:	f000 ffef 	bl	10002264 <_ZN8ShiftReg7set_bitE4Pinsb>
10001286:	f000 ffe5 	bl	10002254 <_ZN8ShiftReg6updateEv>
1000128a:	4638      	mov	r0, r7
1000128c:	f006 fe08 	bl	10007ea0 <sleep_ms>
10001290:	7861      	ldrb	r1, [r4, #1]
10001292:	7820      	ldrb	r0, [r4, #0]
10001294:	f081 0101 	eor.w	r1, r1, #1
10001298:	7061      	strb	r1, [r4, #1]
1000129a:	f000 ffe3 	bl	10002264 <_ZN8ShiftReg7set_bitE4Pinsb>
1000129e:	f000 ffd9 	bl	10002254 <_ZN8ShiftReg6updateEv>
100012a2:	4638      	mov	r0, r7
100012a4:	f006 fdfc 	bl	10007ea0 <sleep_ms>
100012a8:	4bb1      	ldr	r3, [pc, #708]	@ (10001570 <_ZN4LEDS4testEh+0x3c8>)
100012aa:	461c      	mov	r4, r3
100012ac:	7859      	ldrb	r1, [r3, #1]
100012ae:	7818      	ldrb	r0, [r3, #0]
100012b0:	f081 0101 	eor.w	r1, r1, #1
100012b4:	7059      	strb	r1, [r3, #1]
100012b6:	f000 ffd5 	bl	10002264 <_ZN8ShiftReg7set_bitE4Pinsb>
100012ba:	f000 ffcb 	bl	10002254 <_ZN8ShiftReg6updateEv>
100012be:	4638      	mov	r0, r7
100012c0:	f006 fdee 	bl	10007ea0 <sleep_ms>
100012c4:	7861      	ldrb	r1, [r4, #1]
100012c6:	7820      	ldrb	r0, [r4, #0]
100012c8:	f081 0101 	eor.w	r1, r1, #1
100012cc:	7061      	strb	r1, [r4, #1]
100012ce:	f000 ffc9 	bl	10002264 <_ZN8ShiftReg7set_bitE4Pinsb>
100012d2:	f000 ffbf 	bl	10002254 <_ZN8ShiftReg6updateEv>
100012d6:	4638      	mov	r0, r7
100012d8:	f006 fde2 	bl	10007ea0 <sleep_ms>
100012dc:	4ba5      	ldr	r3, [pc, #660]	@ (10001574 <_ZN4LEDS4testEh+0x3cc>)
100012de:	461c      	mov	r4, r3
100012e0:	7859      	ldrb	r1, [r3, #1]
100012e2:	7818      	ldrb	r0, [r3, #0]
100012e4:	f081 0101 	eor.w	r1, r1, #1
100012e8:	7059      	strb	r1, [r3, #1]
100012ea:	f000 ffbb 	bl	10002264 <_ZN8ShiftReg7set_bitE4Pinsb>
100012ee:	f000 ffb1 	bl	10002254 <_ZN8ShiftReg6updateEv>
100012f2:	4638      	mov	r0, r7
100012f4:	f006 fdd4 	bl	10007ea0 <sleep_ms>
100012f8:	7861      	ldrb	r1, [r4, #1]
100012fa:	7820      	ldrb	r0, [r4, #0]
100012fc:	f081 0101 	eor.w	r1, r1, #1
10001300:	7061      	strb	r1, [r4, #1]
10001302:	f000 ffaf 	bl	10002264 <_ZN8ShiftReg7set_bitE4Pinsb>
10001306:	f000 ffa5 	bl	10002254 <_ZN8ShiftReg6updateEv>
1000130a:	4638      	mov	r0, r7
1000130c:	f006 fdc8 	bl	10007ea0 <sleep_ms>
10001310:	4b99      	ldr	r3, [pc, #612]	@ (10001578 <_ZN4LEDS4testEh+0x3d0>)
10001312:	461c      	mov	r4, r3
10001314:	7859      	ldrb	r1, [r3, #1]
10001316:	7818      	ldrb	r0, [r3, #0]
10001318:	f081 0101 	eor.w	r1, r1, #1
1000131c:	7059      	strb	r1, [r3, #1]
1000131e:	f000 ffa1 	bl	10002264 <_ZN8ShiftReg7set_bitE4Pinsb>
10001322:	f000 ff97 	bl	10002254 <_ZN8ShiftReg6updateEv>
10001326:	4638      	mov	r0, r7
10001328:	f006 fdba 	bl	10007ea0 <sleep_ms>
1000132c:	7861      	ldrb	r1, [r4, #1]
1000132e:	7820      	ldrb	r0, [r4, #0]
10001330:	f081 0101 	eor.w	r1, r1, #1
10001334:	7061      	strb	r1, [r4, #1]
10001336:	f000 ff95 	bl	10002264 <_ZN8ShiftReg7set_bitE4Pinsb>
1000133a:	f000 ff8b 	bl	10002254 <_ZN8ShiftReg6updateEv>
1000133e:	4638      	mov	r0, r7
10001340:	f006 fdae 	bl	10007ea0 <sleep_ms>
10001344:	4b8d      	ldr	r3, [pc, #564]	@ (1000157c <_ZN4LEDS4testEh+0x3d4>)
10001346:	461c      	mov	r4, r3
10001348:	7859      	ldrb	r1, [r3, #1]
1000134a:	7818      	ldrb	r0, [r3, #0]
1000134c:	f081 0101 	eor.w	r1, r1, #1
10001350:	7059      	strb	r1, [r3, #1]
10001352:	f000 ff87 	bl	10002264 <_ZN8ShiftReg7set_bitE4Pinsb>
10001356:	f000 ff7d 	bl	10002254 <_ZN8ShiftReg6updateEv>
1000135a:	4638      	mov	r0, r7
1000135c:	f006 fda0 	bl	10007ea0 <sleep_ms>
10001360:	7861      	ldrb	r1, [r4, #1]
10001362:	7820      	ldrb	r0, [r4, #0]
10001364:	f081 0101 	eor.w	r1, r1, #1
10001368:	7061      	strb	r1, [r4, #1]
1000136a:	f000 ff7b 	bl	10002264 <_ZN8ShiftReg7set_bitE4Pinsb>
1000136e:	f000 ff71 	bl	10002254 <_ZN8ShiftReg6updateEv>
10001372:	4638      	mov	r0, r7
10001374:	f006 fd94 	bl	10007ea0 <sleep_ms>
10001378:	4b81      	ldr	r3, [pc, #516]	@ (10001580 <_ZN4LEDS4testEh+0x3d8>)
1000137a:	461c      	mov	r4, r3
1000137c:	7859      	ldrb	r1, [r3, #1]
1000137e:	7818      	ldrb	r0, [r3, #0]
10001380:	f081 0101 	eor.w	r1, r1, #1
10001384:	7059      	strb	r1, [r3, #1]
10001386:	f000 ff6d 	bl	10002264 <_ZN8ShiftReg7set_bitE4Pinsb>
1000138a:	f000 ff63 	bl	10002254 <_ZN8ShiftReg6updateEv>
1000138e:	4638      	mov	r0, r7
10001390:	f006 fd86 	bl	10007ea0 <sleep_ms>
10001394:	7861      	ldrb	r1, [r4, #1]
10001396:	7820      	ldrb	r0, [r4, #0]
10001398:	f081 0101 	eor.w	r1, r1, #1
1000139c:	7061      	strb	r1, [r4, #1]
1000139e:	f000 ff61 	bl	10002264 <_ZN8ShiftReg7set_bitE4Pinsb>
100013a2:	f000 ff57 	bl	10002254 <_ZN8ShiftReg6updateEv>
100013a6:	4638      	mov	r0, r7
100013a8:	f006 fd7a 	bl	10007ea0 <sleep_ms>
100013ac:	4b75      	ldr	r3, [pc, #468]	@ (10001584 <_ZN4LEDS4testEh+0x3dc>)
100013ae:	461c      	mov	r4, r3
100013b0:	7859      	ldrb	r1, [r3, #1]
100013b2:	7818      	ldrb	r0, [r3, #0]
100013b4:	f081 0101 	eor.w	r1, r1, #1
100013b8:	7059      	strb	r1, [r3, #1]
100013ba:	f000 ff53 	bl	10002264 <_ZN8ShiftReg7set_bitE4Pinsb>
100013be:	f000 ff49 	bl	10002254 <_ZN8ShiftReg6updateEv>
100013c2:	4638      	mov	r0, r7
100013c4:	f006 fd6c 	bl	10007ea0 <sleep_ms>
100013c8:	7861      	ldrb	r1, [r4, #1]
100013ca:	7820      	ldrb	r0, [r4, #0]
100013cc:	f081 0101 	eor.w	r1, r1, #1
100013d0:	7061      	strb	r1, [r4, #1]
100013d2:	f000 ff47 	bl	10002264 <_ZN8ShiftReg7set_bitE4Pinsb>
100013d6:	f000 ff3d 	bl	10002254 <_ZN8ShiftReg6updateEv>
100013da:	4638      	mov	r0, r7
100013dc:	f006 fd60 	bl	10007ea0 <sleep_ms>
100013e0:	f898 3001 	ldrb.w	r3, [r8, #1]
100013e4:	f898 0000 	ldrb.w	r0, [r8]
100013e8:	f083 0301 	eor.w	r3, r3, #1
100013ec:	f888 3001 	strb.w	r3, [r8, #1]
100013f0:	ec43 0040 	gpioc_bit_out_put r0, r3
100013f4:	f898 2004 	ldrb.w	r2, [r8, #4]
100013f8:	b1ea      	cbz	r2, 10001436 <_ZN4LEDS4testEh+0x28e>
100013fa:	f8b8 1002 	ldrh.w	r1, [r8, #2]
100013fe:	f8b8 4006 	ldrh.w	r4, [r8, #6]
10001402:	3101      	adds	r1, #1
10001404:	b289      	uxth	r1, r1
10001406:	428c      	cmp	r4, r1
10001408:	f8a8 1002 	strh.w	r1, [r8, #2]
1000140c:	d213      	bcs.n	10001436 <_ZN4LEDS4testEh+0x28e>
1000140e:	f898 1008 	ldrb.w	r1, [r8, #8]
10001412:	ec41 0040 	gpioc_bit_out_put r0, r1
10001416:	f081 0101 	eor.w	r1, r1, #1
1000141a:	f888 1008 	strb.w	r1, [r8, #8]
1000141e:	2100      	movs	r1, #0
10001420:	2aff      	cmp	r2, #255	@ 0xff
10001422:	f8a8 1002 	strh.w	r1, [r8, #2]
10001426:	d006      	beq.n	10001436 <_ZN4LEDS4testEh+0x28e>
10001428:	3a01      	subs	r2, #1
1000142a:	b2d2      	uxtb	r2, r2
1000142c:	f888 2004 	strb.w	r2, [r8, #4]
10001430:	2a00      	cmp	r2, #0
10001432:	f000 82d1 	beq.w	100019d8 <_ZN4LEDS4testEh+0x830>
10001436:	4638      	mov	r0, r7
10001438:	f006 fd32 	bl	10007ea0 <sleep_ms>
1000143c:	f898 3001 	ldrb.w	r3, [r8, #1]
10001440:	f898 0000 	ldrb.w	r0, [r8]
10001444:	f083 0301 	eor.w	r3, r3, #1
10001448:	f888 3001 	strb.w	r3, [r8, #1]
1000144c:	ec43 0040 	gpioc_bit_out_put r0, r3
10001450:	f898 2004 	ldrb.w	r2, [r8, #4]
10001454:	b1ea      	cbz	r2, 10001492 <_ZN4LEDS4testEh+0x2ea>
10001456:	f8b8 1002 	ldrh.w	r1, [r8, #2]
1000145a:	f8b8 4006 	ldrh.w	r4, [r8, #6]
1000145e:	3101      	adds	r1, #1
10001460:	b289      	uxth	r1, r1
10001462:	428c      	cmp	r4, r1
10001464:	f8a8 1002 	strh.w	r1, [r8, #2]
10001468:	d213      	bcs.n	10001492 <_ZN4LEDS4testEh+0x2ea>
1000146a:	f898 1008 	ldrb.w	r1, [r8, #8]
1000146e:	ec41 0040 	gpioc_bit_out_put r0, r1
10001472:	f081 0101 	eor.w	r1, r1, #1
10001476:	f888 1008 	strb.w	r1, [r8, #8]
1000147a:	2100      	movs	r1, #0
1000147c:	2aff      	cmp	r2, #255	@ 0xff
1000147e:	f8a8 1002 	strh.w	r1, [r8, #2]
10001482:	d006      	beq.n	10001492 <_ZN4LEDS4testEh+0x2ea>
10001484:	3a01      	subs	r2, #1
10001486:	b2d2      	uxtb	r2, r2
10001488:	f888 2004 	strb.w	r2, [r8, #4]
1000148c:	2a00      	cmp	r2, #0
1000148e:	f000 82a8 	beq.w	100019e2 <_ZN4LEDS4testEh+0x83a>
10001492:	f8df 9100 	ldr.w	r9, [pc, #256]	@ 10001594 <_ZN4LEDS4testEh+0x3ec>
10001496:	4638      	mov	r0, r7
10001498:	f006 fd02 	bl	10007ea0 <sleep_ms>
1000149c:	f899 3001 	ldrb.w	r3, [r9, #1]
100014a0:	f899 0000 	ldrb.w	r0, [r9]
100014a4:	f083 0301 	eor.w	r3, r3, #1
100014a8:	f889 3001 	strb.w	r3, [r9, #1]
100014ac:	ec43 0040 	gpioc_bit_out_put r0, r3
100014b0:	f899 2004 	ldrb.w	r2, [r9, #4]
100014b4:	b1ea      	cbz	r2, 100014f2 <_ZN4LEDS4testEh+0x34a>
100014b6:	f8b9 1002 	ldrh.w	r1, [r9, #2]
100014ba:	f8b9 4006 	ldrh.w	r4, [r9, #6]
100014be:	3101      	adds	r1, #1
100014c0:	b289      	uxth	r1, r1
100014c2:	428c      	cmp	r4, r1
100014c4:	f8a9 1002 	strh.w	r1, [r9, #2]
100014c8:	d213      	bcs.n	100014f2 <_ZN4LEDS4testEh+0x34a>
100014ca:	f899 1008 	ldrb.w	r1, [r9, #8]
100014ce:	ec41 0040 	gpioc_bit_out_put r0, r1
100014d2:	f081 0101 	eor.w	r1, r1, #1
100014d6:	f889 1008 	strb.w	r1, [r9, #8]
100014da:	2100      	movs	r1, #0
100014dc:	2aff      	cmp	r2, #255	@ 0xff
100014de:	f8a9 1002 	strh.w	r1, [r9, #2]
100014e2:	d006      	beq.n	100014f2 <_ZN4LEDS4testEh+0x34a>
100014e4:	3a01      	subs	r2, #1
100014e6:	b2d2      	uxtb	r2, r2
100014e8:	f889 2004 	strb.w	r2, [r9, #4]
100014ec:	2a00      	cmp	r2, #0
100014ee:	f000 827d 	beq.w	100019ec <_ZN4LEDS4testEh+0x844>
100014f2:	4638      	mov	r0, r7
100014f4:	f006 fcd4 	bl	10007ea0 <sleep_ms>
100014f8:	f899 3001 	ldrb.w	r3, [r9, #1]
100014fc:	f899 0000 	ldrb.w	r0, [r9]
10001500:	f083 0301 	eor.w	r3, r3, #1
10001504:	f889 3001 	strb.w	r3, [r9, #1]
10001508:	ec43 0040 	gpioc_bit_out_put r0, r3
1000150c:	f899 2004 	ldrb.w	r2, [r9, #4]
10001510:	b152      	cbz	r2, 10001528 <_ZN4LEDS4testEh+0x380>
10001512:	f8b9 1002 	ldrh.w	r1, [r9, #2]
10001516:	f8b9 4006 	ldrh.w	r4, [r9, #6]
1000151a:	3101      	adds	r1, #1
1000151c:	b289      	uxth	r1, r1
1000151e:	428c      	cmp	r4, r1
10001520:	f8a9 1002 	strh.w	r1, [r9, #2]
10001524:	f0c0 8234 	bcc.w	10001990 <_ZN4LEDS4testEh+0x7e8>
10001528:	4638      	mov	r0, r7
1000152a:	f006 fcb9 	bl	10007ea0 <sleep_ms>
1000152e:	2300      	movs	r3, #0
10001530:	4c15      	ldr	r4, [pc, #84]	@ (10001588 <_ZN4LEDS4testEh+0x3e0>)
10001532:	2f01      	cmp	r7, #1
10001534:	83a3      	strh	r3, [r4, #28]
10001536:	f04f 0301 	mov.w	r3, #1
1000153a:	463e      	mov	r6, r7
1000153c:	f104 0a18 	add.w	sl, r4, #24
10001540:	f04f 01ff 	mov.w	r1, #255	@ 0xff
10001544:	bf38      	it	cc
10001546:	2601      	movcc	r6, #1
10001548:	ee08 7a10 	vmov	s16, r7
1000154c:	4657      	mov	r7, sl
1000154e:	469a      	mov	sl, r3
10001550:	61a1      	str	r1, [r4, #24]
10001552:	0136      	lsls	r6, r6, #4
10001554:	f1ba 0f03 	cmp.w	sl, #3
10001558:	bf15      	itete	ne
1000155a:	4652      	movne	r2, sl
1000155c:	2200      	moveq	r2, #0
1000155e:	4653      	movne	r3, sl
10001560:	2303      	moveq	r3, #3
10001562:	9203      	str	r2, [sp, #12]
10001564:	25ff      	movs	r5, #255	@ 0xff
10001566:	460a      	mov	r2, r1
10001568:	9301      	str	r3, [sp, #4]
1000156a:	e015      	b.n	10001598 <_ZN4LEDS4testEh+0x3f0>
1000156c:	20003e7c 	.word	0x20003e7c
10001570:	20003e88 	.word	0x20003e88
10001574:	20003e94 	.word	0x20003e94
10001578:	20003ea0 	.word	0x20003ea0
1000157c:	20003eac 	.word	0x20003eac
10001580:	20003eb8 	.word	0x20003eb8
10001584:	20003ec4 	.word	0x20003ec4
10001588:	20003ed0 	.word	0x20003ed0
1000158c:	20003e34 	.word	0x20003e34
10001590:	20003e40 	.word	0x20003e40
10001594:	20003e4c 	.word	0x20003e4c
10001598:	9b03      	ldr	r3, [sp, #12]
1000159a:	3a01      	subs	r2, #1
1000159c:	803a      	strh	r2, [r7, #0]
1000159e:	330c      	adds	r3, #12
100015a0:	f834 2013 	ldrh.w	r2, [r4, r3, lsl #1]
100015a4:	3201      	adds	r2, #1
100015a6:	f824 2013 	strh.w	r2, [r4, r3, lsl #1]
100015aa:	8b20      	ldrh	r0, [r4, #24]
100015ac:	8b61      	ldrh	r1, [r4, #26]
100015ae:	8ba2      	ldrh	r2, [r4, #28]
100015b0:	ea40 0301 	orr.w	r3, r0, r1
100015b4:	4313      	orrs	r3, r2
100015b6:	bf14      	ite	ne
100015b8:	2301      	movne	r3, #1
100015ba:	2300      	moveq	r3, #0
100015bc:	77a3      	strb	r3, [r4, #30]
100015be:	f000 fd59 	bl	10002074 <_ZN7RGB_LED3setEttt>
100015c2:	f000 fcf5 	bl	10001fb0 <_ZN7RGB_LED6updateEv>
100015c6:	4630      	mov	r0, r6
100015c8:	2100      	movs	r1, #0
100015ca:	f006 fc55 	bl	10007e78 <sleep_us>
100015ce:	3d01      	subs	r5, #1
100015d0:	d10b      	bne.n	100015ea <_ZN4LEDS4testEh+0x442>
100015d2:	f10a 0a01 	add.w	sl, sl, #1
100015d6:	f1ba 0f04 	cmp.w	sl, #4
100015da:	f107 0702 	add.w	r7, r7, #2
100015de:	d006      	beq.n	100015ee <_ZN4LEDS4testEh+0x446>
100015e0:	9a01      	ldr	r2, [sp, #4]
100015e2:	320c      	adds	r2, #12
100015e4:	f834 1012 	ldrh.w	r1, [r4, r2, lsl #1]
100015e8:	e7b4      	b.n	10001554 <_ZN4LEDS4testEh+0x3ac>
100015ea:	883a      	ldrh	r2, [r7, #0]
100015ec:	e7d4      	b.n	10001598 <_ZN4LEDS4testEh+0x3f0>
100015ee:	f899 3001 	ldrb.w	r3, [r9, #1]
100015f2:	ee18 7a10 	vmov	r7, s16
100015f6:	f083 0301 	eor.w	r3, r3, #1
100015fa:	f899 0000 	ldrb.w	r0, [r9]
100015fe:	f889 3001 	strb.w	r3, [r9, #1]
10001602:	ec43 0040 	gpioc_bit_out_put r0, r3
10001606:	f899 1004 	ldrb.w	r1, [r9, #4]
1000160a:	b1e1      	cbz	r1, 10001646 <_ZN4LEDS4testEh+0x49e>
1000160c:	f8b9 2002 	ldrh.w	r2, [r9, #2]
10001610:	f8b9 4006 	ldrh.w	r4, [r9, #6]
10001614:	3201      	adds	r2, #1
10001616:	b292      	uxth	r2, r2
10001618:	4294      	cmp	r4, r2
1000161a:	f8a9 2002 	strh.w	r2, [r9, #2]
1000161e:	d212      	bcs.n	10001646 <_ZN4LEDS4testEh+0x49e>
10001620:	f899 2008 	ldrb.w	r2, [r9, #8]
10001624:	ec42 0040 	gpioc_bit_out_put r0, r2
10001628:	f082 0201 	eor.w	r2, r2, #1
1000162c:	29ff      	cmp	r1, #255	@ 0xff
1000162e:	f889 2008 	strb.w	r2, [r9, #8]
10001632:	f8a9 5002 	strh.w	r5, [r9, #2]
10001636:	d006      	beq.n	10001646 <_ZN4LEDS4testEh+0x49e>
10001638:	1e4a      	subs	r2, r1, #1
1000163a:	b2d2      	uxtb	r2, r2
1000163c:	f889 2004 	strb.w	r2, [r9, #4]
10001640:	2a00      	cmp	r2, #0
10001642:	f000 81d8 	beq.w	100019f6 <_ZN4LEDS4testEh+0x84e>
10001646:	4638      	mov	r0, r7
10001648:	f006 fc2a 	bl	10007ea0 <sleep_ms>
1000164c:	f899 3001 	ldrb.w	r3, [r9, #1]
10001650:	f899 0000 	ldrb.w	r0, [r9]
10001654:	f083 0301 	eor.w	r3, r3, #1
10001658:	f889 3001 	strb.w	r3, [r9, #1]
1000165c:	ec43 0040 	gpioc_bit_out_put r0, r3
10001660:	f899 2004 	ldrb.w	r2, [r9, #4]
10001664:	b1ea      	cbz	r2, 100016a2 <_ZN4LEDS4testEh+0x4fa>
10001666:	f8b9 1002 	ldrh.w	r1, [r9, #2]
1000166a:	f8b9 4006 	ldrh.w	r4, [r9, #6]
1000166e:	3101      	adds	r1, #1
10001670:	b289      	uxth	r1, r1
10001672:	428c      	cmp	r4, r1
10001674:	f8a9 1002 	strh.w	r1, [r9, #2]
10001678:	d213      	bcs.n	100016a2 <_ZN4LEDS4testEh+0x4fa>
1000167a:	f899 1008 	ldrb.w	r1, [r9, #8]
1000167e:	ec41 0040 	gpioc_bit_out_put r0, r1
10001682:	f081 0101 	eor.w	r1, r1, #1
10001686:	f889 1008 	strb.w	r1, [r9, #8]
1000168a:	2100      	movs	r1, #0
1000168c:	2aff      	cmp	r2, #255	@ 0xff
1000168e:	f8a9 1002 	strh.w	r1, [r9, #2]
10001692:	d006      	beq.n	100016a2 <_ZN4LEDS4testEh+0x4fa>
10001694:	3a01      	subs	r2, #1
10001696:	b2d2      	uxtb	r2, r2
10001698:	f889 2004 	strb.w	r2, [r9, #4]
1000169c:	2a00      	cmp	r2, #0
1000169e:	f000 81af 	beq.w	10001a00 <_ZN4LEDS4testEh+0x858>
100016a2:	4638      	mov	r0, r7
100016a4:	f006 fbfc 	bl	10007ea0 <sleep_ms>
100016a8:	f898 3001 	ldrb.w	r3, [r8, #1]
100016ac:	f898 0000 	ldrb.w	r0, [r8]
100016b0:	f083 0301 	eor.w	r3, r3, #1
100016b4:	f888 3001 	strb.w	r3, [r8, #1]
100016b8:	ec43 0040 	gpioc_bit_out_put r0, r3
100016bc:	f898 2004 	ldrb.w	r2, [r8, #4]
100016c0:	b1ea      	cbz	r2, 100016fe <_ZN4LEDS4testEh+0x556>
100016c2:	f8b8 1002 	ldrh.w	r1, [r8, #2]
100016c6:	f8b8 4006 	ldrh.w	r4, [r8, #6]
100016ca:	3101      	adds	r1, #1
100016cc:	b289      	uxth	r1, r1
100016ce:	428c      	cmp	r4, r1
100016d0:	f8a8 1002 	strh.w	r1, [r8, #2]
100016d4:	d213      	bcs.n	100016fe <_ZN4LEDS4testEh+0x556>
100016d6:	f898 1008 	ldrb.w	r1, [r8, #8]
100016da:	ec41 0040 	gpioc_bit_out_put r0, r1
100016de:	f081 0101 	eor.w	r1, r1, #1
100016e2:	f888 1008 	strb.w	r1, [r8, #8]
100016e6:	2100      	movs	r1, #0
100016e8:	2aff      	cmp	r2, #255	@ 0xff
100016ea:	f8a8 1002 	strh.w	r1, [r8, #2]
100016ee:	d006      	beq.n	100016fe <_ZN4LEDS4testEh+0x556>
100016f0:	3a01      	subs	r2, #1
100016f2:	b2d2      	uxtb	r2, r2
100016f4:	f888 2004 	strb.w	r2, [r8, #4]
100016f8:	2a00      	cmp	r2, #0
100016fa:	f000 8186 	beq.w	10001a0a <_ZN4LEDS4testEh+0x862>
100016fe:	4638      	mov	r0, r7
10001700:	f006 fbce 	bl	10007ea0 <sleep_ms>
10001704:	f898 3001 	ldrb.w	r3, [r8, #1]
10001708:	f898 0000 	ldrb.w	r0, [r8]
1000170c:	f083 0301 	eor.w	r3, r3, #1
10001710:	f888 3001 	strb.w	r3, [r8, #1]
10001714:	ec43 0040 	gpioc_bit_out_put r0, r3
10001718:	f898 2004 	ldrb.w	r2, [r8, #4]
1000171c:	b1ea      	cbz	r2, 1000175a <_ZN4LEDS4testEh+0x5b2>
1000171e:	f8b8 1002 	ldrh.w	r1, [r8, #2]
10001722:	f8b8 4006 	ldrh.w	r4, [r8, #6]
10001726:	3101      	adds	r1, #1
10001728:	b289      	uxth	r1, r1
1000172a:	428c      	cmp	r4, r1
1000172c:	f8a8 1002 	strh.w	r1, [r8, #2]
10001730:	d213      	bcs.n	1000175a <_ZN4LEDS4testEh+0x5b2>
10001732:	f898 1008 	ldrb.w	r1, [r8, #8]
10001736:	ec41 0040 	gpioc_bit_out_put r0, r1
1000173a:	f081 0101 	eor.w	r1, r1, #1
1000173e:	f888 1008 	strb.w	r1, [r8, #8]
10001742:	2100      	movs	r1, #0
10001744:	2aff      	cmp	r2, #255	@ 0xff
10001746:	f8a8 1002 	strh.w	r1, [r8, #2]
1000174a:	d006      	beq.n	1000175a <_ZN4LEDS4testEh+0x5b2>
1000174c:	3a01      	subs	r2, #1
1000174e:	b2d2      	uxtb	r2, r2
10001750:	f888 2004 	strb.w	r2, [r8, #4]
10001754:	2a00      	cmp	r2, #0
10001756:	f000 815d 	beq.w	10001a14 <_ZN4LEDS4testEh+0x86c>
1000175a:	4638      	mov	r0, r7
1000175c:	f006 fba0 	bl	10007ea0 <sleep_ms>
10001760:	4bb1      	ldr	r3, [pc, #708]	@ (10001a28 <_ZN4LEDS4testEh+0x880>)
10001762:	461c      	mov	r4, r3
10001764:	7859      	ldrb	r1, [r3, #1]
10001766:	7818      	ldrb	r0, [r3, #0]
10001768:	f081 0101 	eor.w	r1, r1, #1
1000176c:	7059      	strb	r1, [r3, #1]
1000176e:	f000 fd79 	bl	10002264 <_ZN8ShiftReg7set_bitE4Pinsb>
10001772:	f000 fd6f 	bl	10002254 <_ZN8ShiftReg6updateEv>
10001776:	4638      	mov	r0, r7
10001778:	f006 fb92 	bl	10007ea0 <sleep_ms>
1000177c:	7861      	ldrb	r1, [r4, #1]
1000177e:	7820      	ldrb	r0, [r4, #0]
10001780:	f081 0101 	eor.w	r1, r1, #1
10001784:	7061      	strb	r1, [r4, #1]
10001786:	f000 fd6d 	bl	10002264 <_ZN8ShiftReg7set_bitE4Pinsb>
1000178a:	f000 fd63 	bl	10002254 <_ZN8ShiftReg6updateEv>
1000178e:	4638      	mov	r0, r7
10001790:	f006 fb86 	bl	10007ea0 <sleep_ms>
10001794:	4ba5      	ldr	r3, [pc, #660]	@ (10001a2c <_ZN4LEDS4testEh+0x884>)
10001796:	461c      	mov	r4, r3
10001798:	7859      	ldrb	r1, [r3, #1]
1000179a:	7818      	ldrb	r0, [r3, #0]
1000179c:	f081 0101 	eor.w	r1, r1, #1
100017a0:	7059      	strb	r1, [r3, #1]
100017a2:	f000 fd5f 	bl	10002264 <_ZN8ShiftReg7set_bitE4Pinsb>
100017a6:	f000 fd55 	bl	10002254 <_ZN8ShiftReg6updateEv>
100017aa:	4638      	mov	r0, r7
100017ac:	f006 fb78 	bl	10007ea0 <sleep_ms>
100017b0:	7861      	ldrb	r1, [r4, #1]
100017b2:	7820      	ldrb	r0, [r4, #0]
100017b4:	f081 0101 	eor.w	r1, r1, #1
100017b8:	7061      	strb	r1, [r4, #1]
100017ba:	f000 fd53 	bl	10002264 <_ZN8ShiftReg7set_bitE4Pinsb>
100017be:	f000 fd49 	bl	10002254 <_ZN8ShiftReg6updateEv>
100017c2:	4638      	mov	r0, r7
100017c4:	f006 fb6c 	bl	10007ea0 <sleep_ms>
100017c8:	4b99      	ldr	r3, [pc, #612]	@ (10001a30 <_ZN4LEDS4testEh+0x888>)
100017ca:	461c      	mov	r4, r3
100017cc:	7859      	ldrb	r1, [r3, #1]
100017ce:	7818      	ldrb	r0, [r3, #0]
100017d0:	f081 0101 	eor.w	r1, r1, #1
100017d4:	7059      	strb	r1, [r3, #1]
100017d6:	f000 fd45 	bl	10002264 <_ZN8ShiftReg7set_bitE4Pinsb>
100017da:	f000 fd3b 	bl	10002254 <_ZN8ShiftReg6updateEv>
100017de:	4638      	mov	r0, r7
100017e0:	f006 fb5e 	bl	10007ea0 <sleep_ms>
100017e4:	7861      	ldrb	r1, [r4, #1]
100017e6:	7820      	ldrb	r0, [r4, #0]
100017e8:	f081 0101 	eor.w	r1, r1, #1
100017ec:	7061      	strb	r1, [r4, #1]
100017ee:	f000 fd39 	bl	10002264 <_ZN8ShiftReg7set_bitE4Pinsb>
100017f2:	f000 fd2f 	bl	10002254 <_ZN8ShiftReg6updateEv>
100017f6:	4638      	mov	r0, r7
100017f8:	f006 fb52 	bl	10007ea0 <sleep_ms>
100017fc:	4b8d      	ldr	r3, [pc, #564]	@ (10001a34 <_ZN4LEDS4testEh+0x88c>)
100017fe:	461c      	mov	r4, r3
10001800:	7859      	ldrb	r1, [r3, #1]
10001802:	7818      	ldrb	r0, [r3, #0]
10001804:	f081 0101 	eor.w	r1, r1, #1
10001808:	7059      	strb	r1, [r3, #1]
1000180a:	f000 fd2b 	bl	10002264 <_ZN8ShiftReg7set_bitE4Pinsb>
1000180e:	f000 fd21 	bl	10002254 <_ZN8ShiftReg6updateEv>
10001812:	4638      	mov	r0, r7
10001814:	f006 fb44 	bl	10007ea0 <sleep_ms>
10001818:	7861      	ldrb	r1, [r4, #1]
1000181a:	7820      	ldrb	r0, [r4, #0]
1000181c:	f081 0101 	eor.w	r1, r1, #1
10001820:	7061      	strb	r1, [r4, #1]
10001822:	f000 fd1f 	bl	10002264 <_ZN8ShiftReg7set_bitE4Pinsb>
10001826:	f000 fd15 	bl	10002254 <_ZN8ShiftReg6updateEv>
1000182a:	4638      	mov	r0, r7
1000182c:	f006 fb38 	bl	10007ea0 <sleep_ms>
10001830:	4b81      	ldr	r3, [pc, #516]	@ (10001a38 <_ZN4LEDS4testEh+0x890>)
10001832:	461c      	mov	r4, r3
10001834:	7859      	ldrb	r1, [r3, #1]
10001836:	7818      	ldrb	r0, [r3, #0]
10001838:	f081 0101 	eor.w	r1, r1, #1
1000183c:	7059      	strb	r1, [r3, #1]
1000183e:	f000 fd11 	bl	10002264 <_ZN8ShiftReg7set_bitE4Pinsb>
10001842:	f000 fd07 	bl	10002254 <_ZN8ShiftReg6updateEv>
10001846:	4638      	mov	r0, r7
10001848:	f006 fb2a 	bl	10007ea0 <sleep_ms>
1000184c:	7861      	ldrb	r1, [r4, #1]
1000184e:	7820      	ldrb	r0, [r4, #0]
10001850:	f081 0101 	eor.w	r1, r1, #1
10001854:	7061      	strb	r1, [r4, #1]
10001856:	f000 fd05 	bl	10002264 <_ZN8ShiftReg7set_bitE4Pinsb>
1000185a:	f000 fcfb 	bl	10002254 <_ZN8ShiftReg6updateEv>
1000185e:	4638      	mov	r0, r7
10001860:	f006 fb1e 	bl	10007ea0 <sleep_ms>
10001864:	4b75      	ldr	r3, [pc, #468]	@ (10001a3c <_ZN4LEDS4testEh+0x894>)
10001866:	461c      	mov	r4, r3
10001868:	7859      	ldrb	r1, [r3, #1]
1000186a:	7818      	ldrb	r0, [r3, #0]
1000186c:	f081 0101 	eor.w	r1, r1, #1
10001870:	7059      	strb	r1, [r3, #1]
10001872:	f000 fcf7 	bl	10002264 <_ZN8ShiftReg7set_bitE4Pinsb>
10001876:	f000 fced 	bl	10002254 <_ZN8ShiftReg6updateEv>
1000187a:	4638      	mov	r0, r7
1000187c:	f006 fb10 	bl	10007ea0 <sleep_ms>
10001880:	7861      	ldrb	r1, [r4, #1]
10001882:	7820      	ldrb	r0, [r4, #0]
10001884:	f081 0101 	eor.w	r1, r1, #1
10001888:	7061      	strb	r1, [r4, #1]
1000188a:	f000 fceb 	bl	10002264 <_ZN8ShiftReg7set_bitE4Pinsb>
1000188e:	f000 fce1 	bl	10002254 <_ZN8ShiftReg6updateEv>
10001892:	4638      	mov	r0, r7
10001894:	f006 fb04 	bl	10007ea0 <sleep_ms>
10001898:	4b69      	ldr	r3, [pc, #420]	@ (10001a40 <_ZN4LEDS4testEh+0x898>)
1000189a:	461c      	mov	r4, r3
1000189c:	7859      	ldrb	r1, [r3, #1]
1000189e:	7818      	ldrb	r0, [r3, #0]
100018a0:	f081 0101 	eor.w	r1, r1, #1
100018a4:	7059      	strb	r1, [r3, #1]
100018a6:	f000 fcdd 	bl	10002264 <_ZN8ShiftReg7set_bitE4Pinsb>
100018aa:	f000 fcd3 	bl	10002254 <_ZN8ShiftReg6updateEv>
100018ae:	4638      	mov	r0, r7
100018b0:	f006 faf6 	bl	10007ea0 <sleep_ms>
100018b4:	7861      	ldrb	r1, [r4, #1]
100018b6:	7820      	ldrb	r0, [r4, #0]
100018b8:	f081 0101 	eor.w	r1, r1, #1
100018bc:	7061      	strb	r1, [r4, #1]
100018be:	f000 fcd1 	bl	10002264 <_ZN8ShiftReg7set_bitE4Pinsb>
100018c2:	f000 fcc7 	bl	10002254 <_ZN8ShiftReg6updateEv>
100018c6:	4638      	mov	r0, r7
100018c8:	f006 faea 	bl	10007ea0 <sleep_ms>
100018cc:	f89b 3001 	ldrb.w	r3, [fp, #1]
100018d0:	f89b 0000 	ldrb.w	r0, [fp]
100018d4:	f083 0301 	eor.w	r3, r3, #1
100018d8:	f88b 3001 	strb.w	r3, [fp, #1]
100018dc:	ec43 0040 	gpioc_bit_out_put r0, r3
100018e0:	f89b 2004 	ldrb.w	r2, [fp, #4]
100018e4:	b1e2      	cbz	r2, 10001920 <_ZN4LEDS4testEh+0x778>
100018e6:	f8bb 1002 	ldrh.w	r1, [fp, #2]
100018ea:	f8bb 4006 	ldrh.w	r4, [fp, #6]
100018ee:	3101      	adds	r1, #1
100018f0:	b289      	uxth	r1, r1
100018f2:	428c      	cmp	r4, r1
100018f4:	f8ab 1002 	strh.w	r1, [fp, #2]
100018f8:	d212      	bcs.n	10001920 <_ZN4LEDS4testEh+0x778>
100018fa:	f89b 1008 	ldrb.w	r1, [fp, #8]
100018fe:	ec41 0040 	gpioc_bit_out_put r0, r1
10001902:	f081 0101 	eor.w	r1, r1, #1
10001906:	f88b 1008 	strb.w	r1, [fp, #8]
1000190a:	2100      	movs	r1, #0
1000190c:	2aff      	cmp	r2, #255	@ 0xff
1000190e:	f8ab 1002 	strh.w	r1, [fp, #2]
10001912:	d005      	beq.n	10001920 <_ZN4LEDS4testEh+0x778>
10001914:	3a01      	subs	r2, #1
10001916:	b2d2      	uxtb	r2, r2
10001918:	f88b 2004 	strb.w	r2, [fp, #4]
1000191c:	2a00      	cmp	r2, #0
1000191e:	d07e      	beq.n	10001a1e <_ZN4LEDS4testEh+0x876>
10001920:	4638      	mov	r0, r7
10001922:	f006 fabd 	bl	10007ea0 <sleep_ms>
10001926:	f89b 3001 	ldrb.w	r3, [fp, #1]
1000192a:	f89b 0000 	ldrb.w	r0, [fp]
1000192e:	f083 0301 	eor.w	r3, r3, #1
10001932:	f88b 3001 	strb.w	r3, [fp, #1]
10001936:	ec43 0040 	gpioc_bit_out_put r0, r3
1000193a:	f89b 2004 	ldrb.w	r2, [fp, #4]
1000193e:	b1fa      	cbz	r2, 10001980 <_ZN4LEDS4testEh+0x7d8>
10001940:	f8bb 1002 	ldrh.w	r1, [fp, #2]
10001944:	f8bb 4006 	ldrh.w	r4, [fp, #6]
10001948:	3101      	adds	r1, #1
1000194a:	b289      	uxth	r1, r1
1000194c:	428c      	cmp	r4, r1
1000194e:	f8ab 1002 	strh.w	r1, [fp, #2]
10001952:	d215      	bcs.n	10001980 <_ZN4LEDS4testEh+0x7d8>
10001954:	f89b 1008 	ldrb.w	r1, [fp, #8]
10001958:	ec41 0040 	gpioc_bit_out_put r0, r1
1000195c:	f081 0101 	eor.w	r1, r1, #1
10001960:	f88b 1008 	strb.w	r1, [fp, #8]
10001964:	2100      	movs	r1, #0
10001966:	2aff      	cmp	r2, #255	@ 0xff
10001968:	f8ab 1002 	strh.w	r1, [fp, #2]
1000196c:	d008      	beq.n	10001980 <_ZN4LEDS4testEh+0x7d8>
1000196e:	3a01      	subs	r2, #1
10001970:	b2d2      	uxtb	r2, r2
10001972:	f88b 2004 	strb.w	r2, [fp, #4]
10001976:	b91a      	cbnz	r2, 10001980 <_ZN4LEDS4testEh+0x7d8>
10001978:	f8ab 2006 	strh.w	r2, [fp, #6]
1000197c:	ec43 0040 	gpioc_bit_out_put r0, r3
10001980:	4638      	mov	r0, r7
10001982:	b005      	add	sp, #20
10001984:	ecbd 8b02 	vpop	{d8}
10001988:	e8bd 4ff0 	ldmia.w	sp!, {r4, r5, r6, r7, r8, r9, sl, fp, lr}
1000198c:	f006 ba88 	b.w	10007ea0 <sleep_ms>
10001990:	f899 1008 	ldrb.w	r1, [r9, #8]
10001994:	ec41 0040 	gpioc_bit_out_put r0, r1
10001998:	f081 0101 	eor.w	r1, r1, #1
1000199c:	f889 1008 	strb.w	r1, [r9, #8]
100019a0:	2100      	movs	r1, #0
100019a2:	2aff      	cmp	r2, #255	@ 0xff
100019a4:	f8a9 1002 	strh.w	r1, [r9, #2]
100019a8:	f43f adbe 	beq.w	10001528 <_ZN4LEDS4testEh+0x380>
100019ac:	3a01      	subs	r2, #1
100019ae:	b2d2      	uxtb	r2, r2
100019b0:	f889 2004 	strb.w	r2, [r9, #4]
100019b4:	2a00      	cmp	r2, #0
100019b6:	f47f adb7 	bne.w	10001528 <_ZN4LEDS4testEh+0x380>
100019ba:	f8a9 2006 	strh.w	r2, [r9, #6]
100019be:	ec43 0040 	gpioc_bit_out_put r0, r3
100019c2:	e5b1      	b.n	10001528 <_ZN4LEDS4testEh+0x380>
100019c4:	f8ab 2006 	strh.w	r2, [fp, #6]
100019c8:	ec43 4040 	gpioc_bit_out_put r4, r3
100019cc:	e41f      	b.n	1000120e <_ZN4LEDS4testEh+0x66>
100019ce:	f8ab 2006 	strh.w	r2, [fp, #6]
100019d2:	ec43 0040 	gpioc_bit_out_put r0, r3
100019d6:	e448      	b.n	1000126a <_ZN4LEDS4testEh+0xc2>
100019d8:	f8a8 2006 	strh.w	r2, [r8, #6]
100019dc:	ec43 0040 	gpioc_bit_out_put r0, r3
100019e0:	e529      	b.n	10001436 <_ZN4LEDS4testEh+0x28e>
100019e2:	f8a8 2006 	strh.w	r2, [r8, #6]
100019e6:	ec43 0040 	gpioc_bit_out_put r0, r3
100019ea:	e552      	b.n	10001492 <_ZN4LEDS4testEh+0x2ea>
100019ec:	f8a9 2006 	strh.w	r2, [r9, #6]
100019f0:	ec43 0040 	gpioc_bit_out_put r0, r3
100019f4:	e57d      	b.n	100014f2 <_ZN4LEDS4testEh+0x34a>
100019f6:	f8a9 5006 	strh.w	r5, [r9, #6]
100019fa:	ec43 0040 	gpioc_bit_out_put r0, r3
100019fe:	e622      	b.n	10001646 <_ZN4LEDS4testEh+0x49e>
10001a00:	f8a9 2006 	strh.w	r2, [r9, #6]
10001a04:	ec43 0040 	gpioc_bit_out_put r0, r3
10001a08:	e64b      	b.n	100016a2 <_ZN4LEDS4testEh+0x4fa>
10001a0a:	f8a8 2006 	strh.w	r2, [r8, #6]
10001a0e:	ec43 0040 	gpioc_bit_out_put r0, r3
10001a12:	e674      	b.n	100016fe <_ZN4LEDS4testEh+0x556>
10001a14:	f8a8 2006 	strh.w	r2, [r8, #6]
10001a18:	ec43 0040 	gpioc_bit_out_put r0, r3
10001a1c:	e69d      	b.n	1000175a <_ZN4LEDS4testEh+0x5b2>
10001a1e:	f8ab 2006 	strh.w	r2, [fp, #6]
10001a22:	ec43 0040 	gpioc_bit_out_put r0, r3
10001a26:	e77b      	b.n	10001920 <_ZN4LEDS4testEh+0x778>
10001a28:	20003ec4 	.word	0x20003ec4
10001a2c:	20003eb8 	.word	0x20003eb8
10001a30:	20003eac 	.word	0x20003eac
10001a34:	20003ea0 	.word	0x20003ea0
10001a38:	20003e94 	.word	0x20003e94
10001a3c:	20003e88 	.word	0x20003e88
10001a40:	20003e7c 	.word	0x20003e7c

10001a44 <_ZN4LEDS6updateEv>:
10001a44:	b510      	push	{r4, lr}
10001a46:	4b3c      	ldr	r3, [pc, #240]	@ (10001b38 <_ZN4LEDS6updateEv+0xf4>)
10001a48:	7919      	ldrb	r1, [r3, #4]
10001a4a:	b1b1      	cbz	r1, 10001a7a <_ZN4LEDS6updateEv+0x36>
10001a4c:	885a      	ldrh	r2, [r3, #2]
10001a4e:	88d8      	ldrh	r0, [r3, #6]
10001a50:	3201      	adds	r2, #1
10001a52:	b292      	uxth	r2, r2
10001a54:	4290      	cmp	r0, r2
10001a56:	805a      	strh	r2, [r3, #2]
10001a58:	d20f      	bcs.n	10001a7a <_ZN4LEDS6updateEv+0x36>
10001a5a:	7a1a      	ldrb	r2, [r3, #8]
10001a5c:	7818      	ldrb	r0, [r3, #0]
10001a5e:	ec42 0040 	gpioc_bit_out_put r0, r2
10001a62:	2400      	movs	r4, #0
10001a64:	f082 0201 	eor.w	r2, r2, #1
10001a68:	29ff      	cmp	r1, #255	@ 0xff
10001a6a:	721a      	strb	r2, [r3, #8]
10001a6c:	805c      	strh	r4, [r3, #2]
10001a6e:	d004      	beq.n	10001a7a <_ZN4LEDS6updateEv+0x36>
10001a70:	3901      	subs	r1, #1
10001a72:	b2c9      	uxtb	r1, r1
10001a74:	7119      	strb	r1, [r3, #4]
10001a76:	2900      	cmp	r1, #0
10001a78:	d04c      	beq.n	10001b14 <_ZN4LEDS6updateEv+0xd0>
10001a7a:	4b30      	ldr	r3, [pc, #192]	@ (10001b3c <_ZN4LEDS6updateEv+0xf8>)
10001a7c:	7919      	ldrb	r1, [r3, #4]
10001a7e:	b1b1      	cbz	r1, 10001aae <_ZN4LEDS6updateEv+0x6a>
10001a80:	885a      	ldrh	r2, [r3, #2]
10001a82:	88d8      	ldrh	r0, [r3, #6]
10001a84:	3201      	adds	r2, #1
10001a86:	b292      	uxth	r2, r2
10001a88:	4290      	cmp	r0, r2
10001a8a:	805a      	strh	r2, [r3, #2]
10001a8c:	d20f      	bcs.n	10001aae <_ZN4LEDS6updateEv+0x6a>
10001a8e:	7a1a      	ldrb	r2, [r3, #8]
10001a90:	7818      	ldrb	r0, [r3, #0]
10001a92:	ec42 0040 	gpioc_bit_out_put r0, r2
10001a96:	2400      	movs	r4, #0
10001a98:	f082 0201 	eor.w	r2, r2, #1
10001a9c:	29ff      	cmp	r1, #255	@ 0xff
10001a9e:	721a      	strb	r2, [r3, #8]
10001aa0:	805c      	strh	r4, [r3, #2]
10001aa2:	d004      	beq.n	10001aae <_ZN4LEDS6updateEv+0x6a>
10001aa4:	3901      	subs	r1, #1
10001aa6:	b2c9      	uxtb	r1, r1
10001aa8:	7119      	strb	r1, [r3, #4]
10001aaa:	2900      	cmp	r1, #0
10001aac:	d037      	beq.n	10001b1e <_ZN4LEDS6updateEv+0xda>
10001aae:	4c24      	ldr	r4, [pc, #144]	@ (10001b40 <_ZN4LEDS6updateEv+0xfc>)
10001ab0:	f894 3022 	ldrb.w	r3, [r4, #34]	@ 0x22
10001ab4:	b32b      	cbz	r3, 10001b02 <_ZN4LEDS6updateEv+0xbe>
10001ab6:	8c23      	ldrh	r3, [r4, #32]
10001ab8:	8ca2      	ldrh	r2, [r4, #36]	@ 0x24
10001aba:	3301      	adds	r3, #1
10001abc:	b29b      	uxth	r3, r3
10001abe:	429a      	cmp	r2, r3
10001ac0:	8423      	strh	r3, [r4, #32]
10001ac2:	d21e      	bcs.n	10001b02 <_ZN4LEDS6updateEv+0xbe>
10001ac4:	f894 3026 	ldrb.w	r3, [r4, #38]	@ 0x26
10001ac8:	bb0b      	cbnz	r3, 10001b0e <_ZN4LEDS6updateEv+0xca>
10001aca:	f000 fae3 	bl	10002094 <_ZN7RGB_LED3offEv>
10001ace:	f000 fa6f 	bl	10001fb0 <_ZN7RGB_LED6updateEv>
10001ad2:	2100      	movs	r1, #0
10001ad4:	f894 2026 	ldrb.w	r2, [r4, #38]	@ 0x26
10001ad8:	f894 3022 	ldrb.w	r3, [r4, #34]	@ 0x22
10001adc:	f082 0201 	eor.w	r2, r2, #1
10001ae0:	2bff      	cmp	r3, #255	@ 0xff
10001ae2:	f884 2026 	strb.w	r2, [r4, #38]	@ 0x26
10001ae6:	8421      	strh	r1, [r4, #32]
10001ae8:	d00b      	beq.n	10001b02 <_ZN4LEDS6updateEv+0xbe>
10001aea:	3b01      	subs	r3, #1
10001aec:	b2db      	uxtb	r3, r3
10001aee:	f884 3022 	strb.w	r3, [r4, #34]	@ 0x22
10001af2:	b933      	cbnz	r3, 10001b02 <_ZN4LEDS6updateEv+0xbe>
10001af4:	7fa2      	ldrb	r2, [r4, #30]
10001af6:	84a3      	strh	r3, [r4, #36]	@ 0x24
10001af8:	b9b2      	cbnz	r2, 10001b28 <_ZN4LEDS6updateEv+0xe4>
10001afa:	f000 facb 	bl	10002094 <_ZN7RGB_LED3offEv>
10001afe:	f000 fa57 	bl	10001fb0 <_ZN7RGB_LED6updateEv>
10001b02:	f000 fba7 	bl	10002254 <_ZN8ShiftReg6updateEv>
10001b06:	e8bd 4010 	ldmia.w	sp!, {r4, lr}
10001b0a:	f7fe beb5 	b.w	10000878 <_ZN3ADC12isBatteryLowEv>
10001b0e:	f000 fa43 	bl	10001f98 <_ZN7RGB_LED2onEv>
10001b12:	e7dc      	b.n	10001ace <_ZN4LEDS6updateEv+0x8a>
10001b14:	80d9      	strh	r1, [r3, #6]
10001b16:	785b      	ldrb	r3, [r3, #1]
10001b18:	ec43 0040 	gpioc_bit_out_put r0, r3
10001b1c:	e7ad      	b.n	10001a7a <_ZN4LEDS6updateEv+0x36>
10001b1e:	80d9      	strh	r1, [r3, #6]
10001b20:	785b      	ldrb	r3, [r3, #1]
10001b22:	ec43 0040 	gpioc_bit_out_put r0, r3
10001b26:	e7c2      	b.n	10001aae <_ZN4LEDS6updateEv+0x6a>
10001b28:	f000 fa36 	bl	10001f98 <_ZN7RGB_LED2onEv>
10001b2c:	f000 fa40 	bl	10001fb0 <_ZN7RGB_LED6updateEv>
10001b30:	7fa3      	ldrb	r3, [r4, #30]
10001b32:	2b00      	cmp	r3, #0
10001b34:	d1e5      	bne.n	10001b02 <_ZN4LEDS6updateEv+0xbe>
10001b36:	e7e0      	b.n	10001afa <_ZN4LEDS6updateEv+0xb6>
10001b38:	20003e4c 	.word	0x20003e4c
10001b3c:	20003e40 	.word	0x20003e40
10001b40:	20003ed0 	.word	0x20003ed0

10001b44 <_GLOBAL__sub_I__ZN4LEDS4PICOE>:
10001b44:	2019      	movs	r0, #25
10001b46:	2115      	movs	r1, #21
10001b48:	2216      	movs	r2, #22
10001b4a:	4b19      	ldr	r3, [pc, #100]	@ (10001bb0 <_GLOBAL__sub_I__ZN4LEDS4PICOE+0x6c>)
10001b4c:	b570      	push	{r4, r5, r6, lr}
10001b4e:	7018      	strb	r0, [r3, #0]
10001b50:	4b18      	ldr	r3, [pc, #96]	@ (10001bb4 <_GLOBAL__sub_I__ZN4LEDS4PICOE+0x70>)
10001b52:	f04f 0c0f 	mov.w	ip, #15
10001b56:	7019      	strb	r1, [r3, #0]
10001b58:	2101      	movs	r1, #1
10001b5a:	4b17      	ldr	r3, [pc, #92]	@ (10001bb8 <_GLOBAL__sub_I__ZN4LEDS4PICOE+0x74>)
10001b5c:	f04f 0e80 	mov.w	lr, #128	@ 0x80
10001b60:	701a      	strb	r2, [r3, #0]
10001b62:	2202      	movs	r2, #2
10001b64:	4b15      	ldr	r3, [pc, #84]	@ (10001bbc <_GLOBAL__sub_I__ZN4LEDS4PICOE+0x78>)
10001b66:	4c16      	ldr	r4, [pc, #88]	@ (10001bc0 <_GLOBAL__sub_I__ZN4LEDS4PICOE+0x7c>)
10001b68:	7019      	strb	r1, [r3, #0]
10001b6a:	2104      	movs	r1, #4
10001b6c:	4b15      	ldr	r3, [pc, #84]	@ (10001bc4 <_GLOBAL__sub_I__ZN4LEDS4PICOE+0x80>)
10001b6e:	4d16      	ldr	r5, [pc, #88]	@ (10001bc8 <_GLOBAL__sub_I__ZN4LEDS4PICOE+0x84>)
10001b70:	701a      	strb	r2, [r3, #0]
10001b72:	2208      	movs	r2, #8
10001b74:	4b15      	ldr	r3, [pc, #84]	@ (10001bcc <_GLOBAL__sub_I__ZN4LEDS4PICOE+0x88>)
10001b76:	4e16      	ldr	r6, [pc, #88]	@ (10001bd0 <_GLOBAL__sub_I__ZN4LEDS4PICOE+0x8c>)
10001b78:	7019      	strb	r1, [r3, #0]
10001b7a:	2170      	movs	r1, #112	@ 0x70
10001b7c:	4b15      	ldr	r3, [pc, #84]	@ (10001bd4 <_GLOBAL__sub_I__ZN4LEDS4PICOE+0x90>)
10001b7e:	f886 e000 	strb.w	lr, [r6]
10001b82:	701a      	strb	r2, [r3, #0]
10001b84:	2210      	movs	r2, #16
10001b86:	4b14      	ldr	r3, [pc, #80]	@ (10001bd8 <_GLOBAL__sub_I__ZN4LEDS4PICOE+0x94>)
10001b88:	7019      	strb	r1, [r3, #0]
10001b8a:	2120      	movs	r1, #32
10001b8c:	4b13      	ldr	r3, [pc, #76]	@ (10001bdc <_GLOBAL__sub_I__ZN4LEDS4PICOE+0x98>)
10001b8e:	701a      	strb	r2, [r3, #0]
10001b90:	2240      	movs	r2, #64	@ 0x40
10001b92:	4b13      	ldr	r3, [pc, #76]	@ (10001be0 <_GLOBAL__sub_I__ZN4LEDS4PICOE+0x9c>)
10001b94:	7019      	strb	r1, [r3, #0]
10001b96:	4b13      	ldr	r3, [pc, #76]	@ (10001be4 <_GLOBAL__sub_I__ZN4LEDS4PICOE+0xa0>)
10001b98:	701a      	strb	r2, [r3, #0]
10001b9a:	cd0f      	ldmia	r5!, {r0, r1, r2, r3}
10001b9c:	c40f      	stmia	r4!, {r0, r1, r2, r3}
10001b9e:	e895 0003 	ldmia.w	r5, {r0, r1}
10001ba2:	4b11      	ldr	r3, [pc, #68]	@ (10001be8 <_GLOBAL__sub_I__ZN4LEDS4PICOE+0xa4>)
10001ba4:	e884 0003 	stmia.w	r4, {r0, r1}
10001ba8:	f883 c000 	strb.w	ip, [r3]
10001bac:	bd70      	pop	{r4, r5, r6, pc}
10001bae:	bf00      	nop
10001bb0:	20003e34 	.word	0x20003e34
10001bb4:	20003e40 	.word	0x20003e40
10001bb8:	20003e4c 	.word	0x20003e4c
10001bbc:	20003e7c 	.word	0x20003e7c
10001bc0:	20003ed0 	.word	0x20003ed0
10001bc4:	20003e88 	.word	0x20003e88
10001bc8:	1000df4c 	.word	0x1000df4c
10001bcc:	20003e94 	.word	0x20003e94
10001bd0:	20003e70 	.word	0x20003e70
10001bd4:	20003ea0 	.word	0x20003ea0
10001bd8:	20003e64 	.word	0x20003e64
10001bdc:	20003eac 	.word	0x20003eac
10001be0:	20003eb8 	.word	0x20003eb8
10001be4:	20003ec4 	.word	0x20003ec4
10001be8:	20003e58 	.word	0x20003e58

10001bec <_ZN3MUX4initEv>:
10001bec:	e92d 41f0 	stmdb	sp!, {r4, r5, r6, r7, r8, lr}
10001bf0:	200c      	movs	r0, #12
10001bf2:	f005 fa7f 	bl	100070f4 <gpio_init>
10001bf6:	270c      	movs	r7, #12
10001bf8:	f04f 0801 	mov.w	r8, #1
10001bfc:	ec48 7044 	gpioc_bit_oe_put r7, r8
10001c00:	2100      	movs	r1, #0
10001c02:	4638      	mov	r0, r7
10001c04:	f005 fa48 	bl	10007098 <gpio_set_slew_rate>
10001c08:	2100      	movs	r1, #0
10001c0a:	4638      	mov	r0, r7
10001c0c:	f005 fa52 	bl	100070b4 <gpio_set_drive_strength>
10001c10:	200d      	movs	r0, #13
10001c12:	f005 fa6f 	bl	100070f4 <gpio_init>
10001c16:	260d      	movs	r6, #13
10001c18:	ec48 6044 	gpioc_bit_oe_put r6, r8
10001c1c:	2100      	movs	r1, #0
10001c1e:	4630      	mov	r0, r6
10001c20:	f005 fa3a 	bl	10007098 <gpio_set_slew_rate>
10001c24:	2100      	movs	r1, #0
10001c26:	4630      	mov	r0, r6
10001c28:	f005 fa44 	bl	100070b4 <gpio_set_drive_strength>
10001c2c:	200e      	movs	r0, #14
10001c2e:	f005 fa61 	bl	100070f4 <gpio_init>
10001c32:	250e      	movs	r5, #14
10001c34:	ec48 5044 	gpioc_bit_oe_put r5, r8
10001c38:	2100      	movs	r1, #0
10001c3a:	4628      	mov	r0, r5
10001c3c:	f005 fa2c 	bl	10007098 <gpio_set_slew_rate>
10001c40:	2100      	movs	r1, #0
10001c42:	4628      	mov	r0, r5
10001c44:	f005 fa36 	bl	100070b4 <gpio_set_drive_strength>
10001c48:	200f      	movs	r0, #15
10001c4a:	f005 fa53 	bl	100070f4 <gpio_init>
10001c4e:	240f      	movs	r4, #15
10001c50:	ec48 4044 	gpioc_bit_oe_put r4, r8
10001c54:	2100      	movs	r1, #0
10001c56:	4620      	mov	r0, r4
10001c58:	f005 fa1e 	bl	10007098 <gpio_set_slew_rate>
10001c5c:	2100      	movs	r1, #0
10001c5e:	4620      	mov	r0, r4
10001c60:	f005 fa28 	bl	100070b4 <gpio_set_drive_strength>
10001c64:	4b09      	ldr	r3, [pc, #36]	@ (10001c8c <_ZN3MUX4initEv+0xa0>)
10001c66:	781b      	ldrb	r3, [r3, #0]
10001c68:	ea03 0208 	and.w	r2, r3, r8
10001c6c:	ec42 7040 	gpioc_bit_out_put r7, r2
10001c70:	f3c3 0240 	ubfx	r2, r3, #1, #1
10001c74:	ec42 6040 	gpioc_bit_out_put r6, r2
10001c78:	f3c3 0280 	ubfx	r2, r3, #2, #1
10001c7c:	ec42 5040 	gpioc_bit_out_put r5, r2
10001c80:	f3c3 03c0 	ubfx	r3, r3, #3, #1
10001c84:	ec43 4040 	gpioc_bit_out_put r4, r3
10001c88:	e8bd 81f0 	ldmia.w	sp!, {r4, r5, r6, r7, r8, pc}
10001c8c:	20030029 	.word	0x20030029

10001c90 <_ZN3MUX16incrementAddressEv>:
10001c90:	490c      	ldr	r1, [pc, #48]	@ (10001cc4 <_ZN3MUX16incrementAddressEv+0x34>)
10001c92:	200c      	movs	r0, #12
10001c94:	780a      	ldrb	r2, [r1, #0]
10001c96:	3201      	adds	r2, #1
10001c98:	f002 030f 	and.w	r3, r2, #15
10001c9c:	700b      	strb	r3, [r1, #0]
10001c9e:	f002 0201 	and.w	r2, r2, #1
10001ca2:	ec42 0040 	gpioc_bit_out_put r0, r2
10001ca6:	220d      	movs	r2, #13
10001ca8:	f3c3 0140 	ubfx	r1, r3, #1, #1
10001cac:	ec41 2040 	gpioc_bit_out_put r2, r1
10001cb0:	220e      	movs	r2, #14
10001cb2:	f3c3 0180 	ubfx	r1, r3, #2, #1
10001cb6:	ec41 2040 	gpioc_bit_out_put r2, r1
10001cba:	220f      	movs	r2, #15
10001cbc:	08db      	lsrs	r3, r3, #3
10001cbe:	ec43 2040 	gpioc_bit_out_put r2, r3
10001cc2:	4770      	bx	lr
10001cc4:	20030029 	.word	0x20030029

10001cc8 <_ZN3MUX10getAddressEv>:
10001cc8:	4b01      	ldr	r3, [pc, #4]	@ (10001cd0 <_ZN3MUX10getAddressEv+0x8>)
10001cca:	7818      	ldrb	r0, [r3, #0]
10001ccc:	4770      	bx	lr
10001cce:	bf00      	nop
10001cd0:	20030029 	.word	0x20030029

10001cd4 <_ZN7RGB_LED4initEv>:
10001cd4:	b5f8      	push	{r3, r4, r5, r6, r7, lr}
10001cd6:	4cae      	ldr	r4, [pc, #696]	@ (10001f90 <_ZN7RGB_LED4initEv+0x2bc>)
10001cd8:	7826      	ldrb	r6, [r4, #0]
10001cda:	2e1f      	cmp	r6, #31
10001cdc:	f200 8127 	bhi.w	10001f2e <_ZN7RGB_LED4initEv+0x25a>
10001ce0:	4630      	mov	r0, r6
10001ce2:	2104      	movs	r1, #4
10001ce4:	f005 f9a2 	bl	1000702c <gpio_set_function>
10001ce8:	4630      	mov	r0, r6
10001cea:	2100      	movs	r1, #0
10001cec:	f005 f9d4 	bl	10007098 <gpio_set_slew_rate>
10001cf0:	2100      	movs	r1, #0
10001cf2:	4630      	mov	r0, r6
10001cf4:	f3c6 0542 	ubfx	r5, r6, #1, #3
10001cf8:	f005 f9dc 	bl	100070b4 <gpio_set_drive_strength>
10001cfc:	49a5      	ldr	r1, [pc, #660]	@ (10001f94 <_ZN7RGB_LED4initEv+0x2c0>)
10001cfe:	f016 0f01 	tst.w	r6, #1
10001d02:	f64f 70ff 	movw	r0, #65535	@ 0xffff
10001d06:	bf18      	it	ne
10001d08:	4608      	movne	r0, r1
10001d0a:	26d0      	movs	r6, #208	@ 0xd0
10001d0c:	27ff      	movs	r7, #255	@ 0xff
10001d0e:	eb05 0585 	add.w	r5, r5, r5, lsl #2
10001d12:	00ab      	lsls	r3, r5, #2
10001d14:	f103 4280 	add.w	r2, r3, #1073741824	@ 0x40000000
10001d18:	320c      	adds	r2, #12
10001d1a:	f502 2128 	add.w	r1, r2, #688128	@ 0xa8000
10001d1e:	6809      	ldr	r1, [r1, #0]
10001d20:	f502 2229 	add.w	r2, r2, #692224	@ 0xa9000
10001d24:	4001      	ands	r1, r0
10001d26:	6011      	str	r1, [r2, #0]
10001d28:	f103 4280 	add.w	r2, r3, #1073741824	@ 0x40000000
10001d2c:	f502 2228 	add.w	r2, r2, #688128	@ 0xa8000
10001d30:	6117      	str	r7, [r2, #16]
10001d32:	6056      	str	r6, [r2, #4]
10001d34:	6812      	ldr	r2, [r2, #0]
10001d36:	f103 4380 	add.w	r3, r3, #1073741824	@ 0x40000000
10001d3a:	43d2      	mvns	r2, r2
10001d3c:	f503 2329 	add.w	r3, r3, #692224	@ 0xa9000
10001d40:	f002 0201 	and.w	r2, r2, #1
10001d44:	601a      	str	r2, [r3, #0]
10001d46:	7866      	ldrb	r6, [r4, #1]
10001d48:	2e1f      	cmp	r6, #31
10001d4a:	f200 8110 	bhi.w	10001f6e <_ZN7RGB_LED4initEv+0x29a>
10001d4e:	4630      	mov	r0, r6
10001d50:	2104      	movs	r1, #4
10001d52:	f005 f96b 	bl	1000702c <gpio_set_function>
10001d56:	4630      	mov	r0, r6
10001d58:	2100      	movs	r1, #0
10001d5a:	f005 f99d 	bl	10007098 <gpio_set_slew_rate>
10001d5e:	2100      	movs	r1, #0
10001d60:	4630      	mov	r0, r6
10001d62:	f3c6 0542 	ubfx	r5, r6, #1, #3
10001d66:	f005 f9a5 	bl	100070b4 <gpio_set_drive_strength>
10001d6a:	f64f 71ff 	movw	r1, #65535	@ 0xffff
10001d6e:	f016 0f01 	tst.w	r6, #1
10001d72:	4888      	ldr	r0, [pc, #544]	@ (10001f94 <_ZN7RGB_LED4initEv+0x2c0>)
10001d74:	bf08      	it	eq
10001d76:	4608      	moveq	r0, r1
10001d78:	26d0      	movs	r6, #208	@ 0xd0
10001d7a:	27ff      	movs	r7, #255	@ 0xff
10001d7c:	eb05 0585 	add.w	r5, r5, r5, lsl #2
10001d80:	00ab      	lsls	r3, r5, #2
10001d82:	f103 4280 	add.w	r2, r3, #1073741824	@ 0x40000000
10001d86:	320c      	adds	r2, #12
10001d88:	f502 2128 	add.w	r1, r2, #688128	@ 0xa8000
10001d8c:	6809      	ldr	r1, [r1, #0]
10001d8e:	f502 2229 	add.w	r2, r2, #692224	@ 0xa9000
10001d92:	4001      	ands	r1, r0
10001d94:	6011      	str	r1, [r2, #0]
10001d96:	f103 4280 	add.w	r2, r3, #1073741824	@ 0x40000000
10001d9a:	f502 2228 	add.w	r2, r2, #688128	@ 0xa8000
10001d9e:	6117      	str	r7, [r2, #16]
10001da0:	6056      	str	r6, [r2, #4]
10001da2:	6812      	ldr	r2, [r2, #0]
10001da4:	f103 4380 	add.w	r3, r3, #1073741824	@ 0x40000000
10001da8:	43d2      	mvns	r2, r2
10001daa:	f503 2329 	add.w	r3, r3, #692224	@ 0xa9000
10001dae:	f002 0201 	and.w	r2, r2, #1
10001db2:	601a      	str	r2, [r3, #0]
10001db4:	78a6      	ldrb	r6, [r4, #2]
10001db6:	2e1f      	cmp	r6, #31
10001db8:	f200 80c9 	bhi.w	10001f4e <_ZN7RGB_LED4initEv+0x27a>
10001dbc:	4630      	mov	r0, r6
10001dbe:	2104      	movs	r1, #4
10001dc0:	f005 f934 	bl	1000702c <gpio_set_function>
10001dc4:	4630      	mov	r0, r6
10001dc6:	2100      	movs	r1, #0
10001dc8:	f005 f966 	bl	10007098 <gpio_set_slew_rate>
10001dcc:	2100      	movs	r1, #0
10001dce:	4630      	mov	r0, r6
10001dd0:	f3c6 0542 	ubfx	r5, r6, #1, #3
10001dd4:	f005 f96e 	bl	100070b4 <gpio_set_drive_strength>
10001dd8:	496e      	ldr	r1, [pc, #440]	@ (10001f94 <_ZN7RGB_LED4initEv+0x2c0>)
10001dda:	f016 0f01 	tst.w	r6, #1
10001dde:	f64f 70ff 	movw	r0, #65535	@ 0xffff
10001de2:	bf18      	it	ne
10001de4:	4608      	movne	r0, r1
10001de6:	27ff      	movs	r7, #255	@ 0xff
10001de8:	26d0      	movs	r6, #208	@ 0xd0
10001dea:	eb05 0585 	add.w	r5, r5, r5, lsl #2
10001dee:	00ab      	lsls	r3, r5, #2
10001df0:	f103 4280 	add.w	r2, r3, #1073741824	@ 0x40000000
10001df4:	320c      	adds	r2, #12
10001df6:	f502 2128 	add.w	r1, r2, #688128	@ 0xa8000
10001dfa:	6809      	ldr	r1, [r1, #0]
10001dfc:	f502 2229 	add.w	r2, r2, #692224	@ 0xa9000
10001e00:	4001      	ands	r1, r0
10001e02:	6011      	str	r1, [r2, #0]
10001e04:	f103 4280 	add.w	r2, r3, #1073741824	@ 0x40000000
10001e08:	f502 2228 	add.w	r2, r2, #688128	@ 0xa8000
10001e0c:	6117      	str	r7, [r2, #16]
10001e0e:	6056      	str	r6, [r2, #4]
10001e10:	6812      	ldr	r2, [r2, #0]
10001e12:	f103 4380 	add.w	r3, r3, #1073741824	@ 0x40000000
10001e16:	43d2      	mvns	r2, r2
10001e18:	f503 2329 	add.w	r3, r3, #692224	@ 0xa9000
10001e1c:	f002 0201 	and.w	r2, r2, #1
10001e20:	601a      	str	r2, [r3, #0]
10001e22:	7822      	ldrb	r2, [r4, #0]
10001e24:	2000      	movs	r0, #0
10001e26:	2a1f      	cmp	r2, #31
10001e28:	bf8a      	itet	hi
10001e2a:	f3c2 0241 	ubfxhi	r2, r2, #1, #2
10001e2e:	f3c2 0242 	ubfxls	r2, r2, #1, #3
10001e32:	3208      	addhi	r2, #8
10001e34:	eb02 0282 	add.w	r2, r2, r2, lsl #2
10001e38:	0092      	lsls	r2, r2, #2
10001e3a:	f102 4280 	add.w	r2, r2, #1073741824	@ 0x40000000
10001e3e:	f502 2128 	add.w	r1, r2, #688128	@ 0xa8000
10001e42:	6809      	ldr	r1, [r1, #0]
10001e44:	78a3      	ldrb	r3, [r4, #2]
10001e46:	43c9      	mvns	r1, r1
10001e48:	2b1f      	cmp	r3, #31
10001e4a:	bf8a      	itet	hi
10001e4c:	f3c3 0341 	ubfxhi	r3, r3, #1, #2
10001e50:	f3c3 0342 	ubfxls	r3, r3, #1, #3
10001e54:	3308      	addhi	r3, #8
10001e56:	eb03 0383 	add.w	r3, r3, r3, lsl #2
10001e5a:	009b      	lsls	r3, r3, #2
10001e5c:	f103 4380 	add.w	r3, r3, #1073741824	@ 0x40000000
10001e60:	f502 2229 	add.w	r2, r2, #692224	@ 0xa9000
10001e64:	f001 010c 	and.w	r1, r1, #12
10001e68:	6011      	str	r1, [r2, #0]
10001e6a:	f503 2528 	add.w	r5, r3, #688128	@ 0xa8000
10001e6e:	682a      	ldr	r2, [r5, #0]
10001e70:	f503 2329 	add.w	r3, r3, #692224	@ 0xa9000
10001e74:	f082 0204 	eor.w	r2, r2, #4
10001e78:	f002 020c 	and.w	r2, r2, #12
10001e7c:	601a      	str	r2, [r3, #0]
10001e7e:	7822      	ldrb	r2, [r4, #0]
10001e80:	6060      	str	r0, [r4, #4]
10001e82:	2a1f      	cmp	r2, #31
10001e84:	8120      	strh	r0, [r4, #8]
10001e86:	bf88      	it	hi
10001e88:	f3c2 0341 	ubfxhi	r3, r2, #1, #2
10001e8c:	4841      	ldr	r0, [pc, #260]	@ (10001f94 <_ZN7RGB_LED4initEv+0x2c0>)
10001e8e:	bf94      	ite	ls
10001e90:	f3c2 0342 	ubfxls	r3, r2, #1, #3
10001e94:	3308      	addhi	r3, #8
10001e96:	f012 0f01 	tst.w	r2, #1
10001e9a:	f64f 71ff 	movw	r1, #65535	@ 0xffff
10001e9e:	bf18      	it	ne
10001ea0:	4601      	movne	r1, r0
10001ea2:	eb03 0383 	add.w	r3, r3, r3, lsl #2
10001ea6:	009b      	lsls	r3, r3, #2
10001ea8:	f103 4380 	add.w	r3, r3, #1073741824	@ 0x40000000
10001eac:	330c      	adds	r3, #12
10001eae:	f503 2228 	add.w	r2, r3, #688128	@ 0xa8000
10001eb2:	6812      	ldr	r2, [r2, #0]
10001eb4:	f503 2329 	add.w	r3, r3, #692224	@ 0xa9000
10001eb8:	400a      	ands	r2, r1
10001eba:	601a      	str	r2, [r3, #0]
10001ebc:	7862      	ldrb	r2, [r4, #1]
10001ebe:	4835      	ldr	r0, [pc, #212]	@ (10001f94 <_ZN7RGB_LED4initEv+0x2c0>)
10001ec0:	2a1f      	cmp	r2, #31
10001ec2:	bf8a      	itet	hi
10001ec4:	f3c2 0341 	ubfxhi	r3, r2, #1, #2
10001ec8:	f3c2 0342 	ubfxls	r3, r2, #1, #3
10001ecc:	3308      	addhi	r3, #8
10001ece:	f012 0f01 	tst.w	r2, #1
10001ed2:	f64f 71ff 	movw	r1, #65535	@ 0xffff
10001ed6:	bf18      	it	ne
10001ed8:	4601      	movne	r1, r0
10001eda:	eb03 0383 	add.w	r3, r3, r3, lsl #2
10001ede:	009b      	lsls	r3, r3, #2
10001ee0:	f103 4380 	add.w	r3, r3, #1073741824	@ 0x40000000
10001ee4:	330c      	adds	r3, #12
10001ee6:	f503 2228 	add.w	r2, r3, #688128	@ 0xa8000
10001eea:	6812      	ldr	r2, [r2, #0]
10001eec:	f503 2329 	add.w	r3, r3, #692224	@ 0xa9000
10001ef0:	400a      	ands	r2, r1
10001ef2:	601a      	str	r2, [r3, #0]
10001ef4:	78a0      	ldrb	r0, [r4, #2]
10001ef6:	f64f 74ff 	movw	r4, #65535	@ 0xffff
10001efa:	281f      	cmp	r0, #31
10001efc:	bf8a      	itet	hi
10001efe:	f3c0 0341 	ubfxhi	r3, r0, #1, #2
10001f02:	f3c0 0342 	ubfxls	r3, r0, #1, #3
10001f06:	3308      	addhi	r3, #8
10001f08:	f010 0f01 	tst.w	r0, #1
10001f0c:	4921      	ldr	r1, [pc, #132]	@ (10001f94 <_ZN7RGB_LED4initEv+0x2c0>)
10001f0e:	bf08      	it	eq
10001f10:	4621      	moveq	r1, r4
10001f12:	eb03 0383 	add.w	r3, r3, r3, lsl #2
10001f16:	009b      	lsls	r3, r3, #2
10001f18:	f103 4380 	add.w	r3, r3, #1073741824	@ 0x40000000
10001f1c:	330c      	adds	r3, #12
10001f1e:	f503 2228 	add.w	r2, r3, #688128	@ 0xa8000
10001f22:	6812      	ldr	r2, [r2, #0]
10001f24:	f503 2329 	add.w	r3, r3, #692224	@ 0xa9000
10001f28:	400a      	ands	r2, r1
10001f2a:	601a      	str	r2, [r3, #0]
10001f2c:	bdf8      	pop	{r3, r4, r5, r6, r7, pc}
10001f2e:	4630      	mov	r0, r6
10001f30:	2104      	movs	r1, #4
10001f32:	f005 f87b 	bl	1000702c <gpio_set_function>
10001f36:	4630      	mov	r0, r6
10001f38:	2100      	movs	r1, #0
10001f3a:	f005 f8ad 	bl	10007098 <gpio_set_slew_rate>
10001f3e:	f3c6 0541 	ubfx	r5, r6, #1, #2
10001f42:	2100      	movs	r1, #0
10001f44:	4630      	mov	r0, r6
10001f46:	3508      	adds	r5, #8
10001f48:	f005 f8b4 	bl	100070b4 <gpio_set_drive_strength>
10001f4c:	e6d6      	b.n	10001cfc <_ZN7RGB_LED4initEv+0x28>
10001f4e:	4630      	mov	r0, r6
10001f50:	2104      	movs	r1, #4
10001f52:	f005 f86b 	bl	1000702c <gpio_set_function>
10001f56:	4630      	mov	r0, r6
10001f58:	2100      	movs	r1, #0
10001f5a:	f005 f89d 	bl	10007098 <gpio_set_slew_rate>
10001f5e:	f3c6 0541 	ubfx	r5, r6, #1, #2
10001f62:	2100      	movs	r1, #0
10001f64:	4630      	mov	r0, r6
10001f66:	3508      	adds	r5, #8
10001f68:	f005 f8a4 	bl	100070b4 <gpio_set_drive_strength>
10001f6c:	e734      	b.n	10001dd8 <_ZN7RGB_LED4initEv+0x104>
10001f6e:	4630      	mov	r0, r6
10001f70:	2104      	movs	r1, #4
10001f72:	f005 f85b 	bl	1000702c <gpio_set_function>
10001f76:	4630      	mov	r0, r6
10001f78:	2100      	movs	r1, #0
10001f7a:	f005 f88d 	bl	10007098 <gpio_set_slew_rate>
10001f7e:	f3c6 0541 	ubfx	r5, r6, #1, #2
10001f82:	2100      	movs	r1, #0
10001f84:	4630      	mov	r0, r6
10001f86:	3508      	adds	r5, #8
10001f88:	f005 f894 	bl	100070b4 <gpio_set_drive_strength>
10001f8c:	e6ed      	b.n	10001d6a <_ZN7RGB_LED4initEv+0x96>
10001f8e:	bf00      	nop
10001f90:	2002ec1c 	.word	0x2002ec1c
10001f94:	ffff0000 	.word	0xffff0000

10001f98 <_ZN7RGB_LED2onEv>:
10001f98:	4a03      	ldr	r2, [pc, #12]	@ (10001fa8 <_ZN7RGB_LED2onEv+0x10>)
10001f9a:	4b04      	ldr	r3, [pc, #16]	@ (10001fac <_ZN7RGB_LED2onEv+0x14>)
10001f9c:	8891      	ldrh	r1, [r2, #4]
10001f9e:	6812      	ldr	r2, [r2, #0]
10001fa0:	8119      	strh	r1, [r3, #8]
10001fa2:	605a      	str	r2, [r3, #4]
10001fa4:	4770      	bx	lr
10001fa6:	bf00      	nop
10001fa8:	2002ec14 	.word	0x2002ec14
10001fac:	2002ec1c 	.word	0x2002ec1c

10001fb0 <_ZN7RGB_LED6updateEv>:
10001fb0:	b410      	push	{r4}
10001fb2:	492d      	ldr	r1, [pc, #180]	@ (10002068 <_ZN7RGB_LED6updateEv+0xb8>)
10001fb4:	4a2d      	ldr	r2, [pc, #180]	@ (1000206c <_ZN7RGB_LED6updateEv+0xbc>)
10001fb6:	f891 c000 	ldrb.w	ip, [r1]
10001fba:	8888      	ldrh	r0, [r1, #4]
10001fbc:	f1bc 0f1f 	cmp.w	ip, #31
10001fc0:	bf8a      	itet	hi
10001fc2:	f3cc 0341 	ubfxhi	r3, ip, #1, #2
10001fc6:	f3cc 0342 	ubfxls	r3, ip, #1, #3
10001fca:	3308      	addhi	r3, #8
10001fcc:	eb03 0383 	add.w	r3, r3, r3, lsl #2
10001fd0:	009b      	lsls	r3, r3, #2
10001fd2:	f01c 0f01 	tst.w	ip, #1
10001fd6:	441a      	add	r2, r3
10001fd8:	d13d      	bne.n	10002056 <_ZN7RGB_LED6updateEv+0xa6>
10001fda:	f64f 74ff 	movw	r4, #65535	@ 0xffff
10001fde:	6813      	ldr	r3, [r2, #0]
10001fe0:	f502 5280 	add.w	r2, r2, #4096	@ 0x1000
10001fe4:	4043      	eors	r3, r0
10001fe6:	4023      	ands	r3, r4
10001fe8:	6013      	str	r3, [r2, #0]
10001fea:	f891 c001 	ldrb.w	ip, [r1, #1]
10001fee:	4a1f      	ldr	r2, [pc, #124]	@ (1000206c <_ZN7RGB_LED6updateEv+0xbc>)
10001ff0:	f1bc 0f1f 	cmp.w	ip, #31
10001ff4:	bf8a      	itet	hi
10001ff6:	f3cc 0341 	ubfxhi	r3, ip, #1, #2
10001ffa:	f3cc 0342 	ubfxls	r3, ip, #1, #3
10001ffe:	3308      	addhi	r3, #8
10002000:	eb03 0383 	add.w	r3, r3, r3, lsl #2
10002004:	009b      	lsls	r3, r3, #2
10002006:	f01c 0f01 	tst.w	ip, #1
1000200a:	88c8      	ldrh	r0, [r1, #6]
1000200c:	441a      	add	r2, r3
1000200e:	d128      	bne.n	10002062 <_ZN7RGB_LED6updateEv+0xb2>
10002010:	f64f 74ff 	movw	r4, #65535	@ 0xffff
10002014:	6813      	ldr	r3, [r2, #0]
10002016:	f502 5280 	add.w	r2, r2, #4096	@ 0x1000
1000201a:	4043      	eors	r3, r0
1000201c:	4023      	ands	r3, r4
1000201e:	6013      	str	r3, [r2, #0]
10002020:	7888      	ldrb	r0, [r1, #2]
10002022:	4a12      	ldr	r2, [pc, #72]	@ (1000206c <_ZN7RGB_LED6updateEv+0xbc>)
10002024:	281f      	cmp	r0, #31
10002026:	bf8a      	itet	hi
10002028:	f3c0 0341 	ubfxhi	r3, r0, #1, #2
1000202c:	f3c0 0342 	ubfxls	r3, r0, #1, #3
10002030:	3308      	addhi	r3, #8
10002032:	eb03 0383 	add.w	r3, r3, r3, lsl #2
10002036:	009b      	lsls	r3, r3, #2
10002038:	441a      	add	r2, r3
1000203a:	07c3      	lsls	r3, r0, #31
1000203c:	8909      	ldrh	r1, [r1, #8]
1000203e:	d40d      	bmi.n	1000205c <_ZN7RGB_LED6updateEv+0xac>
10002040:	f64f 70ff 	movw	r0, #65535	@ 0xffff
10002044:	6813      	ldr	r3, [r2, #0]
10002046:	f502 5280 	add.w	r2, r2, #4096	@ 0x1000
1000204a:	404b      	eors	r3, r1
1000204c:	4003      	ands	r3, r0
1000204e:	f85d 4b04 	ldr.w	r4, [sp], #4
10002052:	6013      	str	r3, [r2, #0]
10002054:	4770      	bx	lr
10002056:	4c06      	ldr	r4, [pc, #24]	@ (10002070 <_ZN7RGB_LED6updateEv+0xc0>)
10002058:	0400      	lsls	r0, r0, #16
1000205a:	e7c0      	b.n	10001fde <_ZN7RGB_LED6updateEv+0x2e>
1000205c:	4804      	ldr	r0, [pc, #16]	@ (10002070 <_ZN7RGB_LED6updateEv+0xc0>)
1000205e:	0409      	lsls	r1, r1, #16
10002060:	e7f0      	b.n	10002044 <_ZN7RGB_LED6updateEv+0x94>
10002062:	4c03      	ldr	r4, [pc, #12]	@ (10002070 <_ZN7RGB_LED6updateEv+0xc0>)
10002064:	0400      	lsls	r0, r0, #16
10002066:	e7d5      	b.n	10002014 <_ZN7RGB_LED6updateEv+0x64>
10002068:	2002ec1c 	.word	0x2002ec1c
1000206c:	400a800c 	.word	0x400a800c
10002070:	ffff0000 	.word	0xffff0000

10002074 <_ZN7RGB_LED3setEttt>:
10002074:	b410      	push	{r4}
10002076:	4b05      	ldr	r3, [pc, #20]	@ (1000208c <_ZN7RGB_LED3setEttt+0x18>)
10002078:	4c05      	ldr	r4, [pc, #20]	@ (10002090 <_ZN7RGB_LED3setEttt+0x1c>)
1000207a:	8098      	strh	r0, [r3, #4]
1000207c:	8020      	strh	r0, [r4, #0]
1000207e:	8061      	strh	r1, [r4, #2]
10002080:	80a2      	strh	r2, [r4, #4]
10002082:	80d9      	strh	r1, [r3, #6]
10002084:	f85d 4b04 	ldr.w	r4, [sp], #4
10002088:	811a      	strh	r2, [r3, #8]
1000208a:	4770      	bx	lr
1000208c:	2002ec1c 	.word	0x2002ec1c
10002090:	2002ec14 	.word	0x2002ec14

10002094 <_ZN7RGB_LED3offEv>:
10002094:	2200      	movs	r2, #0
10002096:	4b02      	ldr	r3, [pc, #8]	@ (100020a0 <_ZN7RGB_LED3offEv+0xc>)
10002098:	605a      	str	r2, [r3, #4]
1000209a:	811a      	strh	r2, [r3, #8]
1000209c:	4770      	bx	lr
1000209e:	bf00      	nop
100020a0:	2002ec1c 	.word	0x2002ec1c

100020a4 <_GLOBAL__sub_I__ZN7RGB_LED3RgbE>:
100020a4:	4b01      	ldr	r3, [pc, #4]	@ (100020ac <_GLOBAL__sub_I__ZN7RGB_LED3RgbE+0x8>)
100020a6:	4a02      	ldr	r2, [pc, #8]	@ (100020b0 <_GLOBAL__sub_I__ZN7RGB_LED3RgbE+0xc>)
100020a8:	601a      	str	r2, [r3, #0]
100020aa:	4770      	bx	lr
100020ac:	2002ec1c 	.word	0x2002ec1c
100020b0:	00080706 	.word	0x00080706

100020b4 <_ZN8ShiftReg6updateEv.part.0>:
100020b4:	2300      	movs	r3, #0
100020b6:	2001      	movs	r0, #1
100020b8:	b410      	push	{r4}
100020ba:	4a12      	ldr	r2, [pc, #72]	@ (10002104 <_ZN8ShiftReg6updateEv.part.0+0x50>)
100020bc:	4c12      	ldr	r4, [pc, #72]	@ (10002108 <_ZN8ShiftReg6updateEv.part.0+0x54>)
100020be:	f892 c000 	ldrb.w	ip, [r2]
100020c2:	6822      	ldr	r2, [r4, #0]
100020c4:	fa4c f103 	asr.w	r1, ip, r3
100020c8:	f011 0f01 	tst.w	r1, #1
100020cc:	fa00 f103 	lsl.w	r1, r0, r3
100020d0:	bf08      	it	eq
100020d2:	fa00 f103 	lsleq.w	r1, r0, r3
100020d6:	f103 0301 	add.w	r3, r3, #1
100020da:	bf14      	ite	ne
100020dc:	430a      	orrne	r2, r1
100020de:	438a      	biceq	r2, r1
100020e0:	2b08      	cmp	r3, #8
100020e2:	d1ef      	bne.n	100020c4 <_ZN8ShiftReg6updateEv.part.0+0x10>
100020e4:	4909      	ldr	r1, [pc, #36]	@ (1000210c <_ZN8ShiftReg6updateEv.part.0+0x58>)
100020e6:	6022      	str	r2, [r4, #0]
100020e8:	684b      	ldr	r3, [r1, #4]
100020ea:	039b      	lsls	r3, r3, #14
100020ec:	d4fc      	bmi.n	100020e8 <_ZN8ShiftReg6updateEv.part.0+0x34>
100020ee:	4907      	ldr	r1, [pc, #28]	@ (1000210c <_ZN8ShiftReg6updateEv.part.0+0x58>)
100020f0:	684b      	ldr	r3, [r1, #4]
100020f2:	f413 3300 	ands.w	r3, r3, #131072	@ 0x20000
100020f6:	d1fb      	bne.n	100020f0 <_ZN8ShiftReg6updateEv.part.0+0x3c>
100020f8:	4805      	ldr	r0, [pc, #20]	@ (10002110 <_ZN8ShiftReg6updateEv.part.0+0x5c>)
100020fa:	614a      	str	r2, [r1, #20]
100020fc:	f85d 4b04 	ldr.w	r4, [sp], #4
10002100:	7003      	strb	r3, [r0, #0]
10002102:	4770      	bx	lr
10002104:	20030039 	.word	0x20030039
10002108:	2002ec28 	.word	0x2002ec28
1000210c:	50200000 	.word	0x50200000
10002110:	20030038 	.word	0x20030038

10002114 <_ZN7sn7459513shiftreg_initEv>:
10002114:	b570      	push	{r4, r5, r6, lr}
10002116:	2300      	movs	r3, #0
10002118:	b08a      	sub	sp, #40	@ 0x28
1000211a:	2207      	movs	r2, #7
1000211c:	2101      	movs	r1, #1
1000211e:	4833      	ldr	r0, [pc, #204]	@ (100021ec <_ZN7sn7459513shiftreg_initEv+0xd8>)
10002120:	f008 fc3e 	bl	1000a9a0 <pio_sm_set_pins_with_mask>
10002124:	2101      	movs	r1, #1
10002126:	2303      	movs	r3, #3
10002128:	2212      	movs	r2, #18
1000212a:	9100      	str	r1, [sp, #0]
1000212c:	482f      	ldr	r0, [pc, #188]	@ (100021ec <_ZN7sn7459513shiftreg_initEv+0xd8>)
1000212e:	f008 fc6b 	bl	1000aa08 <pio_sm_set_consecutive_pindirs>
10002132:	2106      	movs	r1, #6
10002134:	2012      	movs	r0, #18
10002136:	f004 ff79 	bl	1000702c <gpio_set_function>
1000213a:	2106      	movs	r1, #6
1000213c:	2013      	movs	r0, #19
1000213e:	f004 ff75 	bl	1000702c <gpio_set_function>
10002142:	2106      	movs	r1, #6
10002144:	2014      	movs	r0, #20
10002146:	f004 ff71 	bl	1000702c <gpio_set_function>
1000214a:	4929      	ldr	r1, [pc, #164]	@ (100021f0 <_ZN7sn7459513shiftreg_initEv+0xdc>)
1000214c:	4827      	ldr	r0, [pc, #156]	@ (100021ec <_ZN7sn7459513shiftreg_initEv+0xd8>)
1000214e:	f008 fc0d 	bl	1000a96c <pio_add_program>
10002152:	f44f 3280 	mov.w	r2, #65536	@ 0x10000
10002156:	4605      	mov	r5, r0
10002158:	f44f 2380 	mov.w	r3, #262144	@ 0x40000
1000215c:	9205      	str	r2, [sp, #20]
1000215e:	9307      	str	r3, [sp, #28]
10002160:	1dea      	adds	r2, r5, #7
10002162:	01eb      	lsls	r3, r5, #7
10002164:	4923      	ldr	r1, [pc, #140]	@ (100021f4 <_ZN7sn7459513shiftreg_initEv+0xe0>)
10002166:	4824      	ldr	r0, [pc, #144]	@ (100021f8 <_ZN7sn7459513shiftreg_initEv+0xe4>)
10002168:	ea43 3302 	orr.w	r3, r3, r2, lsl #12
1000216c:	f023 43c0 	bic.w	r3, r3, #1610612736	@ 0x60000000
10002170:	f043 4380 	orr.w	r3, r3, #1073741824	@ 0x40000000
10002174:	e9cd 1008 	strd	r1, r0, [sp, #32]
10002178:	2005      	movs	r0, #5
1000217a:	9306      	str	r3, [sp, #24]
1000217c:	f006 f93c 	bl	100083f8 <clock_get_hz>
10002180:	ee07 0a90 	vmov	s15, r0
10002184:	eddf 6a1d 	vldr	s13, [pc, #116]	@ 100021fc <_ZN7sn7459513shiftreg_initEv+0xe8>
10002188:	eef8 7a67 	vcvt.f32.u32	s15, s15
1000218c:	ee87 7aa6 	vdiv.f32	s14, s15, s13
10002190:	eefc 7ac7 	vcvt.u32.f32	s15, s14
10002194:	ee17 3a90 	vmov	r3, s15
10002198:	b29b      	uxth	r3, r3
1000219a:	b32b      	cbz	r3, 100021e8 <_ZN7sn7459513shiftreg_initEv+0xd4>
1000219c:	ee07 3a90 	vmov	s15, r3
100021a0:	eef8 7a67 	vcvt.f32.u32	s15, s15
100021a4:	eddf 6a16 	vldr	s13, [pc, #88]	@ 10002200 <_ZN7sn7459513shiftreg_initEv+0xec>
100021a8:	ee37 7a67 	vsub.f32	s14, s14, s15
100021ac:	ee27 7a26 	vmul.f32	s14, s14, s13
100021b0:	eefc 7ac7 	vcvt.u32.f32	s15, s14
100021b4:	edcd 7a03 	vstr	s15, [sp, #12]
100021b8:	f89d 400c 	ldrb.w	r4, [sp, #12]
100021bc:	0224      	lsls	r4, r4, #8
100021be:	4e0b      	ldr	r6, [pc, #44]	@ (100021ec <_ZN7sn7459513shiftreg_initEv+0xd8>)
100021c0:	462a      	mov	r2, r5
100021c2:	ea44 4403 	orr.w	r4, r4, r3, lsl #16
100021c6:	2101      	movs	r1, #1
100021c8:	ab05      	add	r3, sp, #20
100021ca:	4630      	mov	r0, r6
100021cc:	9405      	str	r4, [sp, #20]
100021ce:	f008 fc63 	bl	1000aa98 <pio_sm_init>
100021d2:	f04f 4200 	mov.w	r2, #2147483648	@ 0x80000000
100021d6:	4b0b      	ldr	r3, [pc, #44]	@ (10002204 <_ZN7sn7459513shiftreg_initEv+0xf0>)
100021d8:	601a      	str	r2, [r3, #0]
100021da:	601a      	str	r2, [r3, #0]
100021dc:	6833      	ldr	r3, [r6, #0]
100021de:	f043 0302 	orr.w	r3, r3, #2
100021e2:	6033      	str	r3, [r6, #0]
100021e4:	b00a      	add	sp, #40	@ 0x28
100021e6:	bd70      	pop	{r4, r5, r6, pc}
100021e8:	461c      	mov	r4, r3
100021ea:	e7e8      	b.n	100021be <_ZN7sn7459513shiftreg_initEv+0xaa>
100021ec:	50200000 	.word	0x50200000
100021f0:	1000df64 	.word	0x1000df64
100021f4:	4c104e52 	.word	0x4c104e52
100021f8:	ffff8421 	.word	0xffff8421
100021fc:	4b742400 	.word	0x4b742400
10002200:	43800000 	.word	0x43800000
10002204:	502010e8 	.word	0x502010e8

10002208 <_ZN8ShiftReg4initEv>:
10002208:	b508      	push	{r3, lr}
1000220a:	2100      	movs	r1, #0
1000220c:	2013      	movs	r0, #19
1000220e:	f004 ff51 	bl	100070b4 <gpio_set_drive_strength>
10002212:	2100      	movs	r1, #0
10002214:	2012      	movs	r0, #18
10002216:	f004 ff4d 	bl	100070b4 <gpio_set_drive_strength>
1000221a:	2100      	movs	r1, #0
1000221c:	2014      	movs	r0, #20
1000221e:	f004 ff49 	bl	100070b4 <gpio_set_drive_strength>
10002222:	2100      	movs	r1, #0
10002224:	2013      	movs	r0, #19
10002226:	f004 ff37 	bl	10007098 <gpio_set_slew_rate>
1000222a:	2100      	movs	r1, #0
1000222c:	2012      	movs	r0, #18
1000222e:	f004 ff33 	bl	10007098 <gpio_set_slew_rate>
10002232:	2100      	movs	r1, #0
10002234:	2014      	movs	r0, #20
10002236:	f004 ff2f 	bl	10007098 <gpio_set_slew_rate>
1000223a:	f7ff ff6b 	bl	10002114 <_ZN7sn7459513shiftreg_initEv>
1000223e:	4b04      	ldr	r3, [pc, #16]	@ (10002250 <_ZN8ShiftReg4initEv+0x48>)
10002240:	781b      	ldrb	r3, [r3, #0]
10002242:	b11b      	cbz	r3, 1000224c <_ZN8ShiftReg4initEv+0x44>
10002244:	e8bd 4008 	ldmia.w	sp!, {r3, lr}
10002248:	f7ff bf34 	b.w	100020b4 <_ZN8ShiftReg6updateEv.part.0>
1000224c:	bd08      	pop	{r3, pc}
1000224e:	bf00      	nop
10002250:	20030038 	.word	0x20030038

10002254 <_ZN8ShiftReg6updateEv>:
10002254:	4b02      	ldr	r3, [pc, #8]	@ (10002260 <_ZN8ShiftReg6updateEv+0xc>)
10002256:	781b      	ldrb	r3, [r3, #0]
10002258:	b10b      	cbz	r3, 1000225e <_ZN8ShiftReg6updateEv+0xa>
1000225a:	f7ff bf2b 	b.w	100020b4 <_ZN8ShiftReg6updateEv.part.0>
1000225e:	4770      	bx	lr
10002260:	20030038 	.word	0x20030038

10002264 <_ZN8ShiftReg7set_bitE4Pinsb>:
10002264:	4b07      	ldr	r3, [pc, #28]	@ (10002284 <_ZN8ShiftReg7set_bitE4Pinsb+0x20>)
10002266:	781a      	ldrb	r2, [r3, #0]
10002268:	b129      	cbz	r1, 10002276 <_ZN8ShiftReg7set_bitE4Pinsb+0x12>
1000226a:	2101      	movs	r1, #1
1000226c:	4310      	orrs	r0, r2
1000226e:	4a06      	ldr	r2, [pc, #24]	@ (10002288 <_ZN8ShiftReg7set_bitE4Pinsb+0x24>)
10002270:	7018      	strb	r0, [r3, #0]
10002272:	7011      	strb	r1, [r2, #0]
10002274:	4770      	bx	lr
10002276:	2101      	movs	r1, #1
10002278:	ea22 0000 	bic.w	r0, r2, r0
1000227c:	4a02      	ldr	r2, [pc, #8]	@ (10002288 <_ZN8ShiftReg7set_bitE4Pinsb+0x24>)
1000227e:	7018      	strb	r0, [r3, #0]
10002280:	7011      	strb	r1, [r2, #0]
10002282:	4770      	bx	lr
10002284:	20030039 	.word	0x20030039
10002288:	20030038 	.word	0x20030038

1000228c <_ZN4UART4initEv>:
1000228c:	b510      	push	{r4, lr}
1000228e:	4c0c      	ldr	r4, [pc, #48]	@ (100022c0 <_ZN4UART4initEv+0x34>)
10002290:	f647 2112 	movw	r1, #31250	@ 0x7a12
10002294:	4620      	mov	r0, r4
10002296:	f005 ffbd 	bl	10008214 <uart_init>
1000229a:	2102      	movs	r1, #2
1000229c:	2000      	movs	r0, #0
1000229e:	f004 fec5 	bl	1000702c <gpio_set_function>
100022a2:	2102      	movs	r1, #2
100022a4:	2001      	movs	r0, #1
100022a6:	f004 fec1 	bl	1000702c <gpio_set_function>
100022aa:	4620      	mov	r0, r4
100022ac:	2101      	movs	r1, #1
100022ae:	f005 fff1 	bl	10008294 <uart_set_fifo_enabled>
100022b2:	4620      	mov	r0, r4
100022b4:	e8bd 4010 	ldmia.w	sp!, {r4, lr}
100022b8:	2100      	movs	r1, #0
100022ba:	f006 b819 	b.w	100082f0 <uart_set_translate_crlf>
100022be:	bf00      	nop
100022c0:	40070000 	.word	0x40070000

100022c4 <_ZN4UART4MIDI9availableEv>:
100022c4:	4b03      	ldr	r3, [pc, #12]	@ (100022d4 <_ZN4UART4MIDI9availableEv+0x10>)
100022c6:	6998      	ldr	r0, [r3, #24]
100022c8:	f080 0010 	eor.w	r0, r0, #16
100022cc:	f3c0 1000 	ubfx	r0, r0, #4, #1
100022d0:	4770      	bx	lr
100022d2:	bf00      	nop
100022d4:	40070000 	.word	0x40070000

100022d8 <_ZN4UART4MIDI3getEv>:
100022d8:	4a03      	ldr	r2, [pc, #12]	@ (100022e8 <_ZN4UART4MIDI3getEv+0x10>)
100022da:	6993      	ldr	r3, [r2, #24]
100022dc:	06db      	lsls	r3, r3, #27
100022de:	d4fc      	bmi.n	100022da <_ZN4UART4MIDI3getEv+0x2>
100022e0:	6810      	ldr	r0, [r2, #0]
100022e2:	b2c0      	uxtb	r0, r0
100022e4:	4770      	bx	lr
100022e6:	bf00      	nop
100022e8:	40070000 	.word	0x40070000

100022ec <_ZN4UART4MIDI4sendEPhh>:
100022ec:	b151      	cbz	r1, 10002304 <_ZN4UART4MIDI4sendEPhh+0x18>
100022ee:	4a07      	ldr	r2, [pc, #28]	@ (1000230c <_ZN4UART4MIDI4sendEPhh+0x20>)
100022f0:	4401      	add	r1, r0
100022f2:	6993      	ldr	r3, [r2, #24]
100022f4:	069b      	lsls	r3, r3, #26
100022f6:	d4fc      	bmi.n	100022f2 <_ZN4UART4MIDI4sendEPhh+0x6>
100022f8:	f810 3b01 	ldrb.w	r3, [r0], #1
100022fc:	4281      	cmp	r1, r0
100022fe:	6013      	str	r3, [r2, #0]
10002300:	d1f7      	bne.n	100022f2 <_ZN4UART4MIDI4sendEPhh+0x6>
10002302:	4770      	bx	lr
10002304:	4902      	ldr	r1, [pc, #8]	@ (10002310 <_ZN4UART4MIDI4sendEPhh+0x24>)
10002306:	4803      	ldr	r0, [pc, #12]	@ (10002314 <_ZN4UART4MIDI4sendEPhh+0x28>)
10002308:	f007 be88 	b.w	1000a01c <__wrap_printf>
1000230c:	40070000 	.word	0x40070000
10002310:	1000df7c 	.word	0x1000df7c
10002314:	1000dee8 	.word	0x1000dee8

10002318 <_ZN2UI12printStartUpEv>:
10002318:	b570      	push	{r4, r5, r6, lr}
1000231a:	4d2d      	ldr	r5, [pc, #180]	@ (100023d0 <_ZN2UI12printStartUpEv+0xb8>)
1000231c:	b088      	sub	sp, #32
1000231e:	4c2d      	ldr	r4, [pc, #180]	@ (100023d4 <_ZN2UI12printStartUpEv+0xbc>)
10002320:	a806      	add	r0, sp, #24
10002322:	f008 f80b 	bl	1000a33c <pico_get_unique_board_id>
10002326:	4628      	mov	r0, r5
10002328:	f007 fe22 	bl	10009f70 <__wrap_puts>
1000232c:	4620      	mov	r0, r4
1000232e:	f007 fe1f 	bl	10009f70 <__wrap_puts>
10002332:	4e29      	ldr	r6, [pc, #164]	@ (100023d8 <_ZN2UI12printStartUpEv+0xc0>)
10002334:	4829      	ldr	r0, [pc, #164]	@ (100023dc <_ZN2UI12printStartUpEv+0xc4>)
10002336:	f007 fe1b 	bl	10009f70 <__wrap_puts>
1000233a:	4620      	mov	r0, r4
1000233c:	f007 fe18 	bl	10009f70 <__wrap_puts>
10002340:	4630      	mov	r0, r6
10002342:	f007 fe15 	bl	10009f70 <__wrap_puts>
10002346:	f89d 201f 	ldrb.w	r2, [sp, #31]
1000234a:	f89d 301e 	ldrb.w	r3, [sp, #30]
1000234e:	f89d 1018 	ldrb.w	r1, [sp, #24]
10002352:	e9cd 3203 	strd	r3, r2, [sp, #12]
10002356:	f89d 201d 	ldrb.w	r2, [sp, #29]
1000235a:	f89d 301c 	ldrb.w	r3, [sp, #28]
1000235e:	4820      	ldr	r0, [pc, #128]	@ (100023e0 <_ZN2UI12printStartUpEv+0xc8>)
10002360:	e9cd 3201 	strd	r3, r2, [sp, #4]
10002364:	f89d 201b 	ldrb.w	r2, [sp, #27]
10002368:	f89d 301a 	ldrb.w	r3, [sp, #26]
1000236c:	9200      	str	r2, [sp, #0]
1000236e:	f89d 2019 	ldrb.w	r2, [sp, #25]
10002372:	f007 fe53 	bl	1000a01c <__wrap_printf>
10002376:	a314      	add	r3, pc, #80	@ (adr r3, 100023c8 <_ZN2UI12printStartUpEv+0xb0>)
10002378:	e9d3 2300 	ldrd	r2, r3, [r3]
1000237c:	4819      	ldr	r0, [pc, #100]	@ (100023e4 <_ZN2UI12printStartUpEv+0xcc>)
1000237e:	f007 fe4d 	bl	1000a01c <__wrap_printf>
10002382:	f7fe fa6d 	bl	10000860 <_ZN3ADC11temperatureEv>
10002386:	f00b fc6f 	bl	1000dc68 <____aeabi_f2d_veneer>
1000238a:	4602      	mov	r2, r0
1000238c:	460b      	mov	r3, r1
1000238e:	4816      	ldr	r0, [pc, #88]	@ (100023e8 <_ZN2UI12printStartUpEv+0xd0>)
10002390:	f007 fe44 	bl	1000a01c <__wrap_printf>
10002394:	f7fe fa6a 	bl	1000086c <_ZN3ADC7batteryEv>
10002398:	f00b fc66 	bl	1000dc68 <____aeabi_f2d_veneer>
1000239c:	4602      	mov	r2, r0
1000239e:	460b      	mov	r3, r1
100023a0:	4812      	ldr	r0, [pc, #72]	@ (100023ec <_ZN2UI12printStartUpEv+0xd4>)
100023a2:	f007 fe3b 	bl	1000a01c <__wrap_printf>
100023a6:	4630      	mov	r0, r6
100023a8:	f007 fde2 	bl	10009f70 <__wrap_puts>
100023ac:	4620      	mov	r0, r4
100023ae:	f007 fddf 	bl	10009f70 <__wrap_puts>
100023b2:	480f      	ldr	r0, [pc, #60]	@ (100023f0 <_ZN2UI12printStartUpEv+0xd8>)
100023b4:	f007 fddc 	bl	10009f70 <__wrap_puts>
100023b8:	4620      	mov	r0, r4
100023ba:	f007 fdd9 	bl	10009f70 <__wrap_puts>
100023be:	4628      	mov	r0, r5
100023c0:	f007 fdd6 	bl	10009f70 <__wrap_puts>
100023c4:	b008      	add	sp, #32
100023c6:	bd70      	pop	{r4, r5, r6, pc}
100023c8:	51eb851f 	.word	0x51eb851f
100023cc:	3fd51eb8 	.word	0x3fd51eb8
100023d0:	1000e364 	.word	0x1000e364
100023d4:	1000df9c 	.word	0x1000df9c
100023d8:	1000e014 	.word	0x1000e014
100023dc:	1000dfd8 	.word	0x1000dfd8
100023e0:	1000e020 	.word	0x1000e020
100023e4:	1000e05c 	.word	0x1000e05c
100023e8:	1000e080 	.word	0x1000e080
100023ec:	1000e09c 	.word	0x1000e09c
100023f0:	1000e0b8 	.word	0x1000e0b8

100023f4 <_ZN2UI9calibrateEv>:
100023f4:	e92d 43f0 	stmdb	sp!, {r4, r5, r6, r7, r8, r9, lr}
100023f8:	2032      	movs	r0, #50	@ 0x32
100023fa:	b083      	sub	sp, #12
100023fc:	f7fe fed4 	bl	100011a8 <_ZN4LEDS4testEh>
10002400:	f44f 707a 	mov.w	r0, #1000	@ 0x3e8
10002404:	f005 fd4c 	bl	10007ea0 <sleep_ms>
10002408:	4854      	ldr	r0, [pc, #336]	@ (1000255c <_ZN2UI9calibrateEv+0x168>)
1000240a:	f007 fdb1 	bl	10009f70 <__wrap_puts>
1000240e:	4854      	ldr	r0, [pc, #336]	@ (10002560 <_ZN2UI9calibrateEv+0x16c>)
10002410:	f007 fdae 	bl	10009f70 <__wrap_puts>
10002414:	4853      	ldr	r0, [pc, #332]	@ (10002564 <_ZN2UI9calibrateEv+0x170>)
10002416:	f007 fdab 	bl	10009f70 <__wrap_puts>
1000241a:	4853      	ldr	r0, [pc, #332]	@ (10002568 <_ZN2UI9calibrateEv+0x174>)
1000241c:	f007 fda8 	bl	10009f70 <__wrap_puts>
10002420:	4852      	ldr	r0, [pc, #328]	@ (1000256c <_ZN2UI9calibrateEv+0x178>)
10002422:	f007 fda5 	bl	10009f70 <__wrap_puts>
10002426:	4852      	ldr	r0, [pc, #328]	@ (10002570 <_ZN2UI9calibrateEv+0x17c>)
10002428:	f007 fda2 	bl	10009f70 <__wrap_puts>
1000242c:	4851      	ldr	r0, [pc, #324]	@ (10002574 <_ZN2UI9calibrateEv+0x180>)
1000242e:	f007 fd9f 	bl	10009f70 <__wrap_puts>
10002432:	484e      	ldr	r0, [pc, #312]	@ (1000256c <_ZN2UI9calibrateEv+0x178>)
10002434:	f007 fd9c 	bl	10009f70 <__wrap_puts>
10002438:	484f      	ldr	r0, [pc, #316]	@ (10002578 <_ZN2UI9calibrateEv+0x184>)
1000243a:	f007 fd99 	bl	10009f70 <__wrap_puts>
1000243e:	484b      	ldr	r0, [pc, #300]	@ (1000256c <_ZN2UI9calibrateEv+0x178>)
10002440:	f007 fd96 	bl	10009f70 <__wrap_puts>
10002444:	4848      	ldr	r0, [pc, #288]	@ (10002568 <_ZN2UI9calibrateEv+0x174>)
10002446:	f007 fd93 	bl	10009f70 <__wrap_puts>
1000244a:	4846      	ldr	r0, [pc, #280]	@ (10002564 <_ZN2UI9calibrateEv+0x170>)
1000244c:	f007 fd90 	bl	10009f70 <__wrap_puts>
10002450:	484a      	ldr	r0, [pc, #296]	@ (1000257c <_ZN2UI9calibrateEv+0x188>)
10002452:	f007 fd8d 	bl	10009f70 <__wrap_puts>
10002456:	484a      	ldr	r0, [pc, #296]	@ (10002580 <_ZN2UI9calibrateEv+0x18c>)
10002458:	f007 fd8a 	bl	10009f70 <__wrap_puts>
1000245c:	f44f 7096 	mov.w	r0, #300	@ 0x12c
10002460:	f005 fd1e 	bl	10007ea0 <sleep_ms>
10002464:	4847      	ldr	r0, [pc, #284]	@ (10002584 <_ZN2UI9calibrateEv+0x190>)
10002466:	f007 fdd9 	bl	1000a01c <__wrap_printf>
1000246a:	f7fe f99b 	bl	100007a4 <_ZN3ADC6updateEv>
1000246e:	f44f 7096 	mov.w	r0, #300	@ 0x12c
10002472:	f005 fd15 	bl	10007ea0 <sleep_ms>
10002476:	202e      	movs	r0, #46	@ 0x2e
10002478:	f007 fd6a 	bl	10009f50 <__wrap_putchar>
1000247c:	f44f 7096 	mov.w	r0, #300	@ 0x12c
10002480:	f005 fd0e 	bl	10007ea0 <sleep_ms>
10002484:	202e      	movs	r0, #46	@ 0x2e
10002486:	f007 fd63 	bl	10009f50 <__wrap_putchar>
1000248a:	f44f 7096 	mov.w	r0, #300	@ 0x12c
1000248e:	f005 fd07 	bl	10007ea0 <sleep_ms>
10002492:	202e      	movs	r0, #46	@ 0x2e
10002494:	f007 fd5c 	bl	10009f50 <__wrap_putchar>
10002498:	f44f 7096 	mov.w	r0, #300	@ 0x12c
1000249c:	f005 fd00 	bl	10007ea0 <sleep_ms>
100024a0:	482e      	ldr	r0, [pc, #184]	@ (1000255c <_ZN2UI9calibrateEv+0x168>)
100024a2:	f007 fd65 	bl	10009f70 <__wrap_puts>
100024a6:	2400      	movs	r4, #0
100024a8:	f7fe fdc8 	bl	1000103c <_ZN4LEDS9KNOBS_offEv>
100024ac:	f8df 90e4 	ldr.w	r9, [pc, #228]	@ 10002594 <_ZN2UI9calibrateEv+0x1a0>
100024b0:	f8df 80e4 	ldr.w	r8, [pc, #228]	@ 10002598 <_ZN2UI9calibrateEv+0x1a4>
100024b4:	4f34      	ldr	r7, [pc, #208]	@ (10002588 <_ZN2UI9calibrateEv+0x194>)
100024b6:	4621      	mov	r1, r4
100024b8:	4648      	mov	r0, r9
100024ba:	f007 fdaf 	bl	1000a01c <__wrap_printf>
100024be:	e004      	b.n	100024ca <_ZN2UI9calibrateEv+0xd6>
100024c0:	200a      	movs	r0, #10
100024c2:	f005 fced 	bl	10007ea0 <sleep_ms>
100024c6:	f7fe f96d 	bl	100007a4 <_ZN3ADC6updateEv>
100024ca:	4620      	mov	r0, r4
100024cc:	f7fe f9b4 	bl	10000838 <_ZN3ADC5valueEi>
100024d0:	f8ad 0006 	strh.w	r0, [sp, #6]
100024d4:	f8bd 3006 	ldrh.w	r3, [sp, #6]
100024d8:	b29b      	uxth	r3, r3
100024da:	2b00      	cmp	r3, #0
100024dc:	d0f0      	beq.n	100024c0 <_ZN2UI9calibrateEv+0xcc>
100024de:	b2e6      	uxtb	r6, r4
100024e0:	2101      	movs	r1, #1
100024e2:	4630      	mov	r0, r6
100024e4:	f7fe fdce 	bl	10001084 <_ZN4LEDS11KNOB_selectEhb>
100024e8:	f7ff faac 	bl	10001a44 <_ZN4LEDS6updateEv>
100024ec:	4621      	mov	r1, r4
100024ee:	4640      	mov	r0, r8
100024f0:	f007 fd94 	bl	1000a01c <__wrap_printf>
100024f4:	4620      	mov	r0, r4
100024f6:	f7fe f99f 	bl	10000838 <_ZN3ADC5valueEi>
100024fa:	f240 33ff 	movw	r3, #1023	@ 0x3ff
100024fe:	f8ad 0006 	strh.w	r0, [sp, #6]
10002502:	f8bd 5006 	ldrh.w	r5, [sp, #6]
10002506:	b2ad      	uxth	r5, r5
10002508:	429d      	cmp	r5, r3
1000250a:	d10e      	bne.n	1000252a <_ZN2UI9calibrateEv+0x136>
1000250c:	200a      	movs	r0, #10
1000250e:	f005 fcc7 	bl	10007ea0 <sleep_ms>
10002512:	f7fe f947 	bl	100007a4 <_ZN3ADC6updateEv>
10002516:	4620      	mov	r0, r4
10002518:	f7fe f98e 	bl	10000838 <_ZN3ADC5valueEi>
1000251c:	f8ad 0006 	strh.w	r0, [sp, #6]
10002520:	f8bd 3006 	ldrh.w	r3, [sp, #6]
10002524:	b29b      	uxth	r3, r3
10002526:	42ab      	cmp	r3, r5
10002528:	d0f0      	beq.n	1000250c <_ZN2UI9calibrateEv+0x118>
1000252a:	2100      	movs	r1, #0
1000252c:	4630      	mov	r0, r6
1000252e:	f7fe fda9 	bl	10001084 <_ZN4LEDS11KNOB_selectEhb>
10002532:	f7ff fa87 	bl	10001a44 <_ZN4LEDS6updateEv>
10002536:	4621      	mov	r1, r4
10002538:	4638      	mov	r0, r7
1000253a:	3401      	adds	r4, #1
1000253c:	f007 fd6e 	bl	1000a01c <__wrap_printf>
10002540:	2c04      	cmp	r4, #4
10002542:	d1b8      	bne.n	100024b6 <_ZN2UI9calibrateEv+0xc2>
10002544:	4811      	ldr	r0, [pc, #68]	@ (1000258c <_ZN2UI9calibrateEv+0x198>)
10002546:	f007 fd13 	bl	10009f70 <__wrap_puts>
1000254a:	2032      	movs	r0, #50	@ 0x32
1000254c:	f7fe fe2c 	bl	100011a8 <_ZN4LEDS4testEh>
10002550:	2200      	movs	r2, #0
10002552:	4b0f      	ldr	r3, [pc, #60]	@ (10002590 <_ZN2UI9calibrateEv+0x19c>)
10002554:	701a      	strb	r2, [r3, #0]
10002556:	b003      	add	sp, #12
10002558:	e8bd 83f0 	ldmia.w	sp!, {r4, r5, r6, r7, r8, r9, pc}
1000255c:	1000e364 	.word	0x1000e364
10002560:	1000e0dc 	.word	0x1000e0dc
10002564:	1000e130 	.word	0x1000e130
10002568:	1000e184 	.word	0x1000e184
1000256c:	1000e1d8 	.word	0x1000e1d8
10002570:	1000e1e8 	.word	0x1000e1e8
10002574:	1000e20c 	.word	0x1000e20c
10002578:	1000e228 	.word	0x1000e228
1000257c:	1000e264 	.word	0x1000e264
10002580:	1000e2b8 	.word	0x1000e2b8
10002584:	1000e2d4 	.word	0x1000e2d4
10002588:	1000e32c 	.word	0x1000e32c
1000258c:	1000e348 	.word	0x1000e348
10002590:	20030010 	.word	0x20030010
10002594:	1000e2f4 	.word	0x1000e2f4
10002598:	1000e310 	.word	0x1000e310

1000259c <_ZN2UI6updateEv>:
1000259c:	b538      	push	{r3, r4, r5, lr}
1000259e:	4c2b      	ldr	r4, [pc, #172]	@ (1000264c <_ZN2UI6updateEv+0xb0>)
100025a0:	7823      	ldrb	r3, [r4, #0]
100025a2:	2b04      	cmp	r3, #4
100025a4:	d808      	bhi.n	100025b8 <_ZN2UI6updateEv+0x1c>
100025a6:	e8df f003 	tbb	[pc, r3]
100025aa:	3720      	.short	0x3720
100025ac:	4603      	.short	0x4603
100025ae:	08          	.byte	0x08
100025af:	00          	.byte	0x00
100025b0:	f000 fbe4 	bl	10002d7c <_ZN8CONTROLS16exportAllPresetsEv>
100025b4:	2300      	movs	r3, #0
100025b6:	7023      	strb	r3, [r4, #0]
100025b8:	bd38      	pop	{r3, r4, r5, pc}
100025ba:	2028      	movs	r0, #40	@ 0x28
100025bc:	f7fe fdf4 	bl	100011a8 <_ZN4LEDS4testEh>
100025c0:	201e      	movs	r0, #30
100025c2:	f7fe fdf1 	bl	100011a8 <_ZN4LEDS4testEh>
100025c6:	2014      	movs	r0, #20
100025c8:	f7fe fdee 	bl	100011a8 <_ZN4LEDS4testEh>
100025cc:	200a      	movs	r0, #10
100025ce:	f7fe fdeb 	bl	100011a8 <_ZN4LEDS4testEh>
100025d2:	2014      	movs	r0, #20
100025d4:	f7fe fde8 	bl	100011a8 <_ZN4LEDS4testEh>
100025d8:	201e      	movs	r0, #30
100025da:	f7fe fde5 	bl	100011a8 <_ZN4LEDS4testEh>
100025de:	2028      	movs	r0, #40	@ 0x28
100025e0:	f7fe fde2 	bl	100011a8 <_ZN4LEDS4testEh>
100025e4:	2300      	movs	r3, #0
100025e6:	7023      	strb	r3, [r4, #0]
100025e8:	bd38      	pop	{r3, r4, r5, pc}
100025ea:	f7fe f92b 	bl	10000844 <_ZN3ADC5noiseEv>
100025ee:	b280      	uxth	r0, r0
100025f0:	f7fd ff14 	bl	1000041c <_ZN6RANDOM6updateEt>
100025f4:	4816      	ldr	r0, [pc, #88]	@ (10002650 <_ZN2UI6updateEv+0xb4>)
100025f6:	f001 fca7 	bl	10003f48 <_ZN8INTERVAL15IntervalChecker13checkIntervalEv>
100025fa:	b300      	cbz	r0, 1000263e <_ZN2UI6updateEv+0xa2>
100025fc:	f004 f94e 	bl	1000689c <_ZN13NOTE_HANDLING6updateEv>
10002600:	f7fe fc50 	bl	10000ea4 <_ZN4KEYS6updateEv>
10002604:	f000 f90a 	bl	1000281c <_ZN10PAGINATION6updateEv>
10002608:	f000 ff30 	bl	1000346c <_ZN8CONTROLS6updateEv>
1000260c:	f7ff fa1a 	bl	10001a44 <_ZN4LEDS6updateEv>
10002610:	e8bd 4038 	ldmia.w	sp!, {r3, r4, r5, lr}
10002614:	f002 bb6a 	b.w	10004cec <_ZN4MIDI6updateEv>
10002618:	2301      	movs	r3, #1
1000261a:	4d0e      	ldr	r5, [pc, #56]	@ (10002654 <_ZN2UI6updateEv+0xb8>)
1000261c:	480e      	ldr	r0, [pc, #56]	@ (10002658 <_ZN2UI6updateEv+0xbc>)
1000261e:	702b      	strb	r3, [r5, #0]
10002620:	f007 fca6 	bl	10009f70 <__wrap_puts>
10002624:	782b      	ldrb	r3, [r5, #0]
10002626:	2b00      	cmp	r3, #0
10002628:	d0c4      	beq.n	100025b4 <_ZN2UI6updateEv+0x18>
1000262a:	f7fd ff7d 	bl	10000528 <_ZN3USB6updateEv>
1000262e:	782b      	ldrb	r3, [r5, #0]
10002630:	2b00      	cmp	r3, #0
10002632:	d1fa      	bne.n	1000262a <_ZN2UI6updateEv+0x8e>
10002634:	e7be      	b.n	100025b4 <_ZN2UI6updateEv+0x18>
10002636:	e8bd 4038 	ldmia.w	sp!, {r3, r4, r5, lr}
1000263a:	f7ff bedb 	b.w	100023f4 <_ZN2UI9calibrateEv>
1000263e:	f7fe fbf3 	bl	10000e28 <_ZN4KEYS4readEv>
10002642:	f7fe f8af 	bl	100007a4 <_ZN3ADC6updateEv>
10002646:	f7ff fb23 	bl	10001c90 <_ZN3MUX16incrementAddressEv>
1000264a:	e7e1      	b.n	10002610 <_ZN2UI6updateEv+0x74>
1000264c:	20030010 	.word	0x20030010
10002650:	2002f214 	.word	0x2002f214
10002654:	2003000c 	.word	0x2003000c
10002658:	1000e368 	.word	0x1000e368

1000265c <_ZN2UI4initEv>:
1000265c:	b538      	push	{r3, r4, r5, lr}
1000265e:	f001 fe1f 	bl	100042a0 <_ZN4MIDI4initEv>
10002662:	2408      	movs	r4, #8
10002664:	f7fe fcb6 	bl	10000fd4 <_ZN4LEDS4initEv>
10002668:	f7ff fac0 	bl	10001bec <_ZN3MUX4initEv>
1000266c:	f7fe fbc4 	bl	10000df8 <_ZN4KEYS4initEv>
10002670:	f7fd ffea 	bl	10000648 <_ZN3ADC4initEv>
10002674:	2510      	movs	r5, #16
10002676:	f7fe fbd7 	bl	10000e28 <_ZN4KEYS4readEv>
1000267a:	f7fe f893 	bl	100007a4 <_ZN3ADC6updateEv>
1000267e:	f7ff fb07 	bl	10001c90 <_ZN3MUX16incrementAddressEv>
10002682:	200a      	movs	r0, #10
10002684:	f005 fc0c 	bl	10007ea0 <sleep_ms>
10002688:	3d01      	subs	r5, #1
1000268a:	d1f4      	bne.n	10002676 <_ZN2UI4initEv+0x1a>
1000268c:	3c01      	subs	r4, #1
1000268e:	d1f1      	bne.n	10002674 <_ZN2UI4initEv+0x18>
10002690:	f7fe fc08 	bl	10000ea4 <_ZN4KEYS6updateEv>
10002694:	2103      	movs	r1, #3
10002696:	481a      	ldr	r0, [pc, #104]	@ (10002700 <_ZN2UI4initEv+0xa4>)
10002698:	f7fe f94a 	bl	10000930 <_ZN7Buttons6Button3getENS_5StateE>
1000269c:	b948      	cbnz	r0, 100026b2 <_ZN2UI4initEv+0x56>
1000269e:	f000 fe65 	bl	1000336c <_ZN8CONTROLS4initEv>
100026a2:	f000 f9f1 	bl	10002a88 <_ZN8CONTROLS21setupButtonAssignmentEv>
100026a6:	f7ff fe37 	bl	10002318 <_ZN2UI12printStartUpEv>
100026aa:	2201      	movs	r2, #1
100026ac:	4b15      	ldr	r3, [pc, #84]	@ (10002704 <_ZN2UI4initEv+0xa8>)
100026ae:	701a      	strb	r2, [r3, #0]
100026b0:	bd38      	pop	{r3, r4, r5, pc}
100026b2:	2103      	movs	r1, #3
100026b4:	4814      	ldr	r0, [pc, #80]	@ (10002708 <_ZN2UI4initEv+0xac>)
100026b6:	f7fe f93b 	bl	10000930 <_ZN7Buttons6Button3getENS_5StateE>
100026ba:	b950      	cbnz	r0, 100026d2 <_ZN2UI4initEv+0x76>
100026bc:	2103      	movs	r1, #3
100026be:	4813      	ldr	r0, [pc, #76]	@ (1000270c <_ZN2UI4initEv+0xb0>)
100026c0:	f7fe f936 	bl	10000930 <_ZN7Buttons6Button3getENS_5StateE>
100026c4:	b158      	cbz	r0, 100026de <_ZN2UI4initEv+0x82>
100026c6:	2201      	movs	r2, #1
100026c8:	4b11      	ldr	r3, [pc, #68]	@ (10002710 <_ZN2UI4initEv+0xb4>)
100026ca:	701a      	strb	r2, [r3, #0]
100026cc:	f7ff ff66 	bl	1000259c <_ZN2UI6updateEv>
100026d0:	e7e5      	b.n	1000269e <_ZN2UI4initEv+0x42>
100026d2:	2204      	movs	r2, #4
100026d4:	4b0e      	ldr	r3, [pc, #56]	@ (10002710 <_ZN2UI4initEv+0xb4>)
100026d6:	701a      	strb	r2, [r3, #0]
100026d8:	f7ff ff60 	bl	1000259c <_ZN2UI6updateEv>
100026dc:	e7df      	b.n	1000269e <_ZN2UI4initEv+0x42>
100026de:	2103      	movs	r1, #3
100026e0:	480c      	ldr	r0, [pc, #48]	@ (10002714 <_ZN2UI4initEv+0xb8>)
100026e2:	f7fe f925 	bl	10000930 <_ZN7Buttons6Button3getENS_5StateE>
100026e6:	b128      	cbz	r0, 100026f4 <_ZN2UI4initEv+0x98>
100026e8:	2202      	movs	r2, #2
100026ea:	4b09      	ldr	r3, [pc, #36]	@ (10002710 <_ZN2UI4initEv+0xb4>)
100026ec:	701a      	strb	r2, [r3, #0]
100026ee:	f7ff ff55 	bl	1000259c <_ZN2UI6updateEv>
100026f2:	e7d4      	b.n	1000269e <_ZN2UI4initEv+0x42>
100026f4:	2203      	movs	r2, #3
100026f6:	4b06      	ldr	r3, [pc, #24]	@ (10002710 <_ZN2UI4initEv+0xb4>)
100026f8:	701a      	strb	r2, [r3, #0]
100026fa:	f7ff ff4f 	bl	1000259c <_ZN2UI6updateEv>
100026fe:	e7ce      	b.n	1000269e <_ZN2UI4initEv+0x42>
10002700:	2002ebb4 	.word	0x2002ebb4
10002704:	20030040 	.word	0x20030040
10002708:	2002ebcc 	.word	0x2002ebcc
1000270c:	2002ebe4 	.word	0x2002ebe4
10002710:	20030010 	.word	0x20030010
10002714:	2002ebfc 	.word	0x2002ebfc

10002718 <_GLOBAL__sub_I__Z10getUSBModev>:
10002718:	2200      	movs	r2, #0
1000271a:	f46f 437e 	mvn.w	r3, #65024	@ 0xfe00
1000271e:	492e      	ldr	r1, [pc, #184]	@ (100027d8 <_GLOBAL__sub_I__Z10getUSBModev+0xc0>)
10002720:	482e      	ldr	r0, [pc, #184]	@ (100027dc <_GLOBAL__sub_I__Z10getUSBModev+0xc4>)
10002722:	b570      	push	{r4, r5, r6, lr}
10002724:	f04f 0c04 	mov.w	ip, #4
10002728:	f64a 4544 	movw	r5, #44100	@ 0xac44
1000272c:	f64f 74ff 	movw	r4, #65535	@ 0xffff
10002730:	e9c1 2306 	strd	r2, r3, [r1, #24]
10002734:	e9c1 2309 	strd	r2, r3, [r1, #36]	@ 0x24
10002738:	e9c1 230c 	strd	r2, r3, [r1, #48]	@ 0x30
1000273c:	4603      	mov	r3, r0
1000273e:	600d      	str	r5, [r1, #0]
10002740:	f8a1 4040 	strh.w	r4, [r1, #64]	@ 0x40
10002744:	82ca      	strh	r2, [r1, #22]
10002746:	844a      	strh	r2, [r1, #34]	@ 0x22
10002748:	85ca      	strh	r2, [r1, #46]	@ 0x2e
1000274a:	870a      	strh	r2, [r1, #56]	@ 0x38
1000274c:	eb01 060c 	add.w	r6, r1, ip
10002750:	f101 0508 	add.w	r5, r1, #8
10002754:	f101 040c 	add.w	r4, r1, #12
10002758:	f500 7ef0 	add.w	lr, r0, #480	@ 0x1e0
1000275c:	3110      	adds	r1, #16
1000275e:	f883 c020 	strb.w	ip, [r3, #32]
10002762:	f883 2024 	strb.w	r2, [r3, #36]	@ 0x24
10002766:	f883 2026 	strb.w	r2, [r3, #38]	@ 0x26
1000276a:	f883 2027 	strb.w	r2, [r3, #39]	@ 0x27
1000276e:	f883 2028 	strb.w	r2, [r3, #40]	@ 0x28
10002772:	e9c3 6500 	strd	r6, r5, [r3]
10002776:	e9c3 4102 	strd	r4, r1, [r3, #8]
1000277a:	e9c3 2204 	strd	r2, r2, [r3, #16]
1000277e:	e9c3 2206 	strd	r2, r2, [r3, #24]
10002782:	e9c3 220b 	strd	r2, r2, [r3, #44]	@ 0x2c
10002786:	e9c3 220d 	strd	r2, r2, [r3, #52]	@ 0x34
1000278a:	333c      	adds	r3, #60	@ 0x3c
1000278c:	459e      	cmp	lr, r3
1000278e:	d1e6      	bne.n	1000275e <_GLOBAL__sub_I__Z10getUSBModev+0x46>
10002790:	2403      	movs	r4, #3
10002792:	f8c0 21e0 	str.w	r2, [r0, #480]	@ 0x1e0
10002796:	f880 2024 	strb.w	r2, [r0, #36]	@ 0x24
1000279a:	2206      	movs	r2, #6
1000279c:	2301      	movs	r3, #1
1000279e:	2102      	movs	r1, #2
100027a0:	2505      	movs	r5, #5
100027a2:	f880 40d8 	strb.w	r4, [r0, #216]	@ 0xd8
100027a6:	2407      	movs	r4, #7
100027a8:	f880 218c 	strb.w	r2, [r0, #396]	@ 0x18c
100027ac:	2200      	movs	r2, #0
100027ae:	f880 3060 	strb.w	r3, [r0, #96]	@ 0x60
100027b2:	f880 109c 	strb.w	r1, [r0, #156]	@ 0x9c
100027b6:	4b0a      	ldr	r3, [pc, #40]	@ (100027e0 <_GLOBAL__sub_I__Z10getUSBModev+0xc8>)
100027b8:	490a      	ldr	r1, [pc, #40]	@ (100027e4 <_GLOBAL__sub_I__Z10getUSBModev+0xcc>)
100027ba:	f880 c114 	strb.w	ip, [r0, #276]	@ 0x114
100027be:	f880 5150 	strb.w	r5, [r0, #336]	@ 0x150
100027c2:	f880 41c8 	strb.w	r4, [r0, #456]	@ 0x1c8
100027c6:	f883 2103 	strb.w	r2, [r3, #259]	@ 0x103
100027ca:	701a      	strb	r2, [r3, #0]
100027cc:	f203 1305 	addw	r3, r3, #261	@ 0x105
100027d0:	428b      	cmp	r3, r1
100027d2:	d1f8      	bne.n	100027c6 <_GLOBAL__sub_I__Z10getUSBModev+0xae>
100027d4:	bd70      	pop	{r4, r5, r6, pc}
100027d6:	bf00      	nop
100027d8:	2002ce4c 	.word	0x2002ce4c
100027dc:	2002d500 	.word	0x2002d500
100027e0:	2000c178 	.word	0x2000c178
100027e4:	200102b8 	.word	0x200102b8

100027e8 <_ZN10PAGINATION7refreshEv>:
100027e8:	e92d 41f0 	stmdb	sp!, {r4, r5, r6, r7, r8, lr}
100027ec:	2400      	movs	r4, #0
100027ee:	f64f 78ff 	movw	r8, #65535	@ 0xffff
100027f2:	4627      	mov	r7, r4
100027f4:	4e07      	ldr	r6, [pc, #28]	@ (10002814 <_ZN10PAGINATION7refreshEv+0x2c>)
100027f6:	4d08      	ldr	r5, [pc, #32]	@ (10002818 <_ZN10PAGINATION7refreshEv+0x30>)
100027f8:	b2e0      	uxtb	r0, r4
100027fa:	2100      	movs	r1, #0
100027fc:	3401      	adds	r4, #1
100027fe:	f7fe fc41 	bl	10001084 <_ZN4LEDS11KNOB_selectEhb>
10002802:	2c04      	cmp	r4, #4
10002804:	f846 7b04 	str.w	r7, [r6], #4
10002808:	f825 8b02 	strh.w	r8, [r5], #2
1000280c:	d1f4      	bne.n	100027f8 <_ZN10PAGINATION7refreshEv+0x10>
1000280e:	e8bd 81f0 	ldmia.w	sp!, {r4, r5, r6, r7, r8, pc}
10002812:	bf00      	nop
10002814:	20003bdc 	.word	0x20003bdc
10002818:	20003bec 	.word	0x20003bec

1000281c <_ZN10PAGINATION6updateEv>:
1000281c:	e92d 4ff8 	stmdb	sp!, {r3, r4, r5, r6, r7, r8, r9, sl, fp, lr}
10002820:	f000 faba 	bl	10002d98 <_ZN8CONTROLS7getPageEv>
10002824:	2500      	movs	r5, #0
10002826:	f04f 0a01 	mov.w	sl, #1
1000282a:	4681      	mov	r9, r0
1000282c:	4f1e      	ldr	r7, [pc, #120]	@ (100028a8 <_ZN10PAGINATION6updateEv+0x8c>)
1000282e:	4e1f      	ldr	r6, [pc, #124]	@ (100028ac <_ZN10PAGINATION6updateEv+0x90>)
10002830:	f8df 807c 	ldr.w	r8, [pc, #124]	@ 100028b0 <_ZN10PAGINATION6updateEv+0x94>
10002834:	4628      	mov	r0, r5
10002836:	f7fd ffff 	bl	10000838 <_ZN3ADC5valueEi>
1000283a:	4604      	mov	r4, r0
1000283c:	fa5f fb85 	uxtb.w	fp, r5
10002840:	4659      	mov	r1, fp
10002842:	4648      	mov	r0, r9
10002844:	f8a8 4000 	strh.w	r4, [r8]
10002848:	f000 fc0a 	bl	10003060 <_ZN8CONTROLS7getKnobEhh>
1000284c:	1a20      	subs	r0, r4, r0
1000284e:	2800      	cmp	r0, #0
10002850:	bfb8      	it	lt
10002852:	4240      	neglt	r0, r0
10002854:	2804      	cmp	r0, #4
10002856:	dc22      	bgt.n	1000289e <_ZN10PAGINATION6updateEv+0x82>
10002858:	f9b7 2000 	ldrsh.w	r2, [r7]
1000285c:	f8b8 3000 	ldrh.w	r3, [r8]
10002860:	4293      	cmp	r3, r2
10002862:	d01c      	beq.n	1000289e <_ZN10PAGINATION6updateEv+0x82>
10002864:	6832      	ldr	r2, [r6, #0]
10002866:	2a01      	cmp	r2, #1
10002868:	d110      	bne.n	1000288c <_ZN10PAGINATION6updateEv+0x70>
1000286a:	803b      	strh	r3, [r7, #0]
1000286c:	2300      	movs	r3, #0
1000286e:	4659      	mov	r1, fp
10002870:	4648      	mov	r0, r9
10002872:	f8b8 2000 	ldrh.w	r2, [r8]
10002876:	f000 fa9f 	bl	10002db8 <_ZN8CONTROLS7setKnobEhhtb>
1000287a:	3501      	adds	r5, #1
1000287c:	2d04      	cmp	r5, #4
1000287e:	f107 0702 	add.w	r7, r7, #2
10002882:	f106 0604 	add.w	r6, r6, #4
10002886:	d1d5      	bne.n	10002834 <_ZN10PAGINATION6updateEv+0x18>
10002888:	e8bd 8ff8 	ldmia.w	sp!, {r3, r4, r5, r6, r7, r8, r9, sl, fp, pc}
1000288c:	2101      	movs	r1, #1
1000288e:	4658      	mov	r0, fp
10002890:	f8c6 a000 	str.w	sl, [r6]
10002894:	f7fe fbf6 	bl	10001084 <_ZN4LEDS11KNOB_selectEhb>
10002898:	f8b8 3000 	ldrh.w	r3, [r8]
1000289c:	803b      	strh	r3, [r7, #0]
1000289e:	6833      	ldr	r3, [r6, #0]
100028a0:	2b01      	cmp	r3, #1
100028a2:	d1ea      	bne.n	1000287a <_ZN10PAGINATION6updateEv+0x5e>
100028a4:	e7e2      	b.n	1000286c <_ZN10PAGINATION6updateEv+0x50>
100028a6:	bf00      	nop
100028a8:	20003bec 	.word	0x20003bec
100028ac:	20003bdc 	.word	0x20003bdc
100028b0:	2002fff0 	.word	0x2002fff0

100028b4 <_ZN10PAGINATION4initEv>:
100028b4:	f7ff bfb2 	b.w	1000281c <_ZN10PAGINATION6updateEv>

100028b8 <_GLOBAL__sub_I__ZN10PAGINATION4initEv>:
100028b8:	2200      	movs	r2, #0
100028ba:	f46f 437e 	mvn.w	r3, #65024	@ 0xfe00
100028be:	492e      	ldr	r1, [pc, #184]	@ (10002978 <_GLOBAL__sub_I__ZN10PAGINATION4initEv+0xc0>)
100028c0:	482e      	ldr	r0, [pc, #184]	@ (1000297c <_GLOBAL__sub_I__ZN10PAGINATION4initEv+0xc4>)
100028c2:	b570      	push	{r4, r5, r6, lr}
100028c4:	f04f 0c04 	mov.w	ip, #4
100028c8:	f64a 4544 	movw	r5, #44100	@ 0xac44
100028cc:	f64f 74ff 	movw	r4, #65535	@ 0xffff
100028d0:	e9c1 2306 	strd	r2, r3, [r1, #24]
100028d4:	e9c1 2309 	strd	r2, r3, [r1, #36]	@ 0x24
100028d8:	e9c1 230c 	strd	r2, r3, [r1, #48]	@ 0x30
100028dc:	4603      	mov	r3, r0
100028de:	600d      	str	r5, [r1, #0]
100028e0:	f8a1 4040 	strh.w	r4, [r1, #64]	@ 0x40
100028e4:	82ca      	strh	r2, [r1, #22]
100028e6:	844a      	strh	r2, [r1, #34]	@ 0x22
100028e8:	85ca      	strh	r2, [r1, #46]	@ 0x2e
100028ea:	870a      	strh	r2, [r1, #56]	@ 0x38
100028ec:	eb01 060c 	add.w	r6, r1, ip
100028f0:	f101 0508 	add.w	r5, r1, #8
100028f4:	f101 040c 	add.w	r4, r1, #12
100028f8:	f500 7ef0 	add.w	lr, r0, #480	@ 0x1e0
100028fc:	3110      	adds	r1, #16
100028fe:	f883 c020 	strb.w	ip, [r3, #32]
10002902:	f883 2024 	strb.w	r2, [r3, #36]	@ 0x24
10002906:	f883 2026 	strb.w	r2, [r3, #38]	@ 0x26
1000290a:	f883 2027 	strb.w	r2, [r3, #39]	@ 0x27
1000290e:	f883 2028 	strb.w	r2, [r3, #40]	@ 0x28
10002912:	e9c3 6500 	strd	r6, r5, [r3]
10002916:	e9c3 4102 	strd	r4, r1, [r3, #8]
1000291a:	e9c3 2204 	strd	r2, r2, [r3, #16]
1000291e:	e9c3 2206 	strd	r2, r2, [r3, #24]
10002922:	e9c3 220b 	strd	r2, r2, [r3, #44]	@ 0x2c
10002926:	e9c3 220d 	strd	r2, r2, [r3, #52]	@ 0x34
1000292a:	333c      	adds	r3, #60	@ 0x3c
1000292c:	459e      	cmp	lr, r3
1000292e:	d1e6      	bne.n	100028fe <_GLOBAL__sub_I__ZN10PAGINATION4initEv+0x46>
10002930:	2403      	movs	r4, #3
10002932:	f8c0 21e0 	str.w	r2, [r0, #480]	@ 0x1e0
10002936:	f880 2024 	strb.w	r2, [r0, #36]	@ 0x24
1000293a:	2206      	movs	r2, #6
1000293c:	2301      	movs	r3, #1
1000293e:	2102      	movs	r1, #2
10002940:	2505      	movs	r5, #5
10002942:	f880 40d8 	strb.w	r4, [r0, #216]	@ 0xd8
10002946:	2407      	movs	r4, #7
10002948:	f880 218c 	strb.w	r2, [r0, #396]	@ 0x18c
1000294c:	2200      	movs	r2, #0
1000294e:	f880 3060 	strb.w	r3, [r0, #96]	@ 0x60
10002952:	f880 109c 	strb.w	r1, [r0, #156]	@ 0x9c
10002956:	4b0a      	ldr	r3, [pc, #40]	@ (10002980 <_GLOBAL__sub_I__ZN10PAGINATION4initEv+0xc8>)
10002958:	490a      	ldr	r1, [pc, #40]	@ (10002984 <_GLOBAL__sub_I__ZN10PAGINATION4initEv+0xcc>)
1000295a:	f880 c114 	strb.w	ip, [r0, #276]	@ 0x114
1000295e:	f880 5150 	strb.w	r5, [r0, #336]	@ 0x150
10002962:	f880 41c8 	strb.w	r4, [r0, #456]	@ 0x1c8
10002966:	f883 2103 	strb.w	r2, [r3, #259]	@ 0x103
1000296a:	701a      	strb	r2, [r3, #0]
1000296c:	f203 1305 	addw	r3, r3, #261	@ 0x105
10002970:	428b      	cmp	r3, r1
10002972:	d1f8      	bne.n	10002966 <_GLOBAL__sub_I__ZN10PAGINATION4initEv+0xae>
10002974:	bd70      	pop	{r4, r5, r6, pc}
10002976:	bf00      	nop
10002978:	2002ce90 	.word	0x2002ce90
1000297c:	2002d6e4 	.word	0x2002d6e4
10002980:	200102b8 	.word	0x200102b8
10002984:	200143f8 	.word	0x200143f8

10002988 <_ZN8CONTROLS11holdButton1Ev>:
10002988:	4770      	bx	lr
1000298a:	bf00      	nop

1000298c <_ZN8CONTROLS19exportCurrentPresetEv>:
1000298c:	4a03      	ldr	r2, [pc, #12]	@ (1000299c <_ZN8CONTROLS19exportCurrentPresetEv+0x10>)
1000298e:	4b04      	ldr	r3, [pc, #16]	@ (100029a0 <_ZN8CONTROLS19exportCurrentPresetEv+0x14>)
10002990:	7810      	ldrb	r0, [r2, #0]
10002992:	eb03 10c0 	add.w	r0, r3, r0, lsl #7
10002996:	f001 b8c1 	b.w	10003b1c <_ZN6PRESET14exportViaSysExERKNS_11SynthPresetE>
1000299a:	bf00      	nop
1000299c:	20030035 	.word	0x20030035
100029a0:	2002ecac 	.word	0x2002ecac

100029a4 <_ZN8CONTROLS11holdButton2Ev>:
100029a4:	4770      	bx	lr
100029a6:	bf00      	nop

100029a8 <_ZN8CONTROLS13toggleButton1Ev>:
100029a8:	b538      	push	{r3, r4, r5, lr}
100029aa:	4b17      	ldr	r3, [pc, #92]	@ (10002a08 <_ZN8CONTROLS13toggleButton1Ev+0x60>)
100029ac:	781c      	ldrb	r4, [r3, #0]
100029ae:	b9ac      	cbnz	r4, 100029dc <_ZN8CONTROLS13toggleButton1Ev+0x34>
100029b0:	4d16      	ldr	r5, [pc, #88]	@ (10002a0c <_ZN8CONTROLS13toggleButton1Ev+0x64>)
100029b2:	f8d5 30c0 	ldr.w	r3, [r5, #192]	@ 0xc0
100029b6:	b15b      	cbz	r3, 100029d0 <_ZN8CONTROLS13toggleButton1Ev+0x28>
100029b8:	f895 00bc 	ldrb.w	r0, [r5, #188]	@ 0xbc
100029bc:	f080 0001 	eor.w	r0, r0, #1
100029c0:	f885 00bc 	strb.w	r0, [r5, #188]	@ 0xbc
100029c4:	4798      	blx	r3
100029c6:	f8d5 30c0 	ldr.w	r3, [r5, #192]	@ 0xc0
100029ca:	b10b      	cbz	r3, 100029d0 <_ZN8CONTROLS13toggleButton1Ev+0x28>
100029cc:	f895 40bc 	ldrb.w	r4, [r5, #188]	@ 0xbc
100029d0:	4b0f      	ldr	r3, [pc, #60]	@ (10002a10 <_ZN8CONTROLS13toggleButton1Ev+0x68>)
100029d2:	781a      	ldrb	r2, [r3, #0]
100029d4:	705c      	strb	r4, [r3, #1]
100029d6:	ec44 2040 	gpioc_bit_out_put r2, r4
100029da:	bd38      	pop	{r3, r4, r5, pc}
100029dc:	4c0b      	ldr	r4, [pc, #44]	@ (10002a0c <_ZN8CONTROLS13toggleButton1Ev+0x64>)
100029de:	6f23      	ldr	r3, [r4, #112]	@ 0x70
100029e0:	b183      	cbz	r3, 10002a04 <_ZN8CONTROLS13toggleButton1Ev+0x5c>
100029e2:	f894 006c 	ldrb.w	r0, [r4, #108]	@ 0x6c
100029e6:	f080 0001 	eor.w	r0, r0, #1
100029ea:	f884 006c 	strb.w	r0, [r4, #108]	@ 0x6c
100029ee:	4798      	blx	r3
100029f0:	6f23      	ldr	r3, [r4, #112]	@ 0x70
100029f2:	b13b      	cbz	r3, 10002a04 <_ZN8CONTROLS13toggleButton1Ev+0x5c>
100029f4:	f894 306c 	ldrb.w	r3, [r4, #108]	@ 0x6c
100029f8:	4a05      	ldr	r2, [pc, #20]	@ (10002a10 <_ZN8CONTROLS13toggleButton1Ev+0x68>)
100029fa:	7053      	strb	r3, [r2, #1]
100029fc:	7812      	ldrb	r2, [r2, #0]
100029fe:	ec43 2040 	gpioc_bit_out_put r2, r3
10002a02:	bd38      	pop	{r3, r4, r5, pc}
10002a04:	2300      	movs	r3, #0
10002a06:	e7f7      	b.n	100029f8 <_ZN8CONTROLS13toggleButton1Ev+0x50>
10002a08:	20030037 	.word	0x20030037
10002a0c:	2002f0ac 	.word	0x2002f0ac
10002a10:	20003e40 	.word	0x20003e40

10002a14 <_ZN8CONTROLS13toggleButton2Ev>:
10002a14:	b538      	push	{r3, r4, r5, lr}
10002a16:	4b18      	ldr	r3, [pc, #96]	@ (10002a78 <_ZN8CONTROLS13toggleButton2Ev+0x64>)
10002a18:	781c      	ldrb	r4, [r3, #0]
10002a1a:	b9c4      	cbnz	r4, 10002a4e <_ZN8CONTROLS13toggleButton2Ev+0x3a>
10002a1c:	4d17      	ldr	r5, [pc, #92]	@ (10002a7c <_ZN8CONTROLS13toggleButton2Ev+0x68>)
10002a1e:	f8d5 3110 	ldr.w	r3, [r5, #272]	@ 0x110
10002a22:	b15b      	cbz	r3, 10002a3c <_ZN8CONTROLS13toggleButton2Ev+0x28>
10002a24:	f895 010c 	ldrb.w	r0, [r5, #268]	@ 0x10c
10002a28:	f080 0001 	eor.w	r0, r0, #1
10002a2c:	f885 010c 	strb.w	r0, [r5, #268]	@ 0x10c
10002a30:	4798      	blx	r3
10002a32:	f8d5 3110 	ldr.w	r3, [r5, #272]	@ 0x110
10002a36:	b10b      	cbz	r3, 10002a3c <_ZN8CONTROLS13toggleButton2Ev+0x28>
10002a38:	f895 410c 	ldrb.w	r4, [r5, #268]	@ 0x10c
10002a3c:	4b10      	ldr	r3, [pc, #64]	@ (10002a80 <_ZN8CONTROLS13toggleButton2Ev+0x6c>)
10002a3e:	781a      	ldrb	r2, [r3, #0]
10002a40:	705c      	strb	r4, [r3, #1]
10002a42:	ec44 2040 	gpioc_bit_out_put r2, r4
10002a46:	2201      	movs	r2, #1
10002a48:	4b0e      	ldr	r3, [pc, #56]	@ (10002a84 <_ZN8CONTROLS13toggleButton2Ev+0x70>)
10002a4a:	701a      	strb	r2, [r3, #0]
10002a4c:	bd38      	pop	{r3, r4, r5, pc}
10002a4e:	f002 fee7 	bl	10005820 <_ZN3ARP10toggleHoldEv>
10002a52:	f002 fef3 	bl	1000583c <_ZN3ARP7getHoldEv>
10002a56:	4b0a      	ldr	r3, [pc, #40]	@ (10002a80 <_ZN8CONTROLS13toggleButton2Ev+0x6c>)
10002a58:	781a      	ldrb	r2, [r3, #0]
10002a5a:	7058      	strb	r0, [r3, #1]
10002a5c:	ec40 2040 	gpioc_bit_out_put r2, r0
10002a60:	2240      	movs	r2, #64	@ 0x40
10002a62:	2108      	movs	r1, #8
10002a64:	80da      	strh	r2, [r3, #6]
10002a66:	2201      	movs	r2, #1
10002a68:	f080 0001 	eor.w	r0, r0, #1
10002a6c:	7218      	strb	r0, [r3, #8]
10002a6e:	7119      	strb	r1, [r3, #4]
10002a70:	4b04      	ldr	r3, [pc, #16]	@ (10002a84 <_ZN8CONTROLS13toggleButton2Ev+0x70>)
10002a72:	701a      	strb	r2, [r3, #0]
10002a74:	bd38      	pop	{r3, r4, r5, pc}
10002a76:	bf00      	nop
10002a78:	20030037 	.word	0x20030037
10002a7c:	2002f0ac 	.word	0x2002f0ac
10002a80:	20003e4c 	.word	0x20003e4c
10002a84:	20030036 	.word	0x20030036

10002a88 <_ZN8CONTROLS21setupButtonAssignmentEv>:
10002a88:	b410      	push	{r4}
10002a8a:	480a      	ldr	r0, [pc, #40]	@ (10002ab4 <_ZN8CONTROLS21setupButtonAssignmentEv+0x2c>)
10002a8c:	4c0a      	ldr	r4, [pc, #40]	@ (10002ab8 <_ZN8CONTROLS21setupButtonAssignmentEv+0x30>)
10002a8e:	490b      	ldr	r1, [pc, #44]	@ (10002abc <_ZN8CONTROLS21setupButtonAssignmentEv+0x34>)
10002a90:	6104      	str	r4, [r0, #16]
10002a92:	4c0b      	ldr	r4, [pc, #44]	@ (10002ac0 <_ZN8CONTROLS21setupButtonAssignmentEv+0x38>)
10002a94:	480b      	ldr	r0, [pc, #44]	@ (10002ac4 <_ZN8CONTROLS21setupButtonAssignmentEv+0x3c>)
10002a96:	4a0c      	ldr	r2, [pc, #48]	@ (10002ac8 <_ZN8CONTROLS21setupButtonAssignmentEv+0x40>)
10002a98:	e9c1 4004 	strd	r4, r0, [r1, #16]
10002a9c:	4c0b      	ldr	r4, [pc, #44]	@ (10002acc <_ZN8CONTROLS21setupButtonAssignmentEv+0x44>)
10002a9e:	480c      	ldr	r0, [pc, #48]	@ (10002ad0 <_ZN8CONTROLS21setupButtonAssignmentEv+0x48>)
10002aa0:	4b0c      	ldr	r3, [pc, #48]	@ (10002ad4 <_ZN8CONTROLS21setupButtonAssignmentEv+0x4c>)
10002aa2:	e9c2 4004 	strd	r4, r0, [r2, #16]
10002aa6:	490c      	ldr	r1, [pc, #48]	@ (10002ad8 <_ZN8CONTROLS21setupButtonAssignmentEv+0x50>)
10002aa8:	4a0c      	ldr	r2, [pc, #48]	@ (10002adc <_ZN8CONTROLS21setupButtonAssignmentEv+0x54>)
10002aaa:	f85d 4b04 	ldr.w	r4, [sp], #4
10002aae:	e9c3 1204 	strd	r1, r2, [r3, #16]
10002ab2:	4770      	bx	lr
10002ab4:	2002ebb4 	.word	0x2002ebb4
10002ab8:	10003335 	.word	0x10003335
10002abc:	2002ebcc 	.word	0x2002ebcc
10002ac0:	100029a9 	.word	0x100029a9
10002ac4:	10002989 	.word	0x10002989
10002ac8:	2002ebe4 	.word	0x2002ebe4
10002acc:	10002a15 	.word	0x10002a15
10002ad0:	100029a5 	.word	0x100029a5
10002ad4:	2002ebfc 	.word	0x2002ebfc
10002ad8:	100033d1 	.word	0x100033d1
10002adc:	1000298d 	.word	0x1000298d

10002ae0 <_ZN8CONTROLS21applyPresetToControlsERN6PRESET11SynthPresetE>:
10002ae0:	b570      	push	{r4, r5, r6, lr}
10002ae2:	4605      	mov	r5, r0
10002ae4:	2301      	movs	r3, #1
10002ae6:	f04f 3601 	mov.w	r6, #16843009	@ 0x1010101
10002aea:	4c5d      	ldr	r4, [pc, #372]	@ (10002c60 <_ZN8CONTROLS21applyPresetToControlsERN6PRESET11SynthPresetE+0x180>)
10002aec:	88c1      	ldrh	r1, [r0, #6]
10002aee:	8ac0      	ldrh	r0, [r0, #22]
10002af0:	8021      	strh	r1, [r4, #0]
10002af2:	8929      	ldrh	r1, [r5, #8]
10002af4:	6f22      	ldr	r2, [r4, #112]	@ 0x70
10002af6:	8061      	strh	r1, [r4, #2]
10002af8:	8be9      	ldrh	r1, [r5, #30]
10002afa:	60a6      	str	r6, [r4, #8]
10002afc:	80a1      	strh	r1, [r4, #4]
10002afe:	8c29      	ldrh	r1, [r5, #32]
10002b00:	8520      	strh	r0, [r4, #40]	@ 0x28
10002b02:	80e1      	strh	r1, [r4, #6]
10002b04:	8b29      	ldrh	r1, [r5, #24]
10002b06:	f884 3030 	strb.w	r3, [r4, #48]	@ 0x30
10002b0a:	8561      	strh	r1, [r4, #42]	@ 0x2a
10002b0c:	8b69      	ldrh	r1, [r5, #26]
10002b0e:	f884 3031 	strb.w	r3, [r4, #49]	@ 0x31
10002b12:	85a1      	strh	r1, [r4, #44]	@ 0x2c
10002b14:	8ba9      	ldrh	r1, [r5, #28]
10002b16:	f884 3032 	strb.w	r3, [r4, #50]	@ 0x32
10002b1a:	f884 3033 	strb.w	r3, [r4, #51]	@ 0x33
10002b1e:	85e1      	strh	r1, [r4, #46]	@ 0x2e
10002b20:	b11a      	cbz	r2, 10002b2a <_ZN8CONTROLS21applyPresetToControlsERN6PRESET11SynthPresetE+0x4a>
10002b22:	78e8      	ldrb	r0, [r5, #3]
10002b24:	f884 006c 	strb.w	r0, [r4, #108]	@ 0x6c
10002b28:	4790      	blx	r2
10002b2a:	2301      	movs	r3, #1
10002b2c:	f8b5 1046 	ldrh.w	r1, [r5, #70]	@ 0x46
10002b30:	f8d4 20c0 	ldr.w	r2, [r4, #192]	@ 0xc0
10002b34:	f8a4 1050 	strh.w	r1, [r4, #80]	@ 0x50
10002b38:	f8b5 1048 	ldrh.w	r1, [r5, #72]	@ 0x48
10002b3c:	f8a4 1052 	strh.w	r1, [r4, #82]	@ 0x52
10002b40:	f8b5 104a 	ldrh.w	r1, [r5, #74]	@ 0x4a
10002b44:	f8a4 1054 	strh.w	r1, [r4, #84]	@ 0x54
10002b48:	f8b5 104c 	ldrh.w	r1, [r5, #76]	@ 0x4c
10002b4c:	f8a4 1056 	strh.w	r1, [r4, #86]	@ 0x56
10002b50:	f8b5 1056 	ldrh.w	r1, [r5, #86]	@ 0x56
10002b54:	f8a4 1078 	strh.w	r1, [r4, #120]	@ 0x78
10002b58:	f8b5 1058 	ldrh.w	r1, [r5, #88]	@ 0x58
10002b5c:	f884 3058 	strb.w	r3, [r4, #88]	@ 0x58
10002b60:	f8a4 107a 	strh.w	r1, [r4, #122]	@ 0x7a
10002b64:	f8b5 105a 	ldrh.w	r1, [r5, #90]	@ 0x5a
10002b68:	f884 3059 	strb.w	r3, [r4, #89]	@ 0x59
10002b6c:	f8a4 107c 	strh.w	r1, [r4, #124]	@ 0x7c
10002b70:	f8b5 105c 	ldrh.w	r1, [r5, #92]	@ 0x5c
10002b74:	f884 305a 	strb.w	r3, [r4, #90]	@ 0x5a
10002b78:	f8a4 107e 	strh.w	r1, [r4, #126]	@ 0x7e
10002b7c:	f884 305b 	strb.w	r3, [r4, #91]	@ 0x5b
10002b80:	f884 3080 	strb.w	r3, [r4, #128]	@ 0x80
10002b84:	f884 3081 	strb.w	r3, [r4, #129]	@ 0x81
10002b88:	f884 3082 	strb.w	r3, [r4, #130]	@ 0x82
10002b8c:	f884 3083 	strb.w	r3, [r4, #131]	@ 0x83
10002b90:	b11a      	cbz	r2, 10002b9a <_ZN8CONTROLS21applyPresetToControlsERN6PRESET11SynthPresetE+0xba>
10002b92:	78a8      	ldrb	r0, [r5, #2]
10002b94:	f884 00bc 	strb.w	r0, [r4, #188]	@ 0xbc
10002b98:	4790      	blx	r2
10002b9a:	2301      	movs	r3, #1
10002b9c:	8d69      	ldrh	r1, [r5, #42]	@ 0x2a
10002b9e:	f8d4 2110 	ldr.w	r2, [r4, #272]	@ 0x110
10002ba2:	f8a4 10a0 	strh.w	r1, [r4, #160]	@ 0xa0
10002ba6:	8da9      	ldrh	r1, [r5, #44]	@ 0x2c
10002ba8:	f8a4 10a2 	strh.w	r1, [r4, #162]	@ 0xa2
10002bac:	8de9      	ldrh	r1, [r5, #46]	@ 0x2e
10002bae:	f8a4 10a4 	strh.w	r1, [r4, #164]	@ 0xa4
10002bb2:	8e29      	ldrh	r1, [r5, #48]	@ 0x30
10002bb4:	f8a4 10a6 	strh.w	r1, [r4, #166]	@ 0xa6
10002bb8:	88e9      	ldrh	r1, [r5, #6]
10002bba:	f8a4 10c8 	strh.w	r1, [r4, #200]	@ 0xc8
10002bbe:	8ca9      	ldrh	r1, [r5, #36]	@ 0x24
10002bc0:	f8a4 10ca 	strh.w	r1, [r4, #202]	@ 0xca
10002bc4:	f8b5 1076 	ldrh.w	r1, [r5, #118]	@ 0x76
10002bc8:	f8a4 10cc 	strh.w	r1, [r4, #204]	@ 0xcc
10002bcc:	8c69      	ldrh	r1, [r5, #34]	@ 0x22
10002bce:	f884 30a8 	strb.w	r3, [r4, #168]	@ 0xa8
10002bd2:	f8a4 10ce 	strh.w	r1, [r4, #206]	@ 0xce
10002bd6:	f884 30a9 	strb.w	r3, [r4, #169]	@ 0xa9
10002bda:	f884 30aa 	strb.w	r3, [r4, #170]	@ 0xaa
10002bde:	f884 30ab 	strb.w	r3, [r4, #171]	@ 0xab
10002be2:	f884 30d0 	strb.w	r3, [r4, #208]	@ 0xd0
10002be6:	f884 30d1 	strb.w	r3, [r4, #209]	@ 0xd1
10002bea:	f884 30d2 	strb.w	r3, [r4, #210]	@ 0xd2
10002bee:	f884 30d3 	strb.w	r3, [r4, #211]	@ 0xd3
10002bf2:	b11a      	cbz	r2, 10002bfc <_ZN8CONTROLS21applyPresetToControlsERN6PRESET11SynthPresetE+0x11c>
10002bf4:	7928      	ldrb	r0, [r5, #4]
10002bf6:	f884 010c 	strb.w	r0, [r4, #268]	@ 0x10c
10002bfa:	4790      	blx	r2
10002bfc:	2301      	movs	r3, #1
10002bfe:	f8b5 2062 	ldrh.w	r2, [r5, #98]	@ 0x62
10002c02:	f8a4 20f0 	strh.w	r2, [r4, #240]	@ 0xf0
10002c06:	f8b5 2064 	ldrh.w	r2, [r5, #100]	@ 0x64
10002c0a:	f8a4 20f2 	strh.w	r2, [r4, #242]	@ 0xf2
10002c0e:	f8b5 2066 	ldrh.w	r2, [r5, #102]	@ 0x66
10002c12:	f8a4 20f4 	strh.w	r2, [r4, #244]	@ 0xf4
10002c16:	f8b5 2068 	ldrh.w	r2, [r5, #104]	@ 0x68
10002c1a:	f8a4 20f6 	strh.w	r2, [r4, #246]	@ 0xf6
10002c1e:	f8b5 2070 	ldrh.w	r2, [r5, #112]	@ 0x70
10002c22:	f8a4 2118 	strh.w	r2, [r4, #280]	@ 0x118
10002c26:	f8b5 206a 	ldrh.w	r2, [r5, #106]	@ 0x6a
10002c2a:	f8a4 211a 	strh.w	r2, [r4, #282]	@ 0x11a
10002c2e:	f8b5 2054 	ldrh.w	r2, [r5, #84]	@ 0x54
10002c32:	f8a4 211c 	strh.w	r2, [r4, #284]	@ 0x11c
10002c36:	f8b5 206e 	ldrh.w	r2, [r5, #110]	@ 0x6e
10002c3a:	f884 30f8 	strb.w	r3, [r4, #248]	@ 0xf8
10002c3e:	f8a4 211e 	strh.w	r2, [r4, #286]	@ 0x11e
10002c42:	f884 30f9 	strb.w	r3, [r4, #249]	@ 0xf9
10002c46:	f884 30fa 	strb.w	r3, [r4, #250]	@ 0xfa
10002c4a:	f884 30fb 	strb.w	r3, [r4, #251]	@ 0xfb
10002c4e:	f884 3120 	strb.w	r3, [r4, #288]	@ 0x120
10002c52:	f884 3121 	strb.w	r3, [r4, #289]	@ 0x121
10002c56:	f884 3122 	strb.w	r3, [r4, #290]	@ 0x122
10002c5a:	f884 3123 	strb.w	r3, [r4, #291]	@ 0x123
10002c5e:	bd70      	pop	{r4, r5, r6, pc}
10002c60:	2002f0ac 	.word	0x2002f0ac

10002c64 <_ZN8CONTROLS25extractPresetFromControlsERN6PRESET11SynthPresetE>:
10002c64:	4b44      	ldr	r3, [pc, #272]	@ (10002d78 <_ZN8CONTROLS25extractPresetFromControlsERN6PRESET11SynthPresetE+0x114>)
10002c66:	b500      	push	{lr}
10002c68:	f8b3 e000 	ldrh.w	lr, [r3]
10002c6c:	8859      	ldrh	r1, [r3, #2]
10002c6e:	6f1a      	ldr	r2, [r3, #112]	@ 0x70
10002c70:	f8a0 e006 	strh.w	lr, [r0, #6]
10002c74:	8101      	strh	r1, [r0, #8]
10002c76:	f8b3 c004 	ldrh.w	ip, [r3, #4]
10002c7a:	88d9      	ldrh	r1, [r3, #6]
10002c7c:	f8a0 c01e 	strh.w	ip, [r0, #30]
10002c80:	8401      	strh	r1, [r0, #32]
10002c82:	8d19      	ldrh	r1, [r3, #40]	@ 0x28
10002c84:	82c1      	strh	r1, [r0, #22]
10002c86:	8d59      	ldrh	r1, [r3, #42]	@ 0x2a
10002c88:	8301      	strh	r1, [r0, #24]
10002c8a:	8d99      	ldrh	r1, [r3, #44]	@ 0x2c
10002c8c:	8341      	strh	r1, [r0, #26]
10002c8e:	8dd9      	ldrh	r1, [r3, #46]	@ 0x2e
10002c90:	8381      	strh	r1, [r0, #28]
10002c92:	2a00      	cmp	r2, #0
10002c94:	d06c      	beq.n	10002d70 <_ZN8CONTROLS25extractPresetFromControlsERN6PRESET11SynthPresetE+0x10c>
10002c96:	f893 106c 	ldrb.w	r1, [r3, #108]	@ 0x6c
10002c9a:	f8b3 c050 	ldrh.w	ip, [r3, #80]	@ 0x50
10002c9e:	f8d3 20c0 	ldr.w	r2, [r3, #192]	@ 0xc0
10002ca2:	f8a0 c046 	strh.w	ip, [r0, #70]	@ 0x46
10002ca6:	f8b3 c052 	ldrh.w	ip, [r3, #82]	@ 0x52
10002caa:	70c1      	strb	r1, [r0, #3]
10002cac:	f8a0 c048 	strh.w	ip, [r0, #72]	@ 0x48
10002cb0:	f8b3 1054 	ldrh.w	r1, [r3, #84]	@ 0x54
10002cb4:	f8a0 104a 	strh.w	r1, [r0, #74]	@ 0x4a
10002cb8:	f8b3 1056 	ldrh.w	r1, [r3, #86]	@ 0x56
10002cbc:	f8a0 104c 	strh.w	r1, [r0, #76]	@ 0x4c
10002cc0:	f8b3 1078 	ldrh.w	r1, [r3, #120]	@ 0x78
10002cc4:	f8a0 1056 	strh.w	r1, [r0, #86]	@ 0x56
10002cc8:	f8b3 107a 	ldrh.w	r1, [r3, #122]	@ 0x7a
10002ccc:	f8a0 1058 	strh.w	r1, [r0, #88]	@ 0x58
10002cd0:	f8b3 107c 	ldrh.w	r1, [r3, #124]	@ 0x7c
10002cd4:	f8a0 105a 	strh.w	r1, [r0, #90]	@ 0x5a
10002cd8:	f8b3 107e 	ldrh.w	r1, [r3, #126]	@ 0x7e
10002cdc:	f8a0 105c 	strh.w	r1, [r0, #92]	@ 0x5c
10002ce0:	2a00      	cmp	r2, #0
10002ce2:	d047      	beq.n	10002d74 <_ZN8CONTROLS25extractPresetFromControlsERN6PRESET11SynthPresetE+0x110>
10002ce4:	f893 10bc 	ldrb.w	r1, [r3, #188]	@ 0xbc
10002ce8:	f8b3 c0a0 	ldrh.w	ip, [r3, #160]	@ 0xa0
10002cec:	f8d3 2110 	ldr.w	r2, [r3, #272]	@ 0x110
10002cf0:	f8a0 c02a 	strh.w	ip, [r0, #42]	@ 0x2a
10002cf4:	f8b3 c0a2 	ldrh.w	ip, [r3, #162]	@ 0xa2
10002cf8:	7081      	strb	r1, [r0, #2]
10002cfa:	f8a0 c02c 	strh.w	ip, [r0, #44]	@ 0x2c
10002cfe:	f8b3 10a4 	ldrh.w	r1, [r3, #164]	@ 0xa4
10002d02:	85c1      	strh	r1, [r0, #46]	@ 0x2e
10002d04:	f8b3 10a6 	ldrh.w	r1, [r3, #166]	@ 0xa6
10002d08:	8601      	strh	r1, [r0, #48]	@ 0x30
10002d0a:	f8b3 10c8 	ldrh.w	r1, [r3, #200]	@ 0xc8
10002d0e:	81c1      	strh	r1, [r0, #14]
10002d10:	f8b3 10ca 	ldrh.w	r1, [r3, #202]	@ 0xca
10002d14:	8481      	strh	r1, [r0, #36]	@ 0x24
10002d16:	f8b3 10cc 	ldrh.w	r1, [r3, #204]	@ 0xcc
10002d1a:	f8a0 1076 	strh.w	r1, [r0, #118]	@ 0x76
10002d1e:	f8b3 10ce 	ldrh.w	r1, [r3, #206]	@ 0xce
10002d22:	8441      	strh	r1, [r0, #34]	@ 0x22
10002d24:	b10a      	cbz	r2, 10002d2a <_ZN8CONTROLS25extractPresetFromControlsERN6PRESET11SynthPresetE+0xc6>
10002d26:	f893 210c 	ldrb.w	r2, [r3, #268]	@ 0x10c
10002d2a:	f8b3 10f0 	ldrh.w	r1, [r3, #240]	@ 0xf0
10002d2e:	7102      	strb	r2, [r0, #4]
10002d30:	f8a0 1062 	strh.w	r1, [r0, #98]	@ 0x62
10002d34:	f8b3 20f2 	ldrh.w	r2, [r3, #242]	@ 0xf2
10002d38:	f8a0 2064 	strh.w	r2, [r0, #100]	@ 0x64
10002d3c:	f8b3 20f4 	ldrh.w	r2, [r3, #244]	@ 0xf4
10002d40:	f8a0 2066 	strh.w	r2, [r0, #102]	@ 0x66
10002d44:	f8b3 20f6 	ldrh.w	r2, [r3, #246]	@ 0xf6
10002d48:	f8a0 2068 	strh.w	r2, [r0, #104]	@ 0x68
10002d4c:	f8b3 2118 	ldrh.w	r2, [r3, #280]	@ 0x118
10002d50:	f8a0 2070 	strh.w	r2, [r0, #112]	@ 0x70
10002d54:	f8b3 211a 	ldrh.w	r2, [r3, #282]	@ 0x11a
10002d58:	f8a0 206a 	strh.w	r2, [r0, #106]	@ 0x6a
10002d5c:	f8b3 211c 	ldrh.w	r2, [r3, #284]	@ 0x11c
10002d60:	f8a0 2054 	strh.w	r2, [r0, #84]	@ 0x54
10002d64:	f8b3 311e 	ldrh.w	r3, [r3, #286]	@ 0x11e
10002d68:	f8a0 306e 	strh.w	r3, [r0, #110]	@ 0x6e
10002d6c:	f85d fb04 	ldr.w	pc, [sp], #4
10002d70:	4611      	mov	r1, r2
10002d72:	e792      	b.n	10002c9a <_ZN8CONTROLS25extractPresetFromControlsERN6PRESET11SynthPresetE+0x36>
10002d74:	4611      	mov	r1, r2
10002d76:	e7b7      	b.n	10002ce8 <_ZN8CONTROLS25extractPresetFromControlsERN6PRESET11SynthPresetE+0x84>
10002d78:	2002f0ac 	.word	0x2002f0ac

10002d7c <_ZN8CONTROLS16exportAllPresetsEv>:
10002d7c:	b538      	push	{r3, r4, r5, lr}
10002d7e:	4c05      	ldr	r4, [pc, #20]	@ (10002d94 <_ZN8CONTROLS16exportAllPresetsEv+0x18>)
10002d80:	f504 6580 	add.w	r5, r4, #1024	@ 0x400
10002d84:	4620      	mov	r0, r4
10002d86:	3480      	adds	r4, #128	@ 0x80
10002d88:	f000 fec8 	bl	10003b1c <_ZN6PRESET14exportViaSysExERKNS_11SynthPresetE>
10002d8c:	42ac      	cmp	r4, r5
10002d8e:	d1f9      	bne.n	10002d84 <_ZN8CONTROLS16exportAllPresetsEv+0x8>
10002d90:	bd38      	pop	{r3, r4, r5, pc}
10002d92:	bf00      	nop
10002d94:	2002ecac 	.word	0x2002ecac

10002d98 <_ZN8CONTROLS7getPageEv>:
10002d98:	4b05      	ldr	r3, [pc, #20]	@ (10002db0 <_ZN8CONTROLS7getPageEv+0x18>)
10002d9a:	781b      	ldrb	r3, [r3, #0]
10002d9c:	b913      	cbnz	r3, 10002da4 <_ZN8CONTROLS7getPageEv+0xc>
10002d9e:	4b05      	ldr	r3, [pc, #20]	@ (10002db4 <_ZN8CONTROLS7getPageEv+0x1c>)
10002da0:	7818      	ldrb	r0, [r3, #0]
10002da2:	4770      	bx	lr
10002da4:	4b03      	ldr	r3, [pc, #12]	@ (10002db4 <_ZN8CONTROLS7getPageEv+0x1c>)
10002da6:	7818      	ldrb	r0, [r3, #0]
10002da8:	3004      	adds	r0, #4
10002daa:	b2c0      	uxtb	r0, r0
10002dac:	4770      	bx	lr
10002dae:	bf00      	nop
10002db0:	20030037 	.word	0x20030037
10002db4:	20030034 	.word	0x20030034

10002db8 <_ZN8CONTROLS7setKnobEhhtb>:
10002db8:	e92d 41f0 	stmdb	sp!, {r4, r5, r6, r7, r8, lr}
10002dbc:	2807      	cmp	r0, #7
10002dbe:	f200 8143 	bhi.w	10003048 <_ZN8CONTROLS7setKnobEhhtb+0x290>
10002dc2:	e8df f010 	tbh	[pc, r0, lsl #1]
10002dc6:	0018      	.short	0x0018
10002dc8:	005f0037 	.word	0x005f0037
10002dcc:	00ae0087 	.word	0x00ae0087
10002dd0:	00fe00d5 	.word	0x00fe00d5
10002dd4:	0008      	.short	0x0008
10002dd6:	489e      	ldr	r0, [pc, #632]	@ (10003050 <_ZN8CONTROLS7setKnobEhhtb+0x298>)
10002dd8:	eb00 0441 	add.w	r4, r0, r1, lsl #1
10002ddc:	f8a4 2118 	strh.w	r2, [r4, #280]	@ 0x118
10002de0:	2201      	movs	r2, #1
10002de2:	4c9c      	ldr	r4, [pc, #624]	@ (10003054 <_ZN8CONTROLS7setKnobEhhtb+0x29c>)
10002de4:	4401      	add	r1, r0
10002de6:	f881 2120 	strb.w	r2, [r1, #288]	@ 0x120
10002dea:	7022      	strb	r2, [r4, #0]
10002dec:	2b00      	cmp	r3, #0
10002dee:	f040 8111 	bne.w	10003014 <_ZN8CONTROLS7setKnobEhhtb+0x25c>
10002df2:	e8bd 81f0 	ldmia.w	sp!, {r4, r5, r6, r7, r8, pc}
10002df6:	2001      	movs	r0, #1
10002df8:	4c95      	ldr	r4, [pc, #596]	@ (10003050 <_ZN8CONTROLS7setKnobEhhtb+0x298>)
10002dfa:	f824 2011 	strh.w	r2, [r4, r1, lsl #1]
10002dfe:	4a95      	ldr	r2, [pc, #596]	@ (10003054 <_ZN8CONTROLS7setKnobEhhtb+0x29c>)
10002e00:	4421      	add	r1, r4
10002e02:	7208      	strb	r0, [r1, #8]
10002e04:	7010      	strb	r0, [r2, #0]
10002e06:	2b00      	cmp	r3, #0
10002e08:	d0f3      	beq.n	10002df2 <_ZN8CONTROLS7setKnobEhhtb+0x3a>
10002e0a:	4625      	mov	r5, r4
10002e0c:	3408      	adds	r4, #8
10002e0e:	4626      	mov	r6, r4
10002e10:	f04f 0800 	mov.w	r8, #0
10002e14:	f1c5 070c 	rsb	r7, r5, #12
10002e18:	f814 3b01 	ldrb.w	r3, [r4], #1
10002e1c:	b133      	cbz	r3, 10002e2c <_ZN8CONTROLS7setKnobEhhtb+0x74>
10002e1e:	f857 3015 	ldr.w	r3, [r7, r5, lsl #1]
10002e22:	b10b      	cbz	r3, 10002e28 <_ZN8CONTROLS7setKnobEhhtb+0x70>
10002e24:	8828      	ldrh	r0, [r5, #0]
10002e26:	4798      	blx	r3
10002e28:	f804 8c01 	strb.w	r8, [r4, #-1]
10002e2c:	3502      	adds	r5, #2
10002e2e:	42ae      	cmp	r6, r5
10002e30:	d1f2      	bne.n	10002e18 <_ZN8CONTROLS7setKnobEhhtb+0x60>
10002e32:	e7de      	b.n	10002df2 <_ZN8CONTROLS7setKnobEhhtb+0x3a>
10002e34:	4886      	ldr	r0, [pc, #536]	@ (10003050 <_ZN8CONTROLS7setKnobEhhtb+0x298>)
10002e36:	eb00 0441 	add.w	r4, r0, r1, lsl #1
10002e3a:	f8a4 2050 	strh.w	r2, [r4, #80]	@ 0x50
10002e3e:	2201      	movs	r2, #1
10002e40:	4c84      	ldr	r4, [pc, #528]	@ (10003054 <_ZN8CONTROLS7setKnobEhhtb+0x29c>)
10002e42:	4401      	add	r1, r0
10002e44:	f881 2058 	strb.w	r2, [r1, #88]	@ 0x58
10002e48:	7022      	strb	r2, [r4, #0]
10002e4a:	2b00      	cmp	r3, #0
10002e4c:	d0d1      	beq.n	10002df2 <_ZN8CONTROLS7setKnobEhhtb+0x3a>
10002e4e:	f06f 0761 	mvn.w	r7, #97	@ 0x61
10002e52:	f04f 0800 	mov.w	r8, #0
10002e56:	eba0 0680 	sub.w	r6, r0, r0, lsl #2
10002e5a:	f100 0458 	add.w	r4, r0, #88	@ 0x58
10002e5e:	f5a6 7684 	sub.w	r6, r6, #264	@ 0x108
10002e62:	f100 055c 	add.w	r5, r0, #92	@ 0x5c
10002e66:	1a3f      	subs	r7, r7, r0
10002e68:	f814 3b01 	ldrb.w	r3, [r4], #1
10002e6c:	b13b      	cbz	r3, 10002e7e <_ZN8CONTROLS7setKnobEhhtb+0xc6>
10002e6e:	f856 3024 	ldr.w	r3, [r6, r4, lsl #2]
10002e72:	b113      	cbz	r3, 10002e7a <_ZN8CONTROLS7setKnobEhhtb+0xc2>
10002e74:	f837 0014 	ldrh.w	r0, [r7, r4, lsl #1]
10002e78:	4798      	blx	r3
10002e7a:	f804 8c01 	strb.w	r8, [r4, #-1]
10002e7e:	42ac      	cmp	r4, r5
10002e80:	d1f2      	bne.n	10002e68 <_ZN8CONTROLS7setKnobEhhtb+0xb0>
10002e82:	e7b6      	b.n	10002df2 <_ZN8CONTROLS7setKnobEhhtb+0x3a>
10002e84:	4872      	ldr	r0, [pc, #456]	@ (10003050 <_ZN8CONTROLS7setKnobEhhtb+0x298>)
10002e86:	eb00 0441 	add.w	r4, r0, r1, lsl #1
10002e8a:	f8a4 20a0 	strh.w	r2, [r4, #160]	@ 0xa0
10002e8e:	2201      	movs	r2, #1
10002e90:	4c70      	ldr	r4, [pc, #448]	@ (10003054 <_ZN8CONTROLS7setKnobEhhtb+0x29c>)
10002e92:	4401      	add	r1, r0
10002e94:	f881 20a8 	strb.w	r2, [r1, #168]	@ 0xa8
10002e98:	7022      	strb	r2, [r4, #0]
10002e9a:	2b00      	cmp	r3, #0
10002e9c:	d0a9      	beq.n	10002df2 <_ZN8CONTROLS7setKnobEhhtb+0x3a>
10002e9e:	f06f 07b1 	mvn.w	r7, #177	@ 0xb1
10002ea2:	f04f 0800 	mov.w	r8, #0
10002ea6:	eba0 0680 	sub.w	r6, r0, r0, lsl #2
10002eaa:	f100 04a8 	add.w	r4, r0, #168	@ 0xa8
10002eae:	f5a6 76fc 	sub.w	r6, r6, #504	@ 0x1f8
10002eb2:	f100 05ac 	add.w	r5, r0, #172	@ 0xac
10002eb6:	1a3f      	subs	r7, r7, r0
10002eb8:	f814 3b01 	ldrb.w	r3, [r4], #1
10002ebc:	b13b      	cbz	r3, 10002ece <_ZN8CONTROLS7setKnobEhhtb+0x116>
10002ebe:	f856 3024 	ldr.w	r3, [r6, r4, lsl #2]
10002ec2:	b113      	cbz	r3, 10002eca <_ZN8CONTROLS7setKnobEhhtb+0x112>
10002ec4:	f837 0014 	ldrh.w	r0, [r7, r4, lsl #1]
10002ec8:	4798      	blx	r3
10002eca:	f804 8c01 	strb.w	r8, [r4, #-1]
10002ece:	42ac      	cmp	r4, r5
10002ed0:	d1f2      	bne.n	10002eb8 <_ZN8CONTROLS7setKnobEhhtb+0x100>
10002ed2:	e78e      	b.n	10002df2 <_ZN8CONTROLS7setKnobEhhtb+0x3a>
10002ed4:	485e      	ldr	r0, [pc, #376]	@ (10003050 <_ZN8CONTROLS7setKnobEhhtb+0x298>)
10002ed6:	eb00 0441 	add.w	r4, r0, r1, lsl #1
10002eda:	f8a4 20f0 	strh.w	r2, [r4, #240]	@ 0xf0
10002ede:	2201      	movs	r2, #1
10002ee0:	4c5c      	ldr	r4, [pc, #368]	@ (10003054 <_ZN8CONTROLS7setKnobEhhtb+0x29c>)
10002ee2:	4401      	add	r1, r0
10002ee4:	f881 20f8 	strb.w	r2, [r1, #248]	@ 0xf8
10002ee8:	7022      	strb	r2, [r4, #0]
10002eea:	2b00      	cmp	r3, #0
10002eec:	d081      	beq.n	10002df2 <_ZN8CONTROLS7setKnobEhhtb+0x3a>
10002eee:	f04f 0800 	mov.w	r8, #0
10002ef2:	4f59      	ldr	r7, [pc, #356]	@ (10003058 <_ZN8CONTROLS7setKnobEhhtb+0x2a0>)
10002ef4:	eba0 0680 	sub.w	r6, r0, r0, lsl #2
10002ef8:	f100 05f8 	add.w	r5, r0, #248	@ 0xf8
10002efc:	f5a6 763a 	sub.w	r6, r6, #744	@ 0x2e8
10002f00:	1a3f      	subs	r7, r7, r0
10002f02:	f100 04fc 	add.w	r4, r0, #252	@ 0xfc
10002f06:	f815 3b01 	ldrb.w	r3, [r5], #1
10002f0a:	b13b      	cbz	r3, 10002f1c <_ZN8CONTROLS7setKnobEhhtb+0x164>
10002f0c:	f856 3025 	ldr.w	r3, [r6, r5, lsl #2]
10002f10:	b113      	cbz	r3, 10002f18 <_ZN8CONTROLS7setKnobEhhtb+0x160>
10002f12:	f837 0015 	ldrh.w	r0, [r7, r5, lsl #1]
10002f16:	4798      	blx	r3
10002f18:	f805 8c01 	strb.w	r8, [r5, #-1]
10002f1c:	42a5      	cmp	r5, r4
10002f1e:	d1f2      	bne.n	10002f06 <_ZN8CONTROLS7setKnobEhhtb+0x14e>
10002f20:	e767      	b.n	10002df2 <_ZN8CONTROLS7setKnobEhhtb+0x3a>
10002f22:	484b      	ldr	r0, [pc, #300]	@ (10003050 <_ZN8CONTROLS7setKnobEhhtb+0x298>)
10002f24:	eb00 0441 	add.w	r4, r0, r1, lsl #1
10002f28:	8522      	strh	r2, [r4, #40]	@ 0x28
10002f2a:	2201      	movs	r2, #1
10002f2c:	4c49      	ldr	r4, [pc, #292]	@ (10003054 <_ZN8CONTROLS7setKnobEhhtb+0x29c>)
10002f2e:	4401      	add	r1, r0
10002f30:	f881 2030 	strb.w	r2, [r1, #48]	@ 0x30
10002f34:	7022      	strb	r2, [r4, #0]
10002f36:	2b00      	cmp	r3, #0
10002f38:	f43f af5b 	beq.w	10002df2 <_ZN8CONTROLS7setKnobEhhtb+0x3a>
10002f3c:	f06f 0739 	mvn.w	r7, #57	@ 0x39
10002f40:	f04f 0800 	mov.w	r8, #0
10002f44:	eba0 0680 	sub.w	r6, r0, r0, lsl #2
10002f48:	f100 0430 	add.w	r4, r0, #48	@ 0x30
10002f4c:	3e90      	subs	r6, #144	@ 0x90
10002f4e:	f100 0534 	add.w	r5, r0, #52	@ 0x34
10002f52:	1a3f      	subs	r7, r7, r0
10002f54:	f814 3b01 	ldrb.w	r3, [r4], #1
10002f58:	b13b      	cbz	r3, 10002f6a <_ZN8CONTROLS7setKnobEhhtb+0x1b2>
10002f5a:	f856 3024 	ldr.w	r3, [r6, r4, lsl #2]
10002f5e:	b113      	cbz	r3, 10002f66 <_ZN8CONTROLS7setKnobEhhtb+0x1ae>
10002f60:	f837 0014 	ldrh.w	r0, [r7, r4, lsl #1]
10002f64:	4798      	blx	r3
10002f66:	f804 8c01 	strb.w	r8, [r4, #-1]
10002f6a:	42ac      	cmp	r4, r5
10002f6c:	d1f2      	bne.n	10002f54 <_ZN8CONTROLS7setKnobEhhtb+0x19c>
10002f6e:	e740      	b.n	10002df2 <_ZN8CONTROLS7setKnobEhhtb+0x3a>
10002f70:	4837      	ldr	r0, [pc, #220]	@ (10003050 <_ZN8CONTROLS7setKnobEhhtb+0x298>)
10002f72:	eb00 0441 	add.w	r4, r0, r1, lsl #1
10002f76:	f8a4 2078 	strh.w	r2, [r4, #120]	@ 0x78
10002f7a:	2201      	movs	r2, #1
10002f7c:	4c35      	ldr	r4, [pc, #212]	@ (10003054 <_ZN8CONTROLS7setKnobEhhtb+0x29c>)
10002f7e:	4401      	add	r1, r0
10002f80:	f881 2080 	strb.w	r2, [r1, #128]	@ 0x80
10002f84:	7022      	strb	r2, [r4, #0]
10002f86:	2b00      	cmp	r3, #0
10002f88:	f43f af33 	beq.w	10002df2 <_ZN8CONTROLS7setKnobEhhtb+0x3a>
10002f8c:	f06f 0789 	mvn.w	r7, #137	@ 0x89
10002f90:	f04f 0800 	mov.w	r8, #0
10002f94:	eba0 0680 	sub.w	r6, r0, r0, lsl #2
10002f98:	f100 0480 	add.w	r4, r0, #128	@ 0x80
10002f9c:	f5a6 76c0 	sub.w	r6, r6, #384	@ 0x180
10002fa0:	f100 0584 	add.w	r5, r0, #132	@ 0x84
10002fa4:	1a3f      	subs	r7, r7, r0
10002fa6:	f814 3b01 	ldrb.w	r3, [r4], #1
10002faa:	b13b      	cbz	r3, 10002fbc <_ZN8CONTROLS7setKnobEhhtb+0x204>
10002fac:	f856 3024 	ldr.w	r3, [r6, r4, lsl #2]
10002fb0:	b113      	cbz	r3, 10002fb8 <_ZN8CONTROLS7setKnobEhhtb+0x200>
10002fb2:	f837 0014 	ldrh.w	r0, [r7, r4, lsl #1]
10002fb6:	4798      	blx	r3
10002fb8:	f804 8c01 	strb.w	r8, [r4, #-1]
10002fbc:	42ac      	cmp	r4, r5
10002fbe:	d1f2      	bne.n	10002fa6 <_ZN8CONTROLS7setKnobEhhtb+0x1ee>
10002fc0:	e717      	b.n	10002df2 <_ZN8CONTROLS7setKnobEhhtb+0x3a>
10002fc2:	4823      	ldr	r0, [pc, #140]	@ (10003050 <_ZN8CONTROLS7setKnobEhhtb+0x298>)
10002fc4:	eb00 0441 	add.w	r4, r0, r1, lsl #1
10002fc8:	f8a4 20c8 	strh.w	r2, [r4, #200]	@ 0xc8
10002fcc:	2201      	movs	r2, #1
10002fce:	4c21      	ldr	r4, [pc, #132]	@ (10003054 <_ZN8CONTROLS7setKnobEhhtb+0x29c>)
10002fd0:	4401      	add	r1, r0
10002fd2:	f881 20d0 	strb.w	r2, [r1, #208]	@ 0xd0
10002fd6:	7022      	strb	r2, [r4, #0]
10002fd8:	2b00      	cmp	r3, #0
10002fda:	f43f af0a 	beq.w	10002df2 <_ZN8CONTROLS7setKnobEhhtb+0x3a>
10002fde:	f06f 07d9 	mvn.w	r7, #217	@ 0xd9
10002fe2:	f04f 0800 	mov.w	r8, #0
10002fe6:	eba0 0680 	sub.w	r6, r0, r0, lsl #2
10002fea:	f100 04d0 	add.w	r4, r0, #208	@ 0xd0
10002fee:	f5a6 761c 	sub.w	r6, r6, #624	@ 0x270
10002ff2:	f100 05d4 	add.w	r5, r0, #212	@ 0xd4
10002ff6:	1a3f      	subs	r7, r7, r0
10002ff8:	f814 3b01 	ldrb.w	r3, [r4], #1
10002ffc:	b13b      	cbz	r3, 1000300e <_ZN8CONTROLS7setKnobEhhtb+0x256>
10002ffe:	f856 3024 	ldr.w	r3, [r6, r4, lsl #2]
10003002:	b113      	cbz	r3, 1000300a <_ZN8CONTROLS7setKnobEhhtb+0x252>
10003004:	f837 0014 	ldrh.w	r0, [r7, r4, lsl #1]
10003008:	4798      	blx	r3
1000300a:	f804 8c01 	strb.w	r8, [r4, #-1]
1000300e:	42ac      	cmp	r4, r5
10003010:	d1f2      	bne.n	10002ff8 <_ZN8CONTROLS7setKnobEhhtb+0x240>
10003012:	e6ee      	b.n	10002df2 <_ZN8CONTROLS7setKnobEhhtb+0x3a>
10003014:	f04f 0800 	mov.w	r8, #0
10003018:	4f10      	ldr	r7, [pc, #64]	@ (1000305c <_ZN8CONTROLS7setKnobEhhtb+0x2a4>)
1000301a:	eba0 0680 	sub.w	r6, r0, r0, lsl #2
1000301e:	f500 7590 	add.w	r5, r0, #288	@ 0x120
10003022:	f5a6 7658 	sub.w	r6, r6, #864	@ 0x360
10003026:	1a3f      	subs	r7, r7, r0
10003028:	f500 7492 	add.w	r4, r0, #292	@ 0x124
1000302c:	f815 3b01 	ldrb.w	r3, [r5], #1
10003030:	b13b      	cbz	r3, 10003042 <_ZN8CONTROLS7setKnobEhhtb+0x28a>
10003032:	f856 3025 	ldr.w	r3, [r6, r5, lsl #2]
10003036:	b113      	cbz	r3, 1000303e <_ZN8CONTROLS7setKnobEhhtb+0x286>
10003038:	f837 0015 	ldrh.w	r0, [r7, r5, lsl #1]
1000303c:	4798      	blx	r3
1000303e:	f805 8c01 	strb.w	r8, [r5, #-1]
10003042:	42a5      	cmp	r5, r4
10003044:	d1f2      	bne.n	1000302c <_ZN8CONTROLS7setKnobEhhtb+0x274>
10003046:	e6d4      	b.n	10002df2 <_ZN8CONTROLS7setKnobEhhtb+0x3a>
10003048:	2201      	movs	r2, #1
1000304a:	4b02      	ldr	r3, [pc, #8]	@ (10003054 <_ZN8CONTROLS7setKnobEhhtb+0x29c>)
1000304c:	701a      	strb	r2, [r3, #0]
1000304e:	e6d0      	b.n	10002df2 <_ZN8CONTROLS7setKnobEhhtb+0x3a>
10003050:	2002f0ac 	.word	0x2002f0ac
10003054:	20030036 	.word	0x20030036
10003058:	fffffefe 	.word	0xfffffefe
1000305c:	fffffed6 	.word	0xfffffed6

10003060 <_ZN8CONTROLS7getKnobEhh>:
10003060:	2807      	cmp	r0, #7
10003062:	d832      	bhi.n	100030ca <_ZN8CONTROLS7getKnobEhh+0x6a>
10003064:	e8df f000 	tbb	[pc, r0]
10003068:	1a140e0a 	.word	0x1a140e0a
1000306c:	042b2520 	.word	0x042b2520
10003070:	4b17      	ldr	r3, [pc, #92]	@ (100030d0 <_ZN8CONTROLS7getKnobEhh+0x70>)
10003072:	eb03 0141 	add.w	r1, r3, r1, lsl #1
10003076:	f8b1 0118 	ldrh.w	r0, [r1, #280]	@ 0x118
1000307a:	4770      	bx	lr
1000307c:	4b14      	ldr	r3, [pc, #80]	@ (100030d0 <_ZN8CONTROLS7getKnobEhh+0x70>)
1000307e:	f833 0011 	ldrh.w	r0, [r3, r1, lsl #1]
10003082:	4770      	bx	lr
10003084:	4b12      	ldr	r3, [pc, #72]	@ (100030d0 <_ZN8CONTROLS7getKnobEhh+0x70>)
10003086:	eb03 0141 	add.w	r1, r3, r1, lsl #1
1000308a:	f8b1 0050 	ldrh.w	r0, [r1, #80]	@ 0x50
1000308e:	4770      	bx	lr
10003090:	4b0f      	ldr	r3, [pc, #60]	@ (100030d0 <_ZN8CONTROLS7getKnobEhh+0x70>)
10003092:	eb03 0141 	add.w	r1, r3, r1, lsl #1
10003096:	f8b1 00a0 	ldrh.w	r0, [r1, #160]	@ 0xa0
1000309a:	4770      	bx	lr
1000309c:	4b0c      	ldr	r3, [pc, #48]	@ (100030d0 <_ZN8CONTROLS7getKnobEhh+0x70>)
1000309e:	eb03 0141 	add.w	r1, r3, r1, lsl #1
100030a2:	f8b1 00f0 	ldrh.w	r0, [r1, #240]	@ 0xf0
100030a6:	4770      	bx	lr
100030a8:	4b09      	ldr	r3, [pc, #36]	@ (100030d0 <_ZN8CONTROLS7getKnobEhh+0x70>)
100030aa:	eb03 0141 	add.w	r1, r3, r1, lsl #1
100030ae:	8d08      	ldrh	r0, [r1, #40]	@ 0x28
100030b0:	4770      	bx	lr
100030b2:	4b07      	ldr	r3, [pc, #28]	@ (100030d0 <_ZN8CONTROLS7getKnobEhh+0x70>)
100030b4:	eb03 0141 	add.w	r1, r3, r1, lsl #1
100030b8:	f8b1 0078 	ldrh.w	r0, [r1, #120]	@ 0x78
100030bc:	4770      	bx	lr
100030be:	4b04      	ldr	r3, [pc, #16]	@ (100030d0 <_ZN8CONTROLS7getKnobEhh+0x70>)
100030c0:	eb03 0141 	add.w	r1, r3, r1, lsl #1
100030c4:	f8b1 00c8 	ldrh.w	r0, [r1, #200]	@ 0xc8
100030c8:	4770      	bx	lr
100030ca:	2000      	movs	r0, #0
100030cc:	4770      	bx	lr
100030ce:	bf00      	nop
100030d0:	2002f0ac 	.word	0x2002f0ac

100030d4 <_ZN8CONTROLS16refreshInterfaceEv>:
100030d4:	b508      	push	{r3, lr}
100030d6:	f7ff fb87 	bl	100027e8 <_ZN10PAGINATION7refreshEv>
100030da:	4b16      	ldr	r3, [pc, #88]	@ (10003134 <_ZN8CONTROLS16refreshInterfaceEv+0x60>)
100030dc:	4a16      	ldr	r2, [pc, #88]	@ (10003138 <_ZN8CONTROLS16refreshInterfaceEv+0x64>)
100030de:	781b      	ldrb	r3, [r3, #0]
100030e0:	b9ab      	cbnz	r3, 1000310e <_ZN8CONTROLS16refreshInterfaceEv+0x3a>
100030e2:	f8d2 10c0 	ldr.w	r1, [r2, #192]	@ 0xc0
100030e6:	b319      	cbz	r1, 10003130 <_ZN8CONTROLS16refreshInterfaceEv+0x5c>
100030e8:	f892 10bc 	ldrb.w	r1, [r2, #188]	@ 0xbc
100030ec:	4813      	ldr	r0, [pc, #76]	@ (1000313c <_ZN8CONTROLS16refreshInterfaceEv+0x68>)
100030ee:	f890 c000 	ldrb.w	ip, [r0]
100030f2:	7041      	strb	r1, [r0, #1]
100030f4:	ec41 c040 	gpioc_bit_out_put ip, r1
100030f8:	f8d2 1110 	ldr.w	r1, [r2, #272]	@ 0x110
100030fc:	b109      	cbz	r1, 10003102 <_ZN8CONTROLS16refreshInterfaceEv+0x2e>
100030fe:	f892 310c 	ldrb.w	r3, [r2, #268]	@ 0x10c
10003102:	4a0f      	ldr	r2, [pc, #60]	@ (10003140 <_ZN8CONTROLS16refreshInterfaceEv+0x6c>)
10003104:	7811      	ldrb	r1, [r2, #0]
10003106:	7053      	strb	r3, [r2, #1]
10003108:	ec43 1040 	gpioc_bit_out_put r1, r3
1000310c:	bd08      	pop	{r3, pc}
1000310e:	6f13      	ldr	r3, [r2, #112]	@ 0x70
10003110:	b10b      	cbz	r3, 10003116 <_ZN8CONTROLS16refreshInterfaceEv+0x42>
10003112:	f892 306c 	ldrb.w	r3, [r2, #108]	@ 0x6c
10003116:	4a09      	ldr	r2, [pc, #36]	@ (1000313c <_ZN8CONTROLS16refreshInterfaceEv+0x68>)
10003118:	7811      	ldrb	r1, [r2, #0]
1000311a:	7053      	strb	r3, [r2, #1]
1000311c:	ec43 1040 	gpioc_bit_out_put r1, r3
10003120:	f002 fb8c 	bl	1000583c <_ZN3ARP7getHoldEv>
10003124:	4b06      	ldr	r3, [pc, #24]	@ (10003140 <_ZN8CONTROLS16refreshInterfaceEv+0x6c>)
10003126:	781a      	ldrb	r2, [r3, #0]
10003128:	7058      	strb	r0, [r3, #1]
1000312a:	ec40 2040 	gpioc_bit_out_put r2, r0
1000312e:	bd08      	pop	{r3, pc}
10003130:	4619      	mov	r1, r3
10003132:	e7db      	b.n	100030ec <_ZN8CONTROLS16refreshInterfaceEv+0x18>
10003134:	20030037 	.word	0x20030037
10003138:	2002f0ac 	.word	0x2002f0ac
1000313c:	20003e40 	.word	0x20003e40
10003140:	20003e4c 	.word	0x20003e4c

10003144 <_ZN8CONTROLS18loadPresetFromSlotEh>:
10003144:	4601      	mov	r1, r0
10003146:	4b6d      	ldr	r3, [pc, #436]	@ (100032fc <_ZN8CONTROLS18loadPresetFromSlotEh+0x1b8>)
10003148:	e92d 47f0 	stmdb	sp!, {r4, r5, r6, r7, r8, r9, sl, lr}
1000314c:	4d6c      	ldr	r5, [pc, #432]	@ (10003300 <_ZN8CONTROLS18loadPresetFromSlotEh+0x1bc>)
1000314e:	2280      	movs	r2, #128	@ 0x80
10003150:	486c      	ldr	r0, [pc, #432]	@ (10003304 <_ZN8CONTROLS18loadPresetFromSlotEh+0x1c0>)
10003152:	eb03 11c1 	add.w	r1, r3, r1, lsl #7
10003156:	f00a fa93 	bl	1000d680 <memcpy>
1000315a:	f105 0608 	add.w	r6, r5, #8
1000315e:	4869      	ldr	r0, [pc, #420]	@ (10003304 <_ZN8CONTROLS18loadPresetFromSlotEh+0x1c0>)
10003160:	4637      	mov	r7, r6
10003162:	462c      	mov	r4, r5
10003164:	f04f 0900 	mov.w	r9, #0
10003168:	f1c5 080c 	rsb	r8, r5, #12
1000316c:	f7ff fcb8 	bl	10002ae0 <_ZN8CONTROLS21applyPresetToControlsERN6PRESET11SynthPresetE>
10003170:	f816 3b01 	ldrb.w	r3, [r6], #1
10003174:	b133      	cbz	r3, 10003184 <_ZN8CONTROLS18loadPresetFromSlotEh+0x40>
10003176:	f858 3014 	ldr.w	r3, [r8, r4, lsl #1]
1000317a:	b10b      	cbz	r3, 10003180 <_ZN8CONTROLS18loadPresetFromSlotEh+0x3c>
1000317c:	8820      	ldrh	r0, [r4, #0]
1000317e:	4798      	blx	r3
10003180:	f806 9c01 	strb.w	r9, [r6, #-1]
10003184:	3402      	adds	r4, #2
10003186:	42bc      	cmp	r4, r7
10003188:	d1f2      	bne.n	10003170 <_ZN8CONTROLS18loadPresetFromSlotEh+0x2c>
1000318a:	f06f 0861 	mvn.w	r8, #97	@ 0x61
1000318e:	f04f 0a00 	mov.w	sl, #0
10003192:	4c5d      	ldr	r4, [pc, #372]	@ (10003308 <_ZN8CONTROLS18loadPresetFromSlotEh+0x1c4>)
10003194:	eba5 0685 	sub.w	r6, r5, r5, lsl #2
10003198:	1d27      	adds	r7, r4, #4
1000319a:	f5a6 7984 	sub.w	r9, r6, #264	@ 0x108
1000319e:	eba8 0805 	sub.w	r8, r8, r5
100031a2:	f814 3b01 	ldrb.w	r3, [r4], #1
100031a6:	b13b      	cbz	r3, 100031b8 <_ZN8CONTROLS18loadPresetFromSlotEh+0x74>
100031a8:	f859 3024 	ldr.w	r3, [r9, r4, lsl #2]
100031ac:	b113      	cbz	r3, 100031b4 <_ZN8CONTROLS18loadPresetFromSlotEh+0x70>
100031ae:	f838 0014 	ldrh.w	r0, [r8, r4, lsl #1]
100031b2:	4798      	blx	r3
100031b4:	f804 ac01 	strb.w	sl, [r4, #-1]
100031b8:	42bc      	cmp	r4, r7
100031ba:	d1f2      	bne.n	100031a2 <_ZN8CONTROLS18loadPresetFromSlotEh+0x5e>
100031bc:	f06f 08b1 	mvn.w	r8, #177	@ 0xb1
100031c0:	f04f 0900 	mov.w	r9, #0
100031c4:	4c51      	ldr	r4, [pc, #324]	@ (1000330c <_ZN8CONTROLS18loadPresetFromSlotEh+0x1c8>)
100031c6:	f5a6 7afc 	sub.w	sl, r6, #504	@ 0x1f8
100031ca:	1d27      	adds	r7, r4, #4
100031cc:	eba8 0805 	sub.w	r8, r8, r5
100031d0:	f814 3b01 	ldrb.w	r3, [r4], #1
100031d4:	b13b      	cbz	r3, 100031e6 <_ZN8CONTROLS18loadPresetFromSlotEh+0xa2>
100031d6:	f85a 3024 	ldr.w	r3, [sl, r4, lsl #2]
100031da:	b113      	cbz	r3, 100031e2 <_ZN8CONTROLS18loadPresetFromSlotEh+0x9e>
100031dc:	f838 0014 	ldrh.w	r0, [r8, r4, lsl #1]
100031e0:	4798      	blx	r3
100031e2:	f804 9c01 	strb.w	r9, [r4, #-1]
100031e6:	42bc      	cmp	r4, r7
100031e8:	d1f2      	bne.n	100031d0 <_ZN8CONTROLS18loadPresetFromSlotEh+0x8c>
100031ea:	f04f 0900 	mov.w	r9, #0
100031ee:	4c48      	ldr	r4, [pc, #288]	@ (10003310 <_ZN8CONTROLS18loadPresetFromSlotEh+0x1cc>)
100031f0:	4b48      	ldr	r3, [pc, #288]	@ (10003314 <_ZN8CONTROLS18loadPresetFromSlotEh+0x1d0>)
100031f2:	f5a6 7a3a 	sub.w	sl, r6, #744	@ 0x2e8
100031f6:	1d27      	adds	r7, r4, #4
100031f8:	eba3 0805 	sub.w	r8, r3, r5
100031fc:	f814 3b01 	ldrb.w	r3, [r4], #1
10003200:	b13b      	cbz	r3, 10003212 <_ZN8CONTROLS18loadPresetFromSlotEh+0xce>
10003202:	f85a 3024 	ldr.w	r3, [sl, r4, lsl #2]
10003206:	b113      	cbz	r3, 1000320e <_ZN8CONTROLS18loadPresetFromSlotEh+0xca>
10003208:	f838 0014 	ldrh.w	r0, [r8, r4, lsl #1]
1000320c:	4798      	blx	r3
1000320e:	f804 9c01 	strb.w	r9, [r4, #-1]
10003212:	42bc      	cmp	r4, r7
10003214:	d1f2      	bne.n	100031fc <_ZN8CONTROLS18loadPresetFromSlotEh+0xb8>
10003216:	f06f 0839 	mvn.w	r8, #57	@ 0x39
1000321a:	f04f 0900 	mov.w	r9, #0
1000321e:	4c3e      	ldr	r4, [pc, #248]	@ (10003318 <_ZN8CONTROLS18loadPresetFromSlotEh+0x1d4>)
10003220:	f1a6 0a90 	sub.w	sl, r6, #144	@ 0x90
10003224:	1d27      	adds	r7, r4, #4
10003226:	eba8 0805 	sub.w	r8, r8, r5
1000322a:	f814 3b01 	ldrb.w	r3, [r4], #1
1000322e:	b13b      	cbz	r3, 10003240 <_ZN8CONTROLS18loadPresetFromSlotEh+0xfc>
10003230:	f85a 3024 	ldr.w	r3, [sl, r4, lsl #2]
10003234:	b113      	cbz	r3, 1000323c <_ZN8CONTROLS18loadPresetFromSlotEh+0xf8>
10003236:	f838 0014 	ldrh.w	r0, [r8, r4, lsl #1]
1000323a:	4798      	blx	r3
1000323c:	f804 9c01 	strb.w	r9, [r4, #-1]
10003240:	42bc      	cmp	r4, r7
10003242:	d1f2      	bne.n	1000322a <_ZN8CONTROLS18loadPresetFromSlotEh+0xe6>
10003244:	f06f 0889 	mvn.w	r8, #137	@ 0x89
10003248:	f04f 0900 	mov.w	r9, #0
1000324c:	4c33      	ldr	r4, [pc, #204]	@ (1000331c <_ZN8CONTROLS18loadPresetFromSlotEh+0x1d8>)
1000324e:	f5a6 7ac0 	sub.w	sl, r6, #384	@ 0x180
10003252:	1d27      	adds	r7, r4, #4
10003254:	eba8 0805 	sub.w	r8, r8, r5
10003258:	f814 3b01 	ldrb.w	r3, [r4], #1
1000325c:	b13b      	cbz	r3, 1000326e <_ZN8CONTROLS18loadPresetFromSlotEh+0x12a>
1000325e:	f85a 3024 	ldr.w	r3, [sl, r4, lsl #2]
10003262:	b113      	cbz	r3, 1000326a <_ZN8CONTROLS18loadPresetFromSlotEh+0x126>
10003264:	f838 0014 	ldrh.w	r0, [r8, r4, lsl #1]
10003268:	4798      	blx	r3
1000326a:	f804 9c01 	strb.w	r9, [r4, #-1]
1000326e:	42bc      	cmp	r4, r7
10003270:	d1f2      	bne.n	10003258 <_ZN8CONTROLS18loadPresetFromSlotEh+0x114>
10003272:	f06f 08d9 	mvn.w	r8, #217	@ 0xd9
10003276:	f04f 0900 	mov.w	r9, #0
1000327a:	4c29      	ldr	r4, [pc, #164]	@ (10003320 <_ZN8CONTROLS18loadPresetFromSlotEh+0x1dc>)
1000327c:	f5a6 7a1c 	sub.w	sl, r6, #624	@ 0x270
10003280:	1d27      	adds	r7, r4, #4
10003282:	eba8 0805 	sub.w	r8, r8, r5
10003286:	f814 3b01 	ldrb.w	r3, [r4], #1
1000328a:	b13b      	cbz	r3, 1000329c <_ZN8CONTROLS18loadPresetFromSlotEh+0x158>
1000328c:	f85a 3024 	ldr.w	r3, [sl, r4, lsl #2]
10003290:	b113      	cbz	r3, 10003298 <_ZN8CONTROLS18loadPresetFromSlotEh+0x154>
10003292:	f838 0014 	ldrh.w	r0, [r8, r4, lsl #1]
10003296:	4798      	blx	r3
10003298:	f804 9c01 	strb.w	r9, [r4, #-1]
1000329c:	42a7      	cmp	r7, r4
1000329e:	d1f2      	bne.n	10003286 <_ZN8CONTROLS18loadPresetFromSlotEh+0x142>
100032a0:	f04f 0800 	mov.w	r8, #0
100032a4:	4c1f      	ldr	r4, [pc, #124]	@ (10003324 <_ZN8CONTROLS18loadPresetFromSlotEh+0x1e0>)
100032a6:	4b20      	ldr	r3, [pc, #128]	@ (10003328 <_ZN8CONTROLS18loadPresetFromSlotEh+0x1e4>)
100032a8:	f5a6 7658 	sub.w	r6, r6, #864	@ 0x360
100032ac:	1d27      	adds	r7, r4, #4
100032ae:	1b5d      	subs	r5, r3, r5
100032b0:	f814 3b01 	ldrb.w	r3, [r4], #1
100032b4:	b13b      	cbz	r3, 100032c6 <_ZN8CONTROLS18loadPresetFromSlotEh+0x182>
100032b6:	f856 3024 	ldr.w	r3, [r6, r4, lsl #2]
100032ba:	b113      	cbz	r3, 100032c2 <_ZN8CONTROLS18loadPresetFromSlotEh+0x17e>
100032bc:	f835 0014 	ldrh.w	r0, [r5, r4, lsl #1]
100032c0:	4798      	blx	r3
100032c2:	f804 8c01 	strb.w	r8, [r4, #-1]
100032c6:	42a7      	cmp	r7, r4
100032c8:	d1f2      	bne.n	100032b0 <_ZN8CONTROLS18loadPresetFromSlotEh+0x16c>
100032ca:	4b18      	ldr	r3, [pc, #96]	@ (1000332c <_ZN8CONTROLS18loadPresetFromSlotEh+0x1e8>)
100032cc:	4c18      	ldr	r4, [pc, #96]	@ (10003330 <_ZN8CONTROLS18loadPresetFromSlotEh+0x1ec>)
100032ce:	781b      	ldrb	r3, [r3, #0]
100032d0:	eb03 0343 	add.w	r3, r3, r3, lsl #1
100032d4:	b2db      	uxtb	r3, r3
100032d6:	18e2      	adds	r2, r4, r3
100032d8:	7851      	ldrb	r1, [r2, #1]
100032da:	7892      	ldrb	r2, [r2, #2]
100032dc:	5ce0      	ldrb	r0, [r4, r3]
100032de:	ea41 0302 	orr.w	r3, r1, r2
100032e2:	4303      	orrs	r3, r0
100032e4:	bf14      	ite	ne
100032e6:	2301      	movne	r3, #1
100032e8:	2300      	moveq	r3, #0
100032ea:	77a3      	strb	r3, [r4, #30]
100032ec:	f7fe fec2 	bl	10002074 <_ZN7RGB_LED3setEttt>
100032f0:	f7fe fe5e 	bl	10001fb0 <_ZN7RGB_LED6updateEv>
100032f4:	e8bd 47f0 	ldmia.w	sp!, {r4, r5, r6, r7, r8, r9, sl, lr}
100032f8:	f7ff beec 	b.w	100030d4 <_ZN8CONTROLS16refreshInterfaceEv>
100032fc:	2002ecac 	.word	0x2002ecac
10003300:	2002f0ac 	.word	0x2002f0ac
10003304:	2002ec2c 	.word	0x2002ec2c
10003308:	2002f104 	.word	0x2002f104
1000330c:	2002f154 	.word	0x2002f154
10003310:	2002f1a4 	.word	0x2002f1a4
10003314:	fffffefe 	.word	0xfffffefe
10003318:	2002f0dc 	.word	0x2002f0dc
1000331c:	2002f12c 	.word	0x2002f12c
10003320:	2002f17c 	.word	0x2002f17c
10003324:	2002f1cc 	.word	0x2002f1cc
10003328:	fffffed6 	.word	0xfffffed6
1000332c:	20030035 	.word	0x20030035
10003330:	20003ed0 	.word	0x20003ed0

10003334 <_ZN8CONTROLS10changePageEv>:
10003334:	2300      	movs	r3, #0
10003336:	b510      	push	{r4, lr}
10003338:	4a09      	ldr	r2, [pc, #36]	@ (10003360 <_ZN8CONTROLS10changePageEv+0x2c>)
1000333a:	4c0a      	ldr	r4, [pc, #40]	@ (10003364 <_ZN8CONTROLS10changePageEv+0x30>)
1000333c:	7810      	ldrb	r0, [r2, #0]
1000333e:	490a      	ldr	r1, [pc, #40]	@ (10003368 <_ZN8CONTROLS10changePageEv+0x34>)
10003340:	3001      	adds	r0, #1
10003342:	b2c0      	uxtb	r0, r0
10003344:	2803      	cmp	r0, #3
10003346:	bf88      	it	hi
10003348:	4618      	movhi	r0, r3
1000334a:	7023      	strb	r3, [r4, #0]
1000334c:	800b      	strh	r3, [r1, #0]
1000334e:	bf94      	ite	ls
10003350:	7010      	strbls	r0, [r2, #0]
10003352:	7013      	strbhi	r3, [r2, #0]
10003354:	f7fd fed6 	bl	10001104 <_ZN4LEDS11PAGE_selectEh>
10003358:	e8bd 4010 	ldmia.w	sp!, {r4, lr}
1000335c:	f7ff beba 	b.w	100030d4 <_ZN8CONTROLS16refreshInterfaceEv>
10003360:	20030034 	.word	0x20030034
10003364:	20030037 	.word	0x20030037
10003368:	20030006 	.word	0x20030006

1000336c <_ZN8CONTROLS4initEv>:
1000336c:	b570      	push	{r4, r5, r6, lr}
1000336e:	f7ff faa1 	bl	100028b4 <_ZN10PAGINATION4initEv>
10003372:	f000 fbab 	bl	10003acc <_ZN6PRESET4initEv>
10003376:	2300      	movs	r3, #0
10003378:	461c      	mov	r4, r3
1000337a:	4e0f      	ldr	r6, [pc, #60]	@ (100033b8 <_ZN8CONTROLS4initEv+0x4c>)
1000337c:	4d0f      	ldr	r5, [pc, #60]	@ (100033bc <_ZN8CONTROLS4initEv+0x50>)
1000337e:	7033      	strb	r3, [r6, #0]
10003380:	4629      	mov	r1, r5
10003382:	b2e0      	uxtb	r0, r4
10003384:	3401      	adds	r4, #1
10003386:	f000 fba3 	bl	10003ad0 <_ZN6PRESET4loadEhRNS_11SynthPresetE>
1000338a:	2c08      	cmp	r4, #8
1000338c:	f105 0580 	add.w	r5, r5, #128	@ 0x80
10003390:	d1f6      	bne.n	10003380 <_ZN8CONTROLS4initEv+0x14>
10003392:	7830      	ldrb	r0, [r6, #0]
10003394:	f7ff fed6 	bl	10003144 <_ZN8CONTROLS18loadPresetFromSlotEh>
10003398:	2300      	movs	r3, #0
1000339a:	4809      	ldr	r0, [pc, #36]	@ (100033c0 <_ZN8CONTROLS4initEv+0x54>)
1000339c:	4a09      	ldr	r2, [pc, #36]	@ (100033c4 <_ZN8CONTROLS4initEv+0x58>)
1000339e:	490a      	ldr	r1, [pc, #40]	@ (100033c8 <_ZN8CONTROLS4initEv+0x5c>)
100033a0:	7800      	ldrb	r0, [r0, #0]
100033a2:	8013      	strh	r3, [r2, #0]
100033a4:	700b      	strb	r3, [r1, #0]
100033a6:	f7fd fead 	bl	10001104 <_ZN4LEDS11PAGE_selectEh>
100033aa:	f7ff fe93 	bl	100030d4 <_ZN8CONTROLS16refreshInterfaceEv>
100033ae:	2201      	movs	r2, #1
100033b0:	4b06      	ldr	r3, [pc, #24]	@ (100033cc <_ZN8CONTROLS4initEv+0x60>)
100033b2:	701a      	strb	r2, [r3, #0]
100033b4:	bd70      	pop	{r4, r5, r6, pc}
100033b6:	bf00      	nop
100033b8:	20030035 	.word	0x20030035
100033bc:	2002ecac 	.word	0x2002ecac
100033c0:	20030034 	.word	0x20030034
100033c4:	20030006 	.word	0x20030006
100033c8:	20030037 	.word	0x20030037
100033cc:	20030036 	.word	0x20030036

100033d0 <_ZN8CONTROLS12changePresetEv>:
100033d0:	b538      	push	{r3, r4, r5, lr}
100033d2:	4c1e      	ldr	r4, [pc, #120]	@ (1000344c <_ZN8CONTROLS12changePresetEv+0x7c>)
100033d4:	7823      	ldrb	r3, [r4, #0]
100033d6:	b9c3      	cbnz	r3, 1000340a <_ZN8CONTROLS12changePresetEv+0x3a>
100033d8:	4a1d      	ldr	r2, [pc, #116]	@ (10003450 <_ZN8CONTROLS12changePresetEv+0x80>)
100033da:	7810      	ldrb	r0, [r2, #0]
100033dc:	3001      	adds	r0, #1
100033de:	b2c0      	uxtb	r0, r0
100033e0:	2807      	cmp	r0, #7
100033e2:	bf8a      	itet	hi
100033e4:	4618      	movhi	r0, r3
100033e6:	7010      	strbls	r0, [r2, #0]
100033e8:	7013      	strbhi	r3, [r2, #0]
100033ea:	f7ff feab 	bl	10003144 <_ZN8CONTROLS18loadPresetFromSlotEh>
100033ee:	2300      	movs	r3, #0
100033f0:	4918      	ldr	r1, [pc, #96]	@ (10003454 <_ZN8CONTROLS12changePresetEv+0x84>)
100033f2:	4a19      	ldr	r2, [pc, #100]	@ (10003458 <_ZN8CONTROLS12changePresetEv+0x88>)
100033f4:	7808      	ldrb	r0, [r1, #0]
100033f6:	8013      	strh	r3, [r2, #0]
100033f8:	7023      	strb	r3, [r4, #0]
100033fa:	f7fd fe83 	bl	10001104 <_ZN4LEDS11PAGE_selectEh>
100033fe:	f7ff fe69 	bl	100030d4 <_ZN8CONTROLS16refreshInterfaceEv>
10003402:	2201      	movs	r2, #1
10003404:	4b15      	ldr	r3, [pc, #84]	@ (1000345c <_ZN8CONTROLS12changePresetEv+0x8c>)
10003406:	701a      	strb	r2, [r3, #0]
10003408:	bd38      	pop	{r3, r4, r5, pc}
1000340a:	4b11      	ldr	r3, [pc, #68]	@ (10003450 <_ZN8CONTROLS12changePresetEv+0x80>)
1000340c:	4d14      	ldr	r5, [pc, #80]	@ (10003460 <_ZN8CONTROLS12changePresetEv+0x90>)
1000340e:	781c      	ldrb	r4, [r3, #0]
10003410:	4914      	ldr	r1, [pc, #80]	@ (10003464 <_ZN8CONTROLS12changePresetEv+0x94>)
10003412:	2280      	movs	r2, #128	@ 0x80
10003414:	eb05 10c4 	add.w	r0, r5, r4, lsl #7
10003418:	f00a f932 	bl	1000d680 <memcpy>
1000341c:	2201      	movs	r2, #1
1000341e:	01e3      	lsls	r3, r4, #7
10003420:	eb05 10c4 	add.w	r0, r5, r4, lsl #7
10003424:	54ea      	strb	r2, [r5, r3]
10003426:	f7ff fc1d 	bl	10002c64 <_ZN8CONTROLS25extractPresetFromControlsERN6PRESET11SynthPresetE>
1000342a:	4601      	mov	r1, r0
1000342c:	4620      	mov	r0, r4
1000342e:	f000 fcfb 	bl	10003e28 <_ZN6PRESET4saveEhRNS_11SynthPresetE>
10003432:	2008      	movs	r0, #8
10003434:	2140      	movs	r1, #64	@ 0x40
10003436:	4b0c      	ldr	r3, [pc, #48]	@ (10003468 <_ZN8CONTROLS12changePresetEv+0x98>)
10003438:	7f9a      	ldrb	r2, [r3, #30]
1000343a:	f883 0022 	strb.w	r0, [r3, #34]	@ 0x22
1000343e:	f082 0201 	eor.w	r2, r2, #1
10003442:	f883 2026 	strb.w	r2, [r3, #38]	@ 0x26
10003446:	8499      	strh	r1, [r3, #36]	@ 0x24
10003448:	bd38      	pop	{r3, r4, r5, pc}
1000344a:	bf00      	nop
1000344c:	20030037 	.word	0x20030037
10003450:	20030035 	.word	0x20030035
10003454:	20030034 	.word	0x20030034
10003458:	20030006 	.word	0x20030006
1000345c:	20030036 	.word	0x20030036
10003460:	2002ecac 	.word	0x2002ecac
10003464:	2002ec2c 	.word	0x2002ec2c
10003468:	20003ed0 	.word	0x20003ed0

1000346c <_ZN8CONTROLS6updateEv>:
1000346c:	e92d 43f8 	stmdb	sp!, {r3, r4, r5, r6, r7, r8, r9, lr}
10003470:	2103      	movs	r1, #3
10003472:	488e      	ldr	r0, [pc, #568]	@ (100036ac <_ZN8CONTROLS6updateEv+0x240>)
10003474:	f7fd fa5c 	bl	10000930 <_ZN7Buttons6Button3getENS_5StateE>
10003478:	4c8d      	ldr	r4, [pc, #564]	@ (100036b0 <_ZN8CONTROLS6updateEv+0x244>)
1000347a:	7822      	ldrb	r2, [r4, #0]
1000347c:	4290      	cmp	r0, r2
1000347e:	d02d      	beq.n	100034dc <_ZN8CONTROLS6updateEv+0x70>
10003480:	498c      	ldr	r1, [pc, #560]	@ (100036b4 <_ZN8CONTROLS6updateEv+0x248>)
10003482:	880b      	ldrh	r3, [r1, #0]
10003484:	3301      	adds	r3, #1
10003486:	b29b      	uxth	r3, r3
10003488:	2b54      	cmp	r3, #84	@ 0x54
1000348a:	800b      	strh	r3, [r1, #0]
1000348c:	d81c      	bhi.n	100034c8 <_ZN8CONTROLS6updateEv+0x5c>
1000348e:	4a8a      	ldr	r2, [pc, #552]	@ (100036b8 <_ZN8CONTROLS6updateEv+0x24c>)
10003490:	8813      	ldrh	r3, [r2, #0]
10003492:	3301      	adds	r3, #1
10003494:	b29b      	uxth	r3, r3
10003496:	2b03      	cmp	r3, #3
10003498:	d802      	bhi.n	100034a0 <_ZN8CONTROLS6updateEv+0x34>
1000349a:	8013      	strh	r3, [r2, #0]
1000349c:	e8bd 83f8 	ldmia.w	sp!, {r3, r4, r5, r6, r7, r8, r9, pc}
100034a0:	2100      	movs	r1, #0
100034a2:	4d86      	ldr	r5, [pc, #536]	@ (100036bc <_ZN8CONTROLS6updateEv+0x250>)
100034a4:	8011      	strh	r1, [r2, #0]
100034a6:	782b      	ldrb	r3, [r5, #0]
100034a8:	2b00      	cmp	r3, #0
100034aa:	d0f7      	beq.n	1000349c <_ZN8CONTROLS6updateEv+0x30>
100034ac:	7823      	ldrb	r3, [r4, #0]
100034ae:	b1cb      	cbz	r3, 100034e4 <_ZN8CONTROLS6updateEv+0x78>
100034b0:	4b83      	ldr	r3, [pc, #524]	@ (100036c0 <_ZN8CONTROLS6updateEv+0x254>)
100034b2:	781b      	ldrb	r3, [r3, #0]
100034b4:	3304      	adds	r3, #4
100034b6:	b2db      	uxtb	r3, r3
100034b8:	2b07      	cmp	r3, #7
100034ba:	d831      	bhi.n	10003520 <_ZN8CONTROLS6updateEv+0xb4>
100034bc:	e8df f003 	tbb	[pc, r3]
100034c0:	8aa5c2df 	.word	0x8aa5c2df
100034c4:	1534516e 	.word	0x1534516e
100034c8:	2501      	movs	r5, #1
100034ca:	2300      	movs	r3, #0
100034cc:	487b      	ldr	r0, [pc, #492]	@ (100036bc <_ZN8CONTROLS6updateEv+0x250>)
100034ce:	406a      	eors	r2, r5
100034d0:	7022      	strb	r2, [r4, #0]
100034d2:	7005      	strb	r5, [r0, #0]
100034d4:	800b      	strh	r3, [r1, #0]
100034d6:	f7ff fdfd 	bl	100030d4 <_ZN8CONTROLS16refreshInterfaceEv>
100034da:	e7d8      	b.n	1000348e <_ZN8CONTROLS6updateEv+0x22>
100034dc:	2200      	movs	r2, #0
100034de:	4b75      	ldr	r3, [pc, #468]	@ (100036b4 <_ZN8CONTROLS6updateEv+0x248>)
100034e0:	801a      	strh	r2, [r3, #0]
100034e2:	e7d4      	b.n	1000348e <_ZN8CONTROLS6updateEv+0x22>
100034e4:	4b76      	ldr	r3, [pc, #472]	@ (100036c0 <_ZN8CONTROLS6updateEv+0x254>)
100034e6:	781b      	ldrb	r3, [r3, #0]
100034e8:	e7e6      	b.n	100034b8 <_ZN8CONTROLS6updateEv+0x4c>
100034ea:	f04f 0900 	mov.w	r9, #0
100034ee:	4e75      	ldr	r6, [pc, #468]	@ (100036c4 <_ZN8CONTROLS6updateEv+0x258>)
100034f0:	4a75      	ldr	r2, [pc, #468]	@ (100036c8 <_ZN8CONTROLS6updateEv+0x25c>)
100034f2:	eba6 0786 	sub.w	r7, r6, r6, lsl #2
100034f6:	f506 7490 	add.w	r4, r6, #288	@ 0x120
100034fa:	eba2 0806 	sub.w	r8, r2, r6
100034fe:	f5a7 7758 	sub.w	r7, r7, #864	@ 0x360
10003502:	f506 7692 	add.w	r6, r6, #292	@ 0x124
10003506:	f814 3b01 	ldrb.w	r3, [r4], #1
1000350a:	b13b      	cbz	r3, 1000351c <_ZN8CONTROLS6updateEv+0xb0>
1000350c:	f857 3024 	ldr.w	r3, [r7, r4, lsl #2]
10003510:	b113      	cbz	r3, 10003518 <_ZN8CONTROLS6updateEv+0xac>
10003512:	f838 0014 	ldrh.w	r0, [r8, r4, lsl #1]
10003516:	4798      	blx	r3
10003518:	f804 9c01 	strb.w	r9, [r4, #-1]
1000351c:	42b4      	cmp	r4, r6
1000351e:	d1f2      	bne.n	10003506 <_ZN8CONTROLS6updateEv+0x9a>
10003520:	2300      	movs	r3, #0
10003522:	702b      	strb	r3, [r5, #0]
10003524:	e8bd 83f8 	ldmia.w	sp!, {r3, r4, r5, r6, r7, r8, r9, pc}
10003528:	f06f 08d9 	mvn.w	r8, #217	@ 0xd9
1000352c:	f04f 0900 	mov.w	r9, #0
10003530:	4b64      	ldr	r3, [pc, #400]	@ (100036c4 <_ZN8CONTROLS6updateEv+0x258>)
10003532:	eba3 0783 	sub.w	r7, r3, r3, lsl #2
10003536:	f103 04d0 	add.w	r4, r3, #208	@ 0xd0
1000353a:	f5a7 771c 	sub.w	r7, r7, #624	@ 0x270
1000353e:	f103 06d4 	add.w	r6, r3, #212	@ 0xd4
10003542:	eba8 0803 	sub.w	r8, r8, r3
10003546:	f814 3b01 	ldrb.w	r3, [r4], #1
1000354a:	b13b      	cbz	r3, 1000355c <_ZN8CONTROLS6updateEv+0xf0>
1000354c:	f857 3024 	ldr.w	r3, [r7, r4, lsl #2]
10003550:	b113      	cbz	r3, 10003558 <_ZN8CONTROLS6updateEv+0xec>
10003552:	f838 0014 	ldrh.w	r0, [r8, r4, lsl #1]
10003556:	4798      	blx	r3
10003558:	f804 9c01 	strb.w	r9, [r4, #-1]
1000355c:	42b4      	cmp	r4, r6
1000355e:	d1f2      	bne.n	10003546 <_ZN8CONTROLS6updateEv+0xda>
10003560:	e7de      	b.n	10003520 <_ZN8CONTROLS6updateEv+0xb4>
10003562:	f06f 0889 	mvn.w	r8, #137	@ 0x89
10003566:	f04f 0900 	mov.w	r9, #0
1000356a:	4b56      	ldr	r3, [pc, #344]	@ (100036c4 <_ZN8CONTROLS6updateEv+0x258>)
1000356c:	eba3 0783 	sub.w	r7, r3, r3, lsl #2
10003570:	f103 0480 	add.w	r4, r3, #128	@ 0x80
10003574:	f5a7 77c0 	sub.w	r7, r7, #384	@ 0x180
10003578:	f103 0684 	add.w	r6, r3, #132	@ 0x84
1000357c:	eba8 0803 	sub.w	r8, r8, r3
10003580:	f814 3b01 	ldrb.w	r3, [r4], #1
10003584:	b13b      	cbz	r3, 10003596 <_ZN8CONTROLS6updateEv+0x12a>
10003586:	f857 3024 	ldr.w	r3, [r7, r4, lsl #2]
1000358a:	b113      	cbz	r3, 10003592 <_ZN8CONTROLS6updateEv+0x126>
1000358c:	f838 0014 	ldrh.w	r0, [r8, r4, lsl #1]
10003590:	4798      	blx	r3
10003592:	f804 9c01 	strb.w	r9, [r4, #-1]
10003596:	42b4      	cmp	r4, r6
10003598:	d1f2      	bne.n	10003580 <_ZN8CONTROLS6updateEv+0x114>
1000359a:	e7c1      	b.n	10003520 <_ZN8CONTROLS6updateEv+0xb4>
1000359c:	f06f 0839 	mvn.w	r8, #57	@ 0x39
100035a0:	f04f 0900 	mov.w	r9, #0
100035a4:	4b47      	ldr	r3, [pc, #284]	@ (100036c4 <_ZN8CONTROLS6updateEv+0x258>)
100035a6:	eba3 0783 	sub.w	r7, r3, r3, lsl #2
100035aa:	f103 0430 	add.w	r4, r3, #48	@ 0x30
100035ae:	3f90      	subs	r7, #144	@ 0x90
100035b0:	f103 0634 	add.w	r6, r3, #52	@ 0x34
100035b4:	eba8 0803 	sub.w	r8, r8, r3
100035b8:	f814 3b01 	ldrb.w	r3, [r4], #1
100035bc:	b13b      	cbz	r3, 100035ce <_ZN8CONTROLS6updateEv+0x162>
100035be:	f857 3024 	ldr.w	r3, [r7, r4, lsl #2]
100035c2:	b113      	cbz	r3, 100035ca <_ZN8CONTROLS6updateEv+0x15e>
100035c4:	f838 0014 	ldrh.w	r0, [r8, r4, lsl #1]
100035c8:	4798      	blx	r3
100035ca:	f804 9c01 	strb.w	r9, [r4, #-1]
100035ce:	42b4      	cmp	r4, r6
100035d0:	d1f2      	bne.n	100035b8 <_ZN8CONTROLS6updateEv+0x14c>
100035d2:	e7a5      	b.n	10003520 <_ZN8CONTROLS6updateEv+0xb4>
100035d4:	f04f 0900 	mov.w	r9, #0
100035d8:	4e3a      	ldr	r6, [pc, #232]	@ (100036c4 <_ZN8CONTROLS6updateEv+0x258>)
100035da:	4a3c      	ldr	r2, [pc, #240]	@ (100036cc <_ZN8CONTROLS6updateEv+0x260>)
100035dc:	eba6 0786 	sub.w	r7, r6, r6, lsl #2
100035e0:	f106 04f8 	add.w	r4, r6, #248	@ 0xf8
100035e4:	eba2 0806 	sub.w	r8, r2, r6
100035e8:	f5a7 773a 	sub.w	r7, r7, #744	@ 0x2e8
100035ec:	36fc      	adds	r6, #252	@ 0xfc
100035ee:	f814 3b01 	ldrb.w	r3, [r4], #1
100035f2:	b13b      	cbz	r3, 10003604 <_ZN8CONTROLS6updateEv+0x198>
100035f4:	f857 3024 	ldr.w	r3, [r7, r4, lsl #2]
100035f8:	b113      	cbz	r3, 10003600 <_ZN8CONTROLS6updateEv+0x194>
100035fa:	f838 0014 	ldrh.w	r0, [r8, r4, lsl #1]
100035fe:	4798      	blx	r3
10003600:	f804 9c01 	strb.w	r9, [r4, #-1]
10003604:	42b4      	cmp	r4, r6
10003606:	d1f2      	bne.n	100035ee <_ZN8CONTROLS6updateEv+0x182>
10003608:	e78a      	b.n	10003520 <_ZN8CONTROLS6updateEv+0xb4>
1000360a:	f06f 08b1 	mvn.w	r8, #177	@ 0xb1
1000360e:	f04f 0900 	mov.w	r9, #0
10003612:	4b2c      	ldr	r3, [pc, #176]	@ (100036c4 <_ZN8CONTROLS6updateEv+0x258>)
10003614:	eba3 0783 	sub.w	r7, r3, r3, lsl #2
10003618:	f103 04a8 	add.w	r4, r3, #168	@ 0xa8
1000361c:	f5a7 77fc 	sub.w	r7, r7, #504	@ 0x1f8
10003620:	f103 06ac 	add.w	r6, r3, #172	@ 0xac
10003624:	eba8 0803 	sub.w	r8, r8, r3
10003628:	f814 3b01 	ldrb.w	r3, [r4], #1
1000362c:	b13b      	cbz	r3, 1000363e <_ZN8CONTROLS6updateEv+0x1d2>
1000362e:	f857 3024 	ldr.w	r3, [r7, r4, lsl #2]
10003632:	b113      	cbz	r3, 1000363a <_ZN8CONTROLS6updateEv+0x1ce>
10003634:	f838 0014 	ldrh.w	r0, [r8, r4, lsl #1]
10003638:	4798      	blx	r3
1000363a:	f804 9c01 	strb.w	r9, [r4, #-1]
1000363e:	42b4      	cmp	r4, r6
10003640:	d1f2      	bne.n	10003628 <_ZN8CONTROLS6updateEv+0x1bc>
10003642:	e76d      	b.n	10003520 <_ZN8CONTROLS6updateEv+0xb4>
10003644:	f06f 0861 	mvn.w	r8, #97	@ 0x61
10003648:	f04f 0900 	mov.w	r9, #0
1000364c:	4b1d      	ldr	r3, [pc, #116]	@ (100036c4 <_ZN8CONTROLS6updateEv+0x258>)
1000364e:	eba3 0783 	sub.w	r7, r3, r3, lsl #2
10003652:	f103 0458 	add.w	r4, r3, #88	@ 0x58
10003656:	f5a7 7784 	sub.w	r7, r7, #264	@ 0x108
1000365a:	f103 065c 	add.w	r6, r3, #92	@ 0x5c
1000365e:	eba8 0803 	sub.w	r8, r8, r3
10003662:	f814 3b01 	ldrb.w	r3, [r4], #1
10003666:	b13b      	cbz	r3, 10003678 <_ZN8CONTROLS6updateEv+0x20c>
10003668:	f857 3024 	ldr.w	r3, [r7, r4, lsl #2]
1000366c:	b113      	cbz	r3, 10003674 <_ZN8CONTROLS6updateEv+0x208>
1000366e:	f838 0014 	ldrh.w	r0, [r8, r4, lsl #1]
10003672:	4798      	blx	r3
10003674:	f804 9c01 	strb.w	r9, [r4, #-1]
10003678:	42a6      	cmp	r6, r4
1000367a:	d1f2      	bne.n	10003662 <_ZN8CONTROLS6updateEv+0x1f6>
1000367c:	e750      	b.n	10003520 <_ZN8CONTROLS6updateEv+0xb4>
1000367e:	4e11      	ldr	r6, [pc, #68]	@ (100036c4 <_ZN8CONTROLS6updateEv+0x258>)
10003680:	f04f 0900 	mov.w	r9, #0
10003684:	4634      	mov	r4, r6
10003686:	3608      	adds	r6, #8
10003688:	4637      	mov	r7, r6
1000368a:	f1c4 080c 	rsb	r8, r4, #12
1000368e:	f816 3b01 	ldrb.w	r3, [r6], #1
10003692:	b133      	cbz	r3, 100036a2 <_ZN8CONTROLS6updateEv+0x236>
10003694:	f858 3014 	ldr.w	r3, [r8, r4, lsl #1]
10003698:	b10b      	cbz	r3, 1000369e <_ZN8CONTROLS6updateEv+0x232>
1000369a:	8820      	ldrh	r0, [r4, #0]
1000369c:	4798      	blx	r3
1000369e:	f806 9c01 	strb.w	r9, [r6, #-1]
100036a2:	3402      	adds	r4, #2
100036a4:	42bc      	cmp	r4, r7
100036a6:	d1f2      	bne.n	1000368e <_ZN8CONTROLS6updateEv+0x222>
100036a8:	e73a      	b.n	10003520 <_ZN8CONTROLS6updateEv+0xb4>
100036aa:	bf00      	nop
100036ac:	2002ebb4 	.word	0x2002ebb4
100036b0:	20030037 	.word	0x20030037
100036b4:	20030006 	.word	0x20030006
100036b8:	20030008 	.word	0x20030008
100036bc:	20030036 	.word	0x20030036
100036c0:	20030034 	.word	0x20030034
100036c4:	2002f0ac 	.word	0x2002f0ac
100036c8:	fffffed6 	.word	0xfffffed6
100036cc:	fffffefe 	.word	0xfffffefe

100036d0 <_GLOBAL__sub_I__ZN8CONTROLS7ControlE>:
100036d0:	2200      	movs	r2, #0
100036d2:	e92d 41f0 	stmdb	sp!, {r4, r5, r6, r7, r8, lr}
100036d6:	4bce      	ldr	r3, [pc, #824]	@ (10003a10 <_GLOBAL__sub_I__ZN8CONTROLS7ControlE+0x340>)
100036d8:	49ce      	ldr	r1, [pc, #824]	@ (10003a14 <_GLOBAL__sub_I__ZN8CONTROLS7ControlE+0x344>)
100036da:	f883 2103 	strb.w	r2, [r3, #259]	@ 0x103
100036de:	701a      	strb	r2, [r3, #0]
100036e0:	f203 1305 	addw	r3, r3, #261	@ 0x105
100036e4:	428b      	cmp	r3, r1
100036e6:	d1f8      	bne.n	100036da <_GLOBAL__sub_I__ZN8CONTROLS7ControlE+0xa>
100036e8:	f46f 417e 	mvn.w	r1, #65024	@ 0xfe00
100036ec:	f64a 4344 	movw	r3, #44100	@ 0xac44
100036f0:	48c9      	ldr	r0, [pc, #804]	@ (10003a18 <_GLOBAL__sub_I__ZN8CONTROLS7ControlE+0x348>)
100036f2:	4cca      	ldr	r4, [pc, #808]	@ (10003a1c <_GLOBAL__sub_I__ZN8CONTROLS7ControlE+0x34c>)
100036f4:	f64f 75ff 	movw	r5, #65535	@ 0xffff
100036f8:	82c2      	strh	r2, [r0, #22]
100036fa:	6182      	str	r2, [r0, #24]
100036fc:	8442      	strh	r2, [r0, #34]	@ 0x22
100036fe:	6242      	str	r2, [r0, #36]	@ 0x24
10003700:	85c2      	strh	r2, [r0, #46]	@ 0x2e
10003702:	6302      	str	r2, [r0, #48]	@ 0x30
10003704:	8702      	strh	r2, [r0, #56]	@ 0x38
10003706:	6003      	str	r3, [r0, #0]
10003708:	61c1      	str	r1, [r0, #28]
1000370a:	6281      	str	r1, [r0, #40]	@ 0x28
1000370c:	6341      	str	r1, [r0, #52]	@ 0x34
1000370e:	4623      	mov	r3, r4
10003710:	2100      	movs	r1, #0
10003712:	2204      	movs	r2, #4
10003714:	f8a0 5040 	strh.w	r5, [r0, #64]	@ 0x40
10003718:	1d07      	adds	r7, r0, #4
1000371a:	f100 0608 	add.w	r6, r0, #8
1000371e:	f100 050c 	add.w	r5, r0, #12
10003722:	f504 7cf0 	add.w	ip, r4, #480	@ 0x1e0
10003726:	3010      	adds	r0, #16
10003728:	f883 2020 	strb.w	r2, [r3, #32]
1000372c:	f883 1024 	strb.w	r1, [r3, #36]	@ 0x24
10003730:	f883 1026 	strb.w	r1, [r3, #38]	@ 0x26
10003734:	f883 1027 	strb.w	r1, [r3, #39]	@ 0x27
10003738:	f883 1028 	strb.w	r1, [r3, #40]	@ 0x28
1000373c:	e9c3 7600 	strd	r7, r6, [r3]
10003740:	e9c3 5002 	strd	r5, r0, [r3, #8]
10003744:	e9c3 1104 	strd	r1, r1, [r3, #16]
10003748:	e9c3 1106 	strd	r1, r1, [r3, #24]
1000374c:	e9c3 110b 	strd	r1, r1, [r3, #44]	@ 0x2c
10003750:	e9c3 110d 	strd	r1, r1, [r3, #52]	@ 0x34
10003754:	333c      	adds	r3, #60	@ 0x3c
10003756:	4563      	cmp	r3, ip
10003758:	d1e6      	bne.n	10003728 <_GLOBAL__sub_I__ZN8CONTROLS7ControlE+0x58>
1000375a:	2301      	movs	r3, #1
1000375c:	f884 3060 	strb.w	r3, [r4, #96]	@ 0x60
10003760:	2306      	movs	r3, #6
10003762:	f884 318c 	strb.w	r3, [r4, #396]	@ 0x18c
10003766:	2307      	movs	r3, #7
10003768:	f240 1601 	movw	r6, #257	@ 0x101
1000376c:	f44f 7780 	mov.w	r7, #256	@ 0x100
10003770:	f884 2114 	strb.w	r2, [r4, #276]	@ 0x114
10003774:	f884 31c8 	strb.w	r3, [r4, #456]	@ 0x1c8
10003778:	2505      	movs	r5, #5
1000377a:	4ba9      	ldr	r3, [pc, #676]	@ (10003a20 <_GLOBAL__sub_I__ZN8CONTROLS7ControlE+0x350>)
1000377c:	2203      	movs	r2, #3
1000377e:	f8df 830c 	ldr.w	r8, [pc, #780]	@ 10003a8c <_GLOBAL__sub_I__ZN8CONTROLS7ControlE+0x3bc>
10003782:	2002      	movs	r0, #2
10003784:	f8c3 800c 	str.w	r8, [r3, #12]
10003788:	f8df 8304 	ldr.w	r8, [pc, #772]	@ 10003a90 <_GLOBAL__sub_I__ZN8CONTROLS7ControlE+0x3c0>
1000378c:	e9c3 1108 	strd	r1, r1, [r3, #32]
10003790:	f8c3 8010 	str.w	r8, [r3, #16]
10003794:	f8df 82fc 	ldr.w	r8, [pc, #764]	@ 10003a94 <_GLOBAL__sub_I__ZN8CONTROLS7ControlE+0x3c4>
10003798:	e9c3 1112 	strd	r1, r1, [r3, #72]	@ 0x48
1000379c:	f8c3 8014 	str.w	r8, [r3, #20]
100037a0:	f8df 82f4 	ldr.w	r8, [pc, #756]	@ 10003a98 <_GLOBAL__sub_I__ZN8CONTROLS7ControlE+0x3c8>
100037a4:	f8c4 11e0 	str.w	r1, [r4, #480]	@ 0x1e0
100037a8:	f8c3 8018 	str.w	r8, [r3, #24]
100037ac:	f8df 82ec 	ldr.w	r8, [pc, #748]	@ 10003a9c <_GLOBAL__sub_I__ZN8CONTROLS7ControlE+0x3cc>
100037b0:	f884 1024 	strb.w	r1, [r4, #36]	@ 0x24
100037b4:	f8c3 8034 	str.w	r8, [r3, #52]	@ 0x34
100037b8:	f8df 82e4 	ldr.w	r8, [pc, #740]	@ 10003aa0 <_GLOBAL__sub_I__ZN8CONTROLS7ControlE+0x3d0>
100037bc:	f884 5150 	strb.w	r5, [r4, #336]	@ 0x150
100037c0:	f8c3 8038 	str.w	r8, [r3, #56]	@ 0x38
100037c4:	f8df 82dc 	ldr.w	r8, [pc, #732]	@ 10003aa4 <_GLOBAL__sub_I__ZN8CONTROLS7ControlE+0x3d4>
100037c8:	f884 20d8 	strb.w	r2, [r4, #216]	@ 0xd8
100037cc:	f8c3 803c 	str.w	r8, [r3, #60]	@ 0x3c
100037d0:	f8df 82d4 	ldr.w	r8, [pc, #724]	@ 10003aa8 <_GLOBAL__sub_I__ZN8CONTROLS7ControlE+0x3d8>
100037d4:	6759      	str	r1, [r3, #116]	@ 0x74
100037d6:	f8c3 8040 	str.w	r8, [r3, #64]	@ 0x40
100037da:	f8df 82d0 	ldr.w	r8, [pc, #720]	@ 10003aac <_GLOBAL__sub_I__ZN8CONTROLS7ControlE+0x3dc>
100037de:	f8a3 706c 	strh.w	r7, [r3, #108]	@ 0x6c
100037e2:	f8c3 805c 	str.w	r8, [r3, #92]	@ 0x5c
100037e6:	f8df 82c8 	ldr.w	r8, [pc, #712]	@ 10003ab0 <_GLOBAL__sub_I__ZN8CONTROLS7ControlE+0x3e0>
100037ea:	f884 009c 	strb.w	r0, [r4, #156]	@ 0x9c
100037ee:	f8c3 8060 	str.w	r8, [r3, #96]	@ 0x60
100037f2:	f8df 82c0 	ldr.w	r8, [pc, #704]	@ 10003ab4 <_GLOBAL__sub_I__ZN8CONTROLS7ControlE+0x3e4>
100037f6:	839e      	strh	r6, [r3, #28]
100037f8:	f8c3 8064 	str.w	r8, [r3, #100]	@ 0x64
100037fc:	f8df 82b8 	ldr.w	r8, [pc, #696]	@ 10003ab8 <_GLOBAL__sub_I__ZN8CONTROLS7ControlE+0x3e8>
10003800:	f8a3 6044 	strh.w	r6, [r3, #68]	@ 0x44
10003804:	f8c3 8068 	str.w	r8, [r3, #104]	@ 0x68
10003808:	f8df 82b0 	ldr.w	r8, [pc, #688]	@ 10003abc <_GLOBAL__sub_I__ZN8CONTROLS7ControlE+0x3ec>
1000380c:	2200      	movs	r2, #0
1000380e:	f8c3 8070 	str.w	r8, [r3, #112]	@ 0x70
10003812:	f8df 82ac 	ldr.w	r8, [pc, #684]	@ 10003ac0 <_GLOBAL__sub_I__ZN8CONTROLS7ControlE+0x3f0>
10003816:	f240 3cff 	movw	ip, #1023	@ 0x3ff
1000381a:	f8c3 8084 	str.w	r8, [r3, #132]	@ 0x84
1000381e:	f8df 82a4 	ldr.w	r8, [pc, #676]	@ 10003ac4 <_GLOBAL__sub_I__ZN8CONTROLS7ControlE+0x3f4>
10003822:	240a      	movs	r4, #10
10003824:	f8c3 8088 	str.w	r8, [r3, #136]	@ 0x88
10003828:	f8df 829c 	ldr.w	r8, [pc, #668]	@ 10003ac8 <_GLOBAL__sub_I__ZN8CONTROLS7ControlE+0x3f8>
1000382c:	f240 15ff 	movw	r5, #511	@ 0x1ff
10003830:	f8c3 808c 	str.w	r8, [r3, #140]	@ 0x8c
10003834:	f8a3 70bc 	strh.w	r7, [r3, #188]	@ 0xbc
10003838:	f8a3 710c 	strh.w	r7, [r3, #268]	@ 0x10c
1000383c:	4f79      	ldr	r7, [pc, #484]	@ (10003a24 <_GLOBAL__sub_I__ZN8CONTROLS7ControlE+0x354>)
1000383e:	f240 1e1f 	movw	lr, #287	@ 0x11f
10003842:	f8c3 7090 	str.w	r7, [r3, #144]	@ 0x90
10003846:	4f78      	ldr	r7, [pc, #480]	@ (10003a28 <_GLOBAL__sub_I__ZN8CONTROLS7ControlE+0x358>)
10003848:	e9c3 1126 	strd	r1, r1, [r3, #152]	@ 0x98
1000384c:	f8c3 70ac 	str.w	r7, [r3, #172]	@ 0xac
10003850:	4f76      	ldr	r7, [pc, #472]	@ (10003a2c <_GLOBAL__sub_I__ZN8CONTROLS7ControlE+0x35c>)
10003852:	e9c3 113a 	strd	r1, r1, [r3, #232]	@ 0xe8
10003856:	f8c3 70b0 	str.w	r7, [r3, #176]	@ 0xb0
1000385a:	4f75      	ldr	r7, [pc, #468]	@ (10003a30 <_GLOBAL__sub_I__ZN8CONTROLS7ControlE+0x360>)
1000385c:	e9c3 114e 	strd	r1, r1, [r3, #312]	@ 0x138
10003860:	f8c3 70b4 	str.w	r7, [r3, #180]	@ 0xb4
10003864:	4f73      	ldr	r7, [pc, #460]	@ (10003a34 <_GLOBAL__sub_I__ZN8CONTROLS7ControlE+0x364>)
10003866:	f8c3 10c4 	str.w	r1, [r3, #196]	@ 0xc4
1000386a:	f8c3 70b8 	str.w	r7, [r3, #184]	@ 0xb8
1000386e:	4f72      	ldr	r7, [pc, #456]	@ (10003a38 <_GLOBAL__sub_I__ZN8CONTROLS7ControlE+0x368>)
10003870:	f8c3 1114 	str.w	r1, [r3, #276]	@ 0x114
10003874:	f8c3 70c0 	str.w	r7, [r3, #192]	@ 0xc0
10003878:	4f70      	ldr	r7, [pc, #448]	@ (10003a3c <_GLOBAL__sub_I__ZN8CONTROLS7ControlE+0x36c>)
1000387a:	f8c3 112c 	str.w	r1, [r3, #300]	@ 0x12c
1000387e:	f8c3 70d4 	str.w	r7, [r3, #212]	@ 0xd4
10003882:	4f6f      	ldr	r7, [pc, #444]	@ (10003a40 <_GLOBAL__sub_I__ZN8CONTROLS7ControlE+0x370>)
10003884:	f8a3 6094 	strh.w	r6, [r3, #148]	@ 0x94
10003888:	f8c3 70d8 	str.w	r7, [r3, #216]	@ 0xd8
1000388c:	4f6d      	ldr	r7, [pc, #436]	@ (10003a44 <_GLOBAL__sub_I__ZN8CONTROLS7ControlE+0x374>)
1000388e:	f8a3 60e4 	strh.w	r6, [r3, #228]	@ 0xe4
10003892:	f8c3 70dc 	str.w	r7, [r3, #220]	@ 0xdc
10003896:	4f6c      	ldr	r7, [pc, #432]	@ (10003a48 <_GLOBAL__sub_I__ZN8CONTROLS7ControlE+0x378>)
10003898:	f8a3 6134 	strh.w	r6, [r3, #308]	@ 0x134
1000389c:	f8c3 70e0 	str.w	r7, [r3, #224]	@ 0xe0
100038a0:	4f6a      	ldr	r7, [pc, #424]	@ (10003a4c <_GLOBAL__sub_I__ZN8CONTROLS7ControlE+0x37c>)
100038a2:	f8c3 70fc 	str.w	r7, [r3, #252]	@ 0xfc
100038a6:	4f6a      	ldr	r7, [pc, #424]	@ (10003a50 <_GLOBAL__sub_I__ZN8CONTROLS7ControlE+0x380>)
100038a8:	f8c3 7100 	str.w	r7, [r3, #256]	@ 0x100
100038ac:	4f69      	ldr	r7, [pc, #420]	@ (10003a54 <_GLOBAL__sub_I__ZN8CONTROLS7ControlE+0x384>)
100038ae:	f8c3 7104 	str.w	r7, [r3, #260]	@ 0x104
100038b2:	4f69      	ldr	r7, [pc, #420]	@ (10003a58 <_GLOBAL__sub_I__ZN8CONTROLS7ControlE+0x388>)
100038b4:	f8c3 7108 	str.w	r7, [r3, #264]	@ 0x108
100038b8:	4f68      	ldr	r7, [pc, #416]	@ (10003a5c <_GLOBAL__sub_I__ZN8CONTROLS7ControlE+0x38c>)
100038ba:	f8c3 7110 	str.w	r7, [r3, #272]	@ 0x110
100038be:	4f68      	ldr	r7, [pc, #416]	@ (10003a60 <_GLOBAL__sub_I__ZN8CONTROLS7ControlE+0x390>)
100038c0:	f8c3 7124 	str.w	r7, [r3, #292]	@ 0x124
100038c4:	4f67      	ldr	r7, [pc, #412]	@ (10003a64 <_GLOBAL__sub_I__ZN8CONTROLS7ControlE+0x394>)
100038c6:	f8c3 7128 	str.w	r7, [r3, #296]	@ 0x128
100038ca:	4f67      	ldr	r7, [pc, #412]	@ (10003a68 <_GLOBAL__sub_I__ZN8CONTROLS7ControlE+0x398>)
100038cc:	f8c3 7130 	str.w	r7, [r3, #304]	@ 0x130
100038d0:	4f66      	ldr	r7, [pc, #408]	@ (10003a6c <_GLOBAL__sub_I__ZN8CONTROLS7ControlE+0x39c>)
100038d2:	f8c3 714c 	str.w	r7, [r3, #332]	@ 0x14c
100038d6:	e9c3 1158 	strd	r1, r1, [r3, #352]	@ 0x160
100038da:	4965      	ldr	r1, [pc, #404]	@ (10003a70 <_GLOBAL__sub_I__ZN8CONTROLS7ControlE+0x3a0>)
100038dc:	f8a3 615c 	strh.w	r6, [r3, #348]	@ 0x15c
100038e0:	f8c3 1150 	str.w	r1, [r3, #336]	@ 0x150
100038e4:	4963      	ldr	r1, [pc, #396]	@ (10003a74 <_GLOBAL__sub_I__ZN8CONTROLS7ControlE+0x3a4>)
100038e6:	f8c3 1154 	str.w	r1, [r3, #340]	@ 0x154
100038ea:	4963      	ldr	r1, [pc, #396]	@ (10003a78 <_GLOBAL__sub_I__ZN8CONTROLS7ControlE+0x3a8>)
100038ec:	f8c3 1158 	str.w	r1, [r3, #344]	@ 0x158
100038f0:	4b62      	ldr	r3, [pc, #392]	@ (10003a7c <_GLOBAL__sub_I__ZN8CONTROLS7ControlE+0x3ac>)
100038f2:	f503 6180 	add.w	r1, r3, #1024	@ 0x400
100038f6:	f803 2c7e 	strb.w	r2, [r3, #-126]
100038fa:	f803 2c7d 	strb.w	r2, [r3, #-125]
100038fe:	f803 2c7c 	strb.w	r2, [r3, #-124]
10003902:	f803 2c7b 	strb.w	r2, [r3, #-123]
10003906:	f823 2c7a 	strh.w	r2, [r3, #-122]
1000390a:	f823 2c78 	strh.w	r2, [r3, #-120]
1000390e:	f823 2c72 	strh.w	r2, [r3, #-114]
10003912:	f823 2c70 	strh.w	r2, [r3, #-112]
10003916:	f823 0c6a 	strh.w	r0, [r3, #-106]
1000391a:	f823 0c68 	strh.w	r0, [r3, #-104]
1000391e:	f823 cc66 	strh.w	ip, [r3, #-102]
10003922:	f823 4c64 	strh.w	r4, [r3, #-100]
10003926:	f823 2c62 	strh.w	r2, [r3, #-98]
1000392a:	f823 5c60 	strh.w	r5, [r3, #-96]
1000392e:	f823 2c5e 	strh.w	r2, [r3, #-94]
10003932:	f823 2c5c 	strh.w	r2, [r3, #-92]
10003936:	f823 2c56 	strh.w	r2, [r3, #-86]
1000393a:	f823 2c54 	strh.w	r2, [r3, #-84]
1000393e:	f823 2c52 	strh.w	r2, [r3, #-82]
10003942:	f823 2c50 	strh.w	r2, [r3, #-80]
10003946:	f823 2c4e 	strh.w	r2, [r3, #-78]
1000394a:	f823 2c4c 	strh.w	r2, [r3, #-76]
1000394e:	f823 0c46 	strh.w	r0, [r3, #-70]
10003952:	f823 0c44 	strh.w	r0, [r3, #-68]
10003956:	f823 cc42 	strh.w	ip, [r3, #-66]
1000395a:	f823 4c40 	strh.w	r4, [r3, #-64]
1000395e:	f823 cc3a 	strh.w	ip, [r3, #-58]
10003962:	f823 2c38 	strh.w	r2, [r3, #-56]
10003966:	f823 2c36 	strh.w	r2, [r3, #-54]
1000396a:	f823 2c34 	strh.w	r2, [r3, #-52]
1000396e:	f823 2c32 	strh.w	r2, [r3, #-50]
10003972:	f823 2c30 	strh.w	r2, [r3, #-48]
10003976:	f823 2c2e 	strh.w	r2, [r3, #-46]
1000397a:	f823 2c2c 	strh.w	r2, [r3, #-44]
1000397e:	f823 0c2a 	strh.w	r0, [r3, #-42]
10003982:	f823 0c28 	strh.w	r0, [r3, #-40]
10003986:	f823 cc26 	strh.w	ip, [r3, #-38]
1000398a:	f823 4c24 	strh.w	r4, [r3, #-36]
1000398e:	f823 2c1e 	strh.w	r2, [r3, #-30]
10003992:	f823 5c1c 	strh.w	r5, [r3, #-28]
10003996:	f823 2c1a 	strh.w	r2, [r3, #-26]
1000399a:	f823 2c18 	strh.w	r2, [r3, #-24]
1000399e:	f823 ec16 	strh.w	lr, [r3, #-22]
100039a2:	f823 2c14 	strh.w	r2, [r3, #-20]
100039a6:	f823 2c12 	strh.w	r2, [r3, #-18]
100039aa:	f823 2c10 	strh.w	r2, [r3, #-16]
100039ae:	f823 2c0a 	strh.w	r2, [r3, #-10]
100039b2:	3380      	adds	r3, #128	@ 0x80
100039b4:	428b      	cmp	r3, r1
100039b6:	d19e      	bne.n	100038f6 <_GLOBAL__sub_I__ZN8CONTROLS7ControlE+0x226>
100039b8:	f44f 3100 	mov.w	r1, #131072	@ 0x20000
100039bc:	4b30      	ldr	r3, [pc, #192]	@ (10003a80 <_GLOBAL__sub_I__ZN8CONTROLS7ControlE+0x3b0>)
100039be:	e9c3 220b 	strd	r2, r2, [r3, #44]	@ 0x2c
100039c2:	e9c3 2212 	strd	r2, r2, [r3, #72]	@ 0x48
100039c6:	805a      	strh	r2, [r3, #2]
100039c8:	605a      	str	r2, [r3, #4]
100039ca:	811a      	strh	r2, [r3, #8]
100039cc:	81da      	strh	r2, [r3, #14]
100039ce:	821a      	strh	r2, [r3, #16]
100039d0:	82d8      	strh	r0, [r3, #22]
100039d2:	8758      	strh	r0, [r3, #58]	@ 0x3a
100039d4:	849a      	strh	r2, [r3, #36]	@ 0x24
100039d6:	482b      	ldr	r0, [pc, #172]	@ (10003a84 <_GLOBAL__sub_I__ZN8CONTROLS7ControlE+0x3b4>)
100039d8:	855a      	strh	r2, [r3, #42]	@ 0x2a
100039da:	869a      	strh	r2, [r3, #52]	@ 0x34
100039dc:	651a      	str	r2, [r3, #80]	@ 0x50
100039de:	f8a3 2062 	strh.w	r2, [r3, #98]	@ 0x62
100039e2:	66da      	str	r2, [r3, #108]	@ 0x6c
100039e4:	f8a3 2070 	strh.w	r2, [r3, #112]	@ 0x70
100039e8:	f8a3 2076 	strh.w	r2, [r3, #118]	@ 0x76
100039ec:	4a26      	ldr	r2, [pc, #152]	@ (10003a88 <_GLOBAL__sub_I__ZN8CONTROLS7ControlE+0x3b8>)
100039ee:	e9c3 4507 	strd	r4, r5, [r3, #28]
100039f2:	e9c3 5019 	strd	r5, r0, [r3, #100]	@ 0x64
100039f6:	f8a3 c046 	strh.w	ip, [r3, #70]	@ 0x46
100039fa:	f8a3 4040 	strh.w	r4, [r3, #64]	@ 0x40
100039fe:	f8a3 405c 	strh.w	r4, [r3, #92]	@ 0x5c
10003a02:	6559      	str	r1, [r3, #84]	@ 0x54
10003a04:	619a      	str	r2, [r3, #24]
10003a06:	63da      	str	r2, [r3, #60]	@ 0x3c
10003a08:	659a      	str	r2, [r3, #88]	@ 0x58
10003a0a:	e8bd 81f0 	ldmia.w	sp!, {r4, r5, r6, r7, r8, pc}
10003a0e:	bf00      	nop
10003a10:	200143f8 	.word	0x200143f8
10003a14:	20018538 	.word	0x20018538
10003a18:	2002ced4 	.word	0x2002ced4
10003a1c:	2002d8c8 	.word	0x2002d8c8
10003a20:	2002f0ac 	.word	0x2002f0ac
10003a24:	10005e55 	.word	0x10005e55
10003a28:	10006415 	.word	0x10006415
10003a2c:	100063e5 	.word	0x100063e5
10003a30:	100063d5 	.word	0x100063d5
10003a34:	100063b1 	.word	0x100063b1
10003a38:	1000636d 	.word	0x1000636d
10003a3c:	10006e4d 	.word	0x10006e4d
10003a40:	10006e29 	.word	0x10006e29
10003a44:	100060f1 	.word	0x100060f1
10003a48:	10006e35 	.word	0x10006e35
10003a4c:	10005911 	.word	0x10005911
10003a50:	10005865 	.word	0x10005865
10003a54:	10005899 	.word	0x10005899
10003a58:	100058b5 	.word	0x100058b5
10003a5c:	100057f1 	.word	0x100057f1
10003a60:	10005981 	.word	0x10005981
10003a64:	10005939 	.word	0x10005939
10003a68:	1000595d 	.word	0x1000595d
10003a6c:	10006421 	.word	0x10006421
10003a70:	10006441 	.word	0x10006441
10003a74:	10006461 	.word	0x10006461
10003a78:	1000646d 	.word	0x1000646d
10003a7c:	2002ed2c 	.word	0x2002ed2c
10003a80:	2002ec2c 	.word	0x2002ec2c
10003a84:	011f0000 	.word	0x011f0000
10003a88:	03ff0002 	.word	0x03ff0002
10003a8c:	10006d41 	.word	0x10006d41
10003a90:	10006d51 	.word	0x10006d51
10003a94:	10006d5d 	.word	0x10006d5d
10003a98:	10006d69 	.word	0x10006d69
10003a9c:	10006d85 	.word	0x10006d85
10003aa0:	10006da5 	.word	0x10006da5
10003aa4:	10006dc5 	.word	0x10006dc5
10003aa8:	10006dd1 	.word	0x10006dd1
10003aac:	10006031 	.word	0x10006031
10003ab0:	10006041 	.word	0x10006041
10003ab4:	10006091 	.word	0x10006091
10003ab8:	10006051 	.word	0x10006051
10003abc:	10006011 	.word	0x10006011
10003ac0:	10005e09 	.word	0x10005e09
10003ac4:	10005e29 	.word	0x10005e29
10003ac8:	10005e49 	.word	0x10005e49

10003acc <_ZN6PRESET4initEv>:
10003acc:	f7fd b900 	b.w	10000cd0 <_ZN6EEPROM4initEv>

10003ad0 <_ZN6PRESET4loadEhRNS_11SynthPresetE>:
10003ad0:	b530      	push	{r4, r5, lr}
10003ad2:	2807      	cmp	r0, #7
10003ad4:	b0a1      	sub	sp, #132	@ 0x84
10003ad6:	d817      	bhi.n	10003b08 <_ZN6PRESET4loadEhRNS_11SynthPresetE+0x38>
10003ad8:	4604      	mov	r4, r0
10003ada:	460d      	mov	r5, r1
10003adc:	2100      	movs	r1, #0
10003ade:	227f      	movs	r2, #127	@ 0x7f
10003ae0:	f10d 0001 	add.w	r0, sp, #1
10003ae4:	eb04 0444 	add.w	r4, r4, r4, lsl #1
10003ae8:	f88d 1000 	strb.w	r1, [sp]
10003aec:	f009 feba 	bl	1000d864 <memset>
10003af0:	4669      	mov	r1, sp
10003af2:	01a0      	lsls	r0, r4, #6
10003af4:	2280      	movs	r2, #128	@ 0x80
10003af6:	f7fd f949 	bl	10000d8c <_ZN6EEPROM4readEtPht>
10003afa:	2280      	movs	r2, #128	@ 0x80
10003afc:	4669      	mov	r1, sp
10003afe:	4628      	mov	r0, r5
10003b00:	f009 fdbe 	bl	1000d680 <memcpy>
10003b04:	b021      	add	sp, #132	@ 0x84
10003b06:	bd30      	pop	{r4, r5, pc}
10003b08:	4902      	ldr	r1, [pc, #8]	@ (10003b14 <_ZN6PRESET4loadEhRNS_11SynthPresetE+0x44>)
10003b0a:	4803      	ldr	r0, [pc, #12]	@ (10003b18 <_ZN6PRESET4loadEhRNS_11SynthPresetE+0x48>)
10003b0c:	f006 fa86 	bl	1000a01c <__wrap_printf>
10003b10:	b021      	add	sp, #132	@ 0x84
10003b12:	bd30      	pop	{r4, r5, pc}
10003b14:	1000e37c 	.word	0x1000e37c
10003b18:	1000dee8 	.word	0x1000dee8

10003b1c <_ZN6PRESET14exportViaSysExERKNS_11SynthPresetE>:
10003b1c:	b530      	push	{r4, r5, lr}
10003b1e:	2400      	movs	r4, #0
10003b20:	b0e1      	sub	sp, #388	@ 0x184
10003b22:	4601      	mov	r1, r0
10003b24:	2280      	movs	r2, #128	@ 0x80
10003b26:	4668      	mov	r0, sp
10003b28:	f009 fdaa 	bl	1000d680 <memcpy>
10003b2c:	4620      	mov	r0, r4
10003b2e:	4623      	mov	r3, r4
10003b30:	f10d 3eff 	add.w	lr, sp, #4294967295	@ 0xffffffff
10003b34:	f10d 057f 	add.w	r5, sp, #127	@ 0x7f
10003b38:	f81e 2f01 	ldrb.w	r2, [lr, #1]!
10003b3c:	3308      	adds	r3, #8
10003b3e:	ea42 2404 	orr.w	r4, r2, r4, lsl #8
10003b42:	aa20      	add	r2, sp, #128	@ 0x80
10003b44:	b2a4      	uxth	r4, r4
10003b46:	1811      	adds	r1, r2, r0
10003b48:	3b07      	subs	r3, #7
10003b4a:	fa44 f203 	asr.w	r2, r4, r3
10003b4e:	f002 027f 	and.w	r2, r2, #127	@ 0x7f
10003b52:	2b07      	cmp	r3, #7
10003b54:	4684      	mov	ip, r0
10003b56:	f801 2b01 	strb.w	r2, [r1], #1
10003b5a:	f100 0001 	add.w	r0, r0, #1
10003b5e:	d0f3      	beq.n	10003b48 <_ZN6PRESET14exportViaSysExERKNS_11SynthPresetE+0x2c>
10003b60:	4575      	cmp	r5, lr
10003b62:	d1e9      	bne.n	10003b38 <_ZN6PRESET14exportViaSysExERKNS_11SynthPresetE+0x1c>
10003b64:	b14b      	cbz	r3, 10003b7a <_ZN6PRESET14exportViaSysExERKNS_11SynthPresetE+0x5e>
10003b66:	f1c3 0307 	rsb	r3, r3, #7
10003b6a:	fa04 f303 	lsl.w	r3, r4, r3
10003b6e:	f003 037f 	and.w	r3, r3, #127	@ 0x7f
10003b72:	aa20      	add	r2, sp, #128	@ 0x80
10003b74:	5413      	strb	r3, [r2, r0]
10003b76:	f10c 0002 	add.w	r0, ip, #2
10003b7a:	a920      	add	r1, sp, #128	@ 0x80
10003b7c:	f000 fb66 	bl	1000424c <_ZN4MIDI9sendSysExEjPKh>
10003b80:	b061      	add	sp, #388	@ 0x184
10003b82:	bd30      	pop	{r4, r5, pc}

10003b84 <_ZN6PRESET9printDataERKNS_11SynthPresetE>:
10003b84:	b510      	push	{r4, lr}
10003b86:	4604      	mov	r4, r0
10003b88:	4881      	ldr	r0, [pc, #516]	@ (10003d90 <_ZN6PRESET9printDataERKNS_11SynthPresetE+0x20c>)
10003b8a:	f006 f9f1 	bl	10009f70 <__wrap_puts>
10003b8e:	4881      	ldr	r0, [pc, #516]	@ (10003d94 <_ZN6PRESET9printDataERKNS_11SynthPresetE+0x210>)
10003b90:	f006 f9ee 	bl	10009f70 <__wrap_puts>
10003b94:	4880      	ldr	r0, [pc, #512]	@ (10003d98 <_ZN6PRESET9printDataERKNS_11SynthPresetE+0x214>)
10003b96:	f006 f9eb 	bl	10009f70 <__wrap_puts>
10003b9a:	7821      	ldrb	r1, [r4, #0]
10003b9c:	487f      	ldr	r0, [pc, #508]	@ (10003d9c <_ZN6PRESET9printDataERKNS_11SynthPresetE+0x218>)
10003b9e:	f006 fa3d 	bl	1000a01c <__wrap_printf>
10003ba2:	7861      	ldrb	r1, [r4, #1]
10003ba4:	487e      	ldr	r0, [pc, #504]	@ (10003da0 <_ZN6PRESET9printDataERKNS_11SynthPresetE+0x21c>)
10003ba6:	f006 fa39 	bl	1000a01c <__wrap_printf>
10003baa:	487e      	ldr	r0, [pc, #504]	@ (10003da4 <_ZN6PRESET9printDataERKNS_11SynthPresetE+0x220>)
10003bac:	f006 f9e0 	bl	10009f70 <__wrap_puts>
10003bb0:	487d      	ldr	r0, [pc, #500]	@ (10003da8 <_ZN6PRESET9printDataERKNS_11SynthPresetE+0x224>)
10003bb2:	f006 f9dd 	bl	10009f70 <__wrap_puts>
10003bb6:	487d      	ldr	r0, [pc, #500]	@ (10003dac <_ZN6PRESET9printDataERKNS_11SynthPresetE+0x228>)
10003bb8:	f006 f9da 	bl	10009f70 <__wrap_puts>
10003bbc:	487c      	ldr	r0, [pc, #496]	@ (10003db0 <_ZN6PRESET9printDataERKNS_11SynthPresetE+0x22c>)
10003bbe:	f006 f9d7 	bl	10009f70 <__wrap_puts>
10003bc2:	89e2      	ldrh	r2, [r4, #14]
10003bc4:	88e1      	ldrh	r1, [r4, #6]
10003bc6:	487b      	ldr	r0, [pc, #492]	@ (10003db4 <_ZN6PRESET9printDataERKNS_11SynthPresetE+0x230>)
10003bc8:	f006 fa28 	bl	1000a01c <__wrap_printf>
10003bcc:	8a22      	ldrh	r2, [r4, #16]
10003bce:	8921      	ldrh	r1, [r4, #8]
10003bd0:	4879      	ldr	r0, [pc, #484]	@ (10003db8 <_ZN6PRESET9printDataERKNS_11SynthPresetE+0x234>)
10003bd2:	f006 fa23 	bl	1000a01c <__wrap_printf>
10003bd6:	4879      	ldr	r0, [pc, #484]	@ (10003dbc <_ZN6PRESET9printDataERKNS_11SynthPresetE+0x238>)
10003bd8:	f006 f9ca 	bl	10009f70 <__wrap_puts>
10003bdc:	8c62      	ldrh	r2, [r4, #34]	@ 0x22
10003bde:	8ca1      	ldrh	r1, [r4, #36]	@ 0x24
10003be0:	4877      	ldr	r0, [pc, #476]	@ (10003dc0 <_ZN6PRESET9printDataERKNS_11SynthPresetE+0x23c>)
10003be2:	f006 fa1b 	bl	1000a01c <__wrap_printf>
10003be6:	8c22      	ldrh	r2, [r4, #32]
10003be8:	8be1      	ldrh	r1, [r4, #30]
10003bea:	4876      	ldr	r0, [pc, #472]	@ (10003dc4 <_ZN6PRESET9printDataERKNS_11SynthPresetE+0x240>)
10003bec:	f006 fa16 	bl	1000a01c <__wrap_printf>
10003bf0:	8ae1      	ldrh	r1, [r4, #22]
10003bf2:	4875      	ldr	r0, [pc, #468]	@ (10003dc8 <_ZN6PRESET9printDataERKNS_11SynthPresetE+0x244>)
10003bf4:	f006 fa12 	bl	1000a01c <__wrap_printf>
10003bf8:	8b21      	ldrh	r1, [r4, #24]
10003bfa:	4874      	ldr	r0, [pc, #464]	@ (10003dcc <_ZN6PRESET9printDataERKNS_11SynthPresetE+0x248>)
10003bfc:	f006 fa0e 	bl	1000a01c <__wrap_printf>
10003c00:	8b61      	ldrh	r1, [r4, #26]
10003c02:	4873      	ldr	r0, [pc, #460]	@ (10003dd0 <_ZN6PRESET9printDataERKNS_11SynthPresetE+0x24c>)
10003c04:	f006 fa0a 	bl	1000a01c <__wrap_printf>
10003c08:	8ba1      	ldrh	r1, [r4, #28]
10003c0a:	4872      	ldr	r0, [pc, #456]	@ (10003dd4 <_ZN6PRESET9printDataERKNS_11SynthPresetE+0x250>)
10003c0c:	f006 fa06 	bl	1000a01c <__wrap_printf>
10003c10:	4864      	ldr	r0, [pc, #400]	@ (10003da4 <_ZN6PRESET9printDataERKNS_11SynthPresetE+0x220>)
10003c12:	f006 f9ad 	bl	10009f70 <__wrap_puts>
10003c16:	4870      	ldr	r0, [pc, #448]	@ (10003dd8 <_ZN6PRESET9printDataERKNS_11SynthPresetE+0x254>)
10003c18:	f006 f9aa 	bl	10009f70 <__wrap_puts>
10003c1c:	4863      	ldr	r0, [pc, #396]	@ (10003dac <_ZN6PRESET9printDataERKNS_11SynthPresetE+0x228>)
10003c1e:	f006 f9a7 	bl	10009f70 <__wrap_puts>
10003c22:	486e      	ldr	r0, [pc, #440]	@ (10003ddc <_ZN6PRESET9printDataERKNS_11SynthPresetE+0x258>)
10003c24:	f006 f9fa 	bl	1000a01c <__wrap_printf>
10003c28:	78e3      	ldrb	r3, [r4, #3]
10003c2a:	2b00      	cmp	r3, #0
10003c2c:	f000 80a3 	beq.w	10003d76 <_ZN6PRESET9printDataERKNS_11SynthPresetE+0x1f2>
10003c30:	486b      	ldr	r0, [pc, #428]	@ (10003de0 <_ZN6PRESET9printDataERKNS_11SynthPresetE+0x25c>)
10003c32:	f006 f99d 	bl	10009f70 <__wrap_puts>
10003c36:	f8b4 204e 	ldrh.w	r2, [r4, #78]	@ 0x4e
10003c3a:	f8b4 1046 	ldrh.w	r1, [r4, #70]	@ 0x46
10003c3e:	4869      	ldr	r0, [pc, #420]	@ (10003de4 <_ZN6PRESET9printDataERKNS_11SynthPresetE+0x260>)
10003c40:	f006 f9ec 	bl	1000a01c <__wrap_printf>
10003c44:	f8b4 2050 	ldrh.w	r2, [r4, #80]	@ 0x50
10003c48:	f8b4 1048 	ldrh.w	r1, [r4, #72]	@ 0x48
10003c4c:	4866      	ldr	r0, [pc, #408]	@ (10003de8 <_ZN6PRESET9printDataERKNS_11SynthPresetE+0x264>)
10003c4e:	f006 f9e5 	bl	1000a01c <__wrap_printf>
10003c52:	f8b4 2052 	ldrh.w	r2, [r4, #82]	@ 0x52
10003c56:	f8b4 104a 	ldrh.w	r1, [r4, #74]	@ 0x4a
10003c5a:	4864      	ldr	r0, [pc, #400]	@ (10003dec <_ZN6PRESET9printDataERKNS_11SynthPresetE+0x268>)
10003c5c:	f006 f9de 	bl	1000a01c <__wrap_printf>
10003c60:	f8b4 2054 	ldrh.w	r2, [r4, #84]	@ 0x54
10003c64:	f8b4 104c 	ldrh.w	r1, [r4, #76]	@ 0x4c
10003c68:	4861      	ldr	r0, [pc, #388]	@ (10003df0 <_ZN6PRESET9printDataERKNS_11SynthPresetE+0x26c>)
10003c6a:	f006 f9d7 	bl	1000a01c <__wrap_printf>
10003c6e:	f8b4 1056 	ldrh.w	r1, [r4, #86]	@ 0x56
10003c72:	4855      	ldr	r0, [pc, #340]	@ (10003dc8 <_ZN6PRESET9printDataERKNS_11SynthPresetE+0x244>)
10003c74:	f006 f9d2 	bl	1000a01c <__wrap_printf>
10003c78:	f8b4 1058 	ldrh.w	r1, [r4, #88]	@ 0x58
10003c7c:	4853      	ldr	r0, [pc, #332]	@ (10003dcc <_ZN6PRESET9printDataERKNS_11SynthPresetE+0x248>)
10003c7e:	f006 f9cd 	bl	1000a01c <__wrap_printf>
10003c82:	f8b4 105a 	ldrh.w	r1, [r4, #90]	@ 0x5a
10003c86:	4852      	ldr	r0, [pc, #328]	@ (10003dd0 <_ZN6PRESET9printDataERKNS_11SynthPresetE+0x24c>)
10003c88:	f006 f9c8 	bl	1000a01c <__wrap_printf>
10003c8c:	f8b4 105c 	ldrh.w	r1, [r4, #92]	@ 0x5c
10003c90:	4850      	ldr	r0, [pc, #320]	@ (10003dd4 <_ZN6PRESET9printDataERKNS_11SynthPresetE+0x250>)
10003c92:	f006 f9c3 	bl	1000a01c <__wrap_printf>
10003c96:	4843      	ldr	r0, [pc, #268]	@ (10003da4 <_ZN6PRESET9printDataERKNS_11SynthPresetE+0x220>)
10003c98:	f006 f96a 	bl	10009f70 <__wrap_puts>
10003c9c:	4855      	ldr	r0, [pc, #340]	@ (10003df4 <_ZN6PRESET9printDataERKNS_11SynthPresetE+0x270>)
10003c9e:	f006 f967 	bl	10009f70 <__wrap_puts>
10003ca2:	4842      	ldr	r0, [pc, #264]	@ (10003dac <_ZN6PRESET9printDataERKNS_11SynthPresetE+0x228>)
10003ca4:	f006 f964 	bl	10009f70 <__wrap_puts>
10003ca8:	484c      	ldr	r0, [pc, #304]	@ (10003ddc <_ZN6PRESET9printDataERKNS_11SynthPresetE+0x258>)
10003caa:	f006 f9b7 	bl	1000a01c <__wrap_printf>
10003cae:	78a3      	ldrb	r3, [r4, #2]
10003cb0:	2b00      	cmp	r3, #0
10003cb2:	d068      	beq.n	10003d86 <_ZN6PRESET9printDataERKNS_11SynthPresetE+0x202>
10003cb4:	484a      	ldr	r0, [pc, #296]	@ (10003de0 <_ZN6PRESET9printDataERKNS_11SynthPresetE+0x25c>)
10003cb6:	f006 f95b 	bl	10009f70 <__wrap_puts>
10003cba:	8d61      	ldrh	r1, [r4, #42]	@ 0x2a
10003cbc:	484e      	ldr	r0, [pc, #312]	@ (10003df8 <_ZN6PRESET9printDataERKNS_11SynthPresetE+0x274>)
10003cbe:	f006 f9ad 	bl	1000a01c <__wrap_printf>
10003cc2:	8da1      	ldrh	r1, [r4, #44]	@ 0x2c
10003cc4:	484d      	ldr	r0, [pc, #308]	@ (10003dfc <_ZN6PRESET9printDataERKNS_11SynthPresetE+0x278>)
10003cc6:	f006 f9a9 	bl	1000a01c <__wrap_printf>
10003cca:	8de1      	ldrh	r1, [r4, #46]	@ 0x2e
10003ccc:	484c      	ldr	r0, [pc, #304]	@ (10003e00 <_ZN6PRESET9printDataERKNS_11SynthPresetE+0x27c>)
10003cce:	f006 f9a5 	bl	1000a01c <__wrap_printf>
10003cd2:	8e21      	ldrh	r1, [r4, #48]	@ 0x30
10003cd4:	484b      	ldr	r0, [pc, #300]	@ (10003e04 <_ZN6PRESET9printDataERKNS_11SynthPresetE+0x280>)
10003cd6:	f006 f9a1 	bl	1000a01c <__wrap_printf>
10003cda:	8f61      	ldrh	r1, [r4, #58]	@ 0x3a
10003cdc:	483a      	ldr	r0, [pc, #232]	@ (10003dc8 <_ZN6PRESET9printDataERKNS_11SynthPresetE+0x244>)
10003cde:	f006 f99d 	bl	1000a01c <__wrap_printf>
10003ce2:	8fa1      	ldrh	r1, [r4, #60]	@ 0x3c
10003ce4:	4839      	ldr	r0, [pc, #228]	@ (10003dcc <_ZN6PRESET9printDataERKNS_11SynthPresetE+0x248>)
10003ce6:	f006 f999 	bl	1000a01c <__wrap_printf>
10003cea:	8fe1      	ldrh	r1, [r4, #62]	@ 0x3e
10003cec:	4838      	ldr	r0, [pc, #224]	@ (10003dd0 <_ZN6PRESET9printDataERKNS_11SynthPresetE+0x24c>)
10003cee:	f006 f995 	bl	1000a01c <__wrap_printf>
10003cf2:	f8b4 1040 	ldrh.w	r1, [r4, #64]	@ 0x40
10003cf6:	4837      	ldr	r0, [pc, #220]	@ (10003dd4 <_ZN6PRESET9printDataERKNS_11SynthPresetE+0x250>)
10003cf8:	f006 f990 	bl	1000a01c <__wrap_printf>
10003cfc:	4829      	ldr	r0, [pc, #164]	@ (10003da4 <_ZN6PRESET9printDataERKNS_11SynthPresetE+0x220>)
10003cfe:	f006 f937 	bl	10009f70 <__wrap_puts>
10003d02:	4841      	ldr	r0, [pc, #260]	@ (10003e08 <_ZN6PRESET9printDataERKNS_11SynthPresetE+0x284>)
10003d04:	f006 f934 	bl	10009f70 <__wrap_puts>
10003d08:	4828      	ldr	r0, [pc, #160]	@ (10003dac <_ZN6PRESET9printDataERKNS_11SynthPresetE+0x228>)
10003d0a:	f006 f931 	bl	10009f70 <__wrap_puts>
10003d0e:	4833      	ldr	r0, [pc, #204]	@ (10003ddc <_ZN6PRESET9printDataERKNS_11SynthPresetE+0x258>)
10003d10:	f006 f984 	bl	1000a01c <__wrap_printf>
10003d14:	7923      	ldrb	r3, [r4, #4]
10003d16:	b393      	cbz	r3, 10003d7e <_ZN6PRESET9printDataERKNS_11SynthPresetE+0x1fa>
10003d18:	4831      	ldr	r0, [pc, #196]	@ (10003de0 <_ZN6PRESET9printDataERKNS_11SynthPresetE+0x25c>)
10003d1a:	f006 f929 	bl	10009f70 <__wrap_puts>
10003d1e:	f8b4 206a 	ldrh.w	r2, [r4, #106]	@ 0x6a
10003d22:	f8b4 1062 	ldrh.w	r1, [r4, #98]	@ 0x62
10003d26:	4839      	ldr	r0, [pc, #228]	@ (10003e0c <_ZN6PRESET9printDataERKNS_11SynthPresetE+0x288>)
10003d28:	f006 f978 	bl	1000a01c <__wrap_printf>
10003d2c:	f8b4 206c 	ldrh.w	r2, [r4, #108]	@ 0x6c
10003d30:	f8b4 1064 	ldrh.w	r1, [r4, #100]	@ 0x64
10003d34:	4836      	ldr	r0, [pc, #216]	@ (10003e10 <_ZN6PRESET9printDataERKNS_11SynthPresetE+0x28c>)
10003d36:	f006 f971 	bl	1000a01c <__wrap_printf>
10003d3a:	f8b4 206e 	ldrh.w	r2, [r4, #110]	@ 0x6e
10003d3e:	f8b4 1066 	ldrh.w	r1, [r4, #102]	@ 0x66
10003d42:	4834      	ldr	r0, [pc, #208]	@ (10003e14 <_ZN6PRESET9printDataERKNS_11SynthPresetE+0x290>)
10003d44:	f006 f96a 	bl	1000a01c <__wrap_printf>
10003d48:	f8b4 1068 	ldrh.w	r1, [r4, #104]	@ 0x68
10003d4c:	f8b4 2070 	ldrh.w	r2, [r4, #112]	@ 0x70
10003d50:	4831      	ldr	r0, [pc, #196]	@ (10003e18 <_ZN6PRESET9printDataERKNS_11SynthPresetE+0x294>)
10003d52:	f006 f963 	bl	1000a01c <__wrap_printf>
10003d56:	4813      	ldr	r0, [pc, #76]	@ (10003da4 <_ZN6PRESET9printDataERKNS_11SynthPresetE+0x220>)
10003d58:	f006 f90a 	bl	10009f70 <__wrap_puts>
10003d5c:	482f      	ldr	r0, [pc, #188]	@ (10003e1c <_ZN6PRESET9printDataERKNS_11SynthPresetE+0x298>)
10003d5e:	f006 f907 	bl	10009f70 <__wrap_puts>
10003d62:	4812      	ldr	r0, [pc, #72]	@ (10003dac <_ZN6PRESET9printDataERKNS_11SynthPresetE+0x228>)
10003d64:	f006 f904 	bl	10009f70 <__wrap_puts>
10003d68:	f8b4 1076 	ldrh.w	r1, [r4, #118]	@ 0x76
10003d6c:	482c      	ldr	r0, [pc, #176]	@ (10003e20 <_ZN6PRESET9printDataERKNS_11SynthPresetE+0x29c>)
10003d6e:	e8bd 4010 	ldmia.w	sp!, {r4, lr}
10003d72:	f006 b953 	b.w	1000a01c <__wrap_printf>
10003d76:	482b      	ldr	r0, [pc, #172]	@ (10003e24 <_ZN6PRESET9printDataERKNS_11SynthPresetE+0x2a0>)
10003d78:	f006 f8fa 	bl	10009f70 <__wrap_puts>
10003d7c:	e75b      	b.n	10003c36 <_ZN6PRESET9printDataERKNS_11SynthPresetE+0xb2>
10003d7e:	4829      	ldr	r0, [pc, #164]	@ (10003e24 <_ZN6PRESET9printDataERKNS_11SynthPresetE+0x2a0>)
10003d80:	f006 f8f6 	bl	10009f70 <__wrap_puts>
10003d84:	e7cb      	b.n	10003d1e <_ZN6PRESET9printDataERKNS_11SynthPresetE+0x19a>
10003d86:	4827      	ldr	r0, [pc, #156]	@ (10003e24 <_ZN6PRESET9printDataERKNS_11SynthPresetE+0x2a0>)
10003d88:	f006 f8f2 	bl	10009f70 <__wrap_puts>
10003d8c:	e795      	b.n	10003cba <_ZN6PRESET9printDataERKNS_11SynthPresetE+0x136>
10003d8e:	bf00      	nop
10003d90:	1000e3a0 	.word	0x1000e3a0
10003d94:	1000e3d8 	.word	0x1000e3d8
10003d98:	1000e410 	.word	0x1000e410
10003d9c:	1000e448 	.word	0x1000e448
10003da0:	1000e460 	.word	0x1000e460
10003da4:	1000e478 	.word	0x1000e478
10003da8:	1000e4b0 	.word	0x1000e4b0
10003dac:	1000e4cc 	.word	0x1000e4cc
10003db0:	1000e504 	.word	0x1000e504
10003db4:	1000e534 	.word	0x1000e534
10003db8:	1000e56c 	.word	0x1000e56c
10003dbc:	1000e5a4 	.word	0x1000e5a4
10003dc0:	1000e5dc 	.word	0x1000e5dc
10003dc4:	1000e614 	.word	0x1000e614
10003dc8:	1000e64c 	.word	0x1000e64c
10003dcc:	1000e664 	.word	0x1000e664
10003dd0:	1000e67c 	.word	0x1000e67c
10003dd4:	1000e694 	.word	0x1000e694
10003dd8:	1000e6ac 	.word	0x1000e6ac
10003ddc:	1000e6c8 	.word	0x1000e6c8
10003de0:	1000e6dc 	.word	0x1000e6dc
10003de4:	1000e6f0 	.word	0x1000e6f0
10003de8:	1000e728 	.word	0x1000e728
10003dec:	1000e760 	.word	0x1000e760
10003df0:	1000e798 	.word	0x1000e798
10003df4:	1000e7d0 	.word	0x1000e7d0
10003df8:	1000e7ec 	.word	0x1000e7ec
10003dfc:	1000e804 	.word	0x1000e804
10003e00:	1000e81c 	.word	0x1000e81c
10003e04:	1000e834 	.word	0x1000e834
10003e08:	1000e84c 	.word	0x1000e84c
10003e0c:	1000e868 	.word	0x1000e868
10003e10:	1000e8a0 	.word	0x1000e8a0
10003e14:	1000e8d8 	.word	0x1000e8d8
10003e18:	1000e910 	.word	0x1000e910
10003e1c:	1000e948 	.word	0x1000e948
10003e20:	1000e964 	.word	0x1000e964
10003e24:	1000e6e4 	.word	0x1000e6e4

10003e28 <_ZN6PRESET4saveEhRNS_11SynthPresetE>:
10003e28:	b530      	push	{r4, r5, lr}
10003e2a:	2807      	cmp	r0, #7
10003e2c:	b0a1      	sub	sp, #132	@ 0x84
10003e2e:	d816      	bhi.n	10003e5e <_ZN6PRESET4saveEhRNS_11SynthPresetE+0x36>
10003e30:	460d      	mov	r5, r1
10003e32:	4604      	mov	r4, r0
10003e34:	4601      	mov	r1, r0
10003e36:	480d      	ldr	r0, [pc, #52]	@ (10003e6c <_ZN6PRESET4saveEhRNS_11SynthPresetE+0x44>)
10003e38:	f006 f8f0 	bl	1000a01c <__wrap_printf>
10003e3c:	4628      	mov	r0, r5
10003e3e:	f7ff fea1 	bl	10003b84 <_ZN6PRESET9printDataERKNS_11SynthPresetE>
10003e42:	eb04 0444 	add.w	r4, r4, r4, lsl #1
10003e46:	4629      	mov	r1, r5
10003e48:	2280      	movs	r2, #128	@ 0x80
10003e4a:	4668      	mov	r0, sp
10003e4c:	f009 fc18 	bl	1000d680 <memcpy>
10003e50:	2280      	movs	r2, #128	@ 0x80
10003e52:	4669      	mov	r1, sp
10003e54:	01a0      	lsls	r0, r4, #6
10003e56:	f7fc ff5f 	bl	10000d18 <_ZN6EEPROM5writeEtPht>
10003e5a:	b021      	add	sp, #132	@ 0x84
10003e5c:	bd30      	pop	{r4, r5, pc}
10003e5e:	4904      	ldr	r1, [pc, #16]	@ (10003e70 <_ZN6PRESET4saveEhRNS_11SynthPresetE+0x48>)
10003e60:	4804      	ldr	r0, [pc, #16]	@ (10003e74 <_ZN6PRESET4saveEhRNS_11SynthPresetE+0x4c>)
10003e62:	f006 f8db 	bl	1000a01c <__wrap_printf>
10003e66:	b021      	add	sp, #132	@ 0x84
10003e68:	bd30      	pop	{r4, r5, pc}
10003e6a:	bf00      	nop
10003e6c:	1000e97c 	.word	0x1000e97c
10003e70:	1000e37c 	.word	0x1000e37c
10003e74:	1000dee8 	.word	0x1000dee8

10003e78 <_GLOBAL__sub_I__ZN6PRESET4initEv>:
10003e78:	2200      	movs	r2, #0
10003e7a:	f46f 437e 	mvn.w	r3, #65024	@ 0xfe00
10003e7e:	492e      	ldr	r1, [pc, #184]	@ (10003f38 <_GLOBAL__sub_I__ZN6PRESET4initEv+0xc0>)
10003e80:	482e      	ldr	r0, [pc, #184]	@ (10003f3c <_GLOBAL__sub_I__ZN6PRESET4initEv+0xc4>)
10003e82:	b570      	push	{r4, r5, r6, lr}
10003e84:	f04f 0c04 	mov.w	ip, #4
10003e88:	f64a 4544 	movw	r5, #44100	@ 0xac44
10003e8c:	f64f 74ff 	movw	r4, #65535	@ 0xffff
10003e90:	e9c1 2306 	strd	r2, r3, [r1, #24]
10003e94:	e9c1 2309 	strd	r2, r3, [r1, #36]	@ 0x24
10003e98:	e9c1 230c 	strd	r2, r3, [r1, #48]	@ 0x30
10003e9c:	4603      	mov	r3, r0
10003e9e:	600d      	str	r5, [r1, #0]
10003ea0:	f8a1 4040 	strh.w	r4, [r1, #64]	@ 0x40
10003ea4:	82ca      	strh	r2, [r1, #22]
10003ea6:	844a      	strh	r2, [r1, #34]	@ 0x22
10003ea8:	85ca      	strh	r2, [r1, #46]	@ 0x2e
10003eaa:	870a      	strh	r2, [r1, #56]	@ 0x38
10003eac:	eb01 060c 	add.w	r6, r1, ip
10003eb0:	f101 0508 	add.w	r5, r1, #8
10003eb4:	f101 040c 	add.w	r4, r1, #12
10003eb8:	f500 7ef0 	add.w	lr, r0, #480	@ 0x1e0
10003ebc:	3110      	adds	r1, #16
10003ebe:	f883 c020 	strb.w	ip, [r3, #32]
10003ec2:	f883 2024 	strb.w	r2, [r3, #36]	@ 0x24
10003ec6:	f883 2026 	strb.w	r2, [r3, #38]	@ 0x26
10003eca:	f883 2027 	strb.w	r2, [r3, #39]	@ 0x27
10003ece:	f883 2028 	strb.w	r2, [r3, #40]	@ 0x28
10003ed2:	e9c3 6500 	strd	r6, r5, [r3]
10003ed6:	e9c3 4102 	strd	r4, r1, [r3, #8]
10003eda:	e9c3 2204 	strd	r2, r2, [r3, #16]
10003ede:	e9c3 2206 	strd	r2, r2, [r3, #24]
10003ee2:	e9c3 220b 	strd	r2, r2, [r3, #44]	@ 0x2c
10003ee6:	e9c3 220d 	strd	r2, r2, [r3, #52]	@ 0x34
10003eea:	333c      	adds	r3, #60	@ 0x3c
10003eec:	459e      	cmp	lr, r3
10003eee:	d1e6      	bne.n	10003ebe <_GLOBAL__sub_I__ZN6PRESET4initEv+0x46>
10003ef0:	2403      	movs	r4, #3
10003ef2:	f8c0 21e0 	str.w	r2, [r0, #480]	@ 0x1e0
10003ef6:	f880 2024 	strb.w	r2, [r0, #36]	@ 0x24
10003efa:	2206      	movs	r2, #6
10003efc:	2301      	movs	r3, #1
10003efe:	2102      	movs	r1, #2
10003f00:	2505      	movs	r5, #5
10003f02:	f880 40d8 	strb.w	r4, [r0, #216]	@ 0xd8
10003f06:	2407      	movs	r4, #7
10003f08:	f880 218c 	strb.w	r2, [r0, #396]	@ 0x18c
10003f0c:	2200      	movs	r2, #0
10003f0e:	f880 3060 	strb.w	r3, [r0, #96]	@ 0x60
10003f12:	f880 109c 	strb.w	r1, [r0, #156]	@ 0x9c
10003f16:	4b0a      	ldr	r3, [pc, #40]	@ (10003f40 <_GLOBAL__sub_I__ZN6PRESET4initEv+0xc8>)
10003f18:	490a      	ldr	r1, [pc, #40]	@ (10003f44 <_GLOBAL__sub_I__ZN6PRESET4initEv+0xcc>)
10003f1a:	f880 c114 	strb.w	ip, [r0, #276]	@ 0x114
10003f1e:	f880 5150 	strb.w	r5, [r0, #336]	@ 0x150
10003f22:	f880 41c8 	strb.w	r4, [r0, #456]	@ 0x1c8
10003f26:	f883 2103 	strb.w	r2, [r3, #259]	@ 0x103
10003f2a:	701a      	strb	r2, [r3, #0]
10003f2c:	f203 1305 	addw	r3, r3, #261	@ 0x105
10003f30:	428b      	cmp	r3, r1
10003f32:	d1f8      	bne.n	10003f26 <_GLOBAL__sub_I__ZN6PRESET4initEv+0xae>
10003f34:	bd70      	pop	{r4, r5, r6, pc}
10003f36:	bf00      	nop
10003f38:	2002cf18 	.word	0x2002cf18
10003f3c:	2002daac 	.word	0x2002daac
10003f40:	20018538 	.word	0x20018538
10003f44:	2001c678 	.word	0x2001c678

10003f48 <_ZN8INTERVAL15IntervalChecker13checkIntervalEv>:
10003f48:	4b08      	ldr	r3, [pc, #32]	@ (10003f6c <_ZN8INTERVAL15IntervalChecker13checkIntervalEv+0x24>)
10003f4a:	4602      	mov	r2, r0
10003f4c:	6819      	ldr	r1, [r3, #0]
10003f4e:	6800      	ldr	r0, [r0, #0]
10003f50:	fbb1 f3f0 	udiv	r3, r1, r0
10003f54:	fb00 1013 	mls	r0, r0, r3, r1
10003f58:	b928      	cbnz	r0, 10003f66 <_ZN8INTERVAL15IntervalChecker13checkIntervalEv+0x1e>
10003f5a:	6853      	ldr	r3, [r2, #4]
10003f5c:	4299      	cmp	r1, r3
10003f5e:	d003      	beq.n	10003f68 <_ZN8INTERVAL15IntervalChecker13checkIntervalEv+0x20>
10003f60:	2001      	movs	r0, #1
10003f62:	6051      	str	r1, [r2, #4]
10003f64:	4770      	bx	lr
10003f66:	2000      	movs	r0, #0
10003f68:	4770      	bx	lr
10003f6a:	bf00      	nop
10003f6c:	2002ffcc 	.word	0x2002ffcc

10003f70 <_GLOBAL__sub_I__ZN8INTERVAL15IntervalChecker11setIntervalEm>:
10003f70:	b410      	push	{r4}
10003f72:	2200      	movs	r2, #0
10003f74:	2440      	movs	r4, #64	@ 0x40
10003f76:	2020      	movs	r0, #32
10003f78:	4904      	ldr	r1, [pc, #16]	@ (10003f8c <_GLOBAL__sub_I__ZN8INTERVAL15IntervalChecker11setIntervalEm+0x1c>)
10003f7a:	4b05      	ldr	r3, [pc, #20]	@ (10003f90 <_GLOBAL__sub_I__ZN8INTERVAL15IntervalChecker11setIntervalEm+0x20>)
10003f7c:	e9c1 4200 	strd	r4, r2, [r1]
10003f80:	e9c3 0200 	strd	r0, r2, [r3]
10003f84:	f85d 4b04 	ldr.w	r4, [sp], #4
10003f88:	4770      	bx	lr
10003f8a:	bf00      	nop
10003f8c:	2002f21c 	.word	0x2002f21c
10003f90:	2002f214 	.word	0x2002f214

10003f94 <_ZN5QUEUE4initEv>:
10003f94:	b510      	push	{r4, lr}
10003f96:	f003 f97f 	bl	10007298 <next_striped_spin_lock_num>
10003f9a:	2210      	movs	r2, #16
10003f9c:	4603      	mov	r3, r0
10003f9e:	2104      	movs	r1, #4
10003fa0:	4806      	ldr	r0, [pc, #24]	@ (10003fbc <_ZN5QUEUE4initEv+0x28>)
10003fa2:	f004 f8cb 	bl	1000813c <queue_init_with_spinlock>
10003fa6:	f003 f977 	bl	10007298 <next_striped_spin_lock_num>
10003faa:	e8bd 4010 	ldmia.w	sp!, {r4, lr}
10003fae:	4603      	mov	r3, r0
10003fb0:	2210      	movs	r2, #16
10003fb2:	2101      	movs	r1, #1
10003fb4:	4802      	ldr	r0, [pc, #8]	@ (10003fc0 <_ZN5QUEUE4initEv+0x2c>)
10003fb6:	f004 b8c1 	b.w	1000813c <queue_init_with_spinlock>
10003fba:	bf00      	nop
10003fbc:	2002cdb4 	.word	0x2002cdb4
10003fc0:	2002cda4 	.word	0x2002cda4

10003fc4 <_ZN5QUEUE6updateEv>:
10003fc4:	b5f0      	push	{r4, r5, r6, r7, lr}
10003fc6:	4a1e      	ldr	r2, [pc, #120]	@ (10004040 <_ZN5QUEUE6updateEv+0x7c>)
10003fc8:	b083      	sub	sp, #12
10003fca:	6813      	ldr	r3, [r2, #0]
10003fcc:	f3ef 8010 	mrs	r0, PRIMASK
10003fd0:	b672      	cpsid	i
10003fd2:	e8d3 4fcf 	ldaexb	r4, [r3]
10003fd6:	2101      	movs	r1, #1
10003fd8:	2c00      	cmp	r4, #0
10003fda:	d1fa      	bne.n	10003fd2 <_ZN5QUEUE6updateEv+0xe>
10003fdc:	e8c3 1f44 	strexb	r4, r1, [r3]
10003fe0:	2c00      	cmp	r4, #0
10003fe2:	d1f6      	bne.n	10003fd2 <_ZN5QUEUE6updateEv+0xe>
10003fe4:	f3bf 8f5f 	dmb	sy
10003fe8:	8913      	ldrh	r3, [r2, #8]
10003fea:	8951      	ldrh	r1, [r2, #10]
10003fec:	1a5b      	subs	r3, r3, r1
10003fee:	d502      	bpl.n	10003ff6 <_ZN5QUEUE6updateEv+0x32>
10003ff0:	89d1      	ldrh	r1, [r2, #14]
10003ff2:	3101      	adds	r1, #1
10003ff4:	440b      	add	r3, r1
10003ff6:	2100      	movs	r1, #0
10003ff8:	6812      	ldr	r2, [r2, #0]
10003ffa:	e8c2 1f8f 	stlb	r1, [r2]
10003ffe:	f380 8810 	msr	PRIMASK, r0
10004002:	b13b      	cbz	r3, 10004014 <_ZN5QUEUE6updateEv+0x50>
10004004:	4d0e      	ldr	r5, [pc, #56]	@ (10004040 <_ZN5QUEUE6updateEv+0x7c>)
10004006:	4f0f      	ldr	r7, [pc, #60]	@ (10004044 <_ZN5QUEUE6updateEv+0x80>)
10004008:	4e0f      	ldr	r6, [pc, #60]	@ (10004048 <_ZN5QUEUE6updateEv+0x84>)
1000400a:	4628      	mov	r0, r5
1000400c:	a901      	add	r1, sp, #4
1000400e:	f004 f8ab 	bl	10008168 <queue_try_remove>
10004012:	b908      	cbnz	r0, 10004018 <_ZN5QUEUE6updateEv+0x54>
10004014:	b003      	add	sp, #12
10004016:	bdf0      	pop	{r4, r5, r6, r7, pc}
10004018:	f89d 4004 	ldrb.w	r4, [sp, #4]
1000401c:	f89d 3007 	ldrb.w	r3, [sp, #7]
10004020:	4620      	mov	r0, r4
10004022:	f89d 1005 	ldrb.w	r1, [sp, #5]
10004026:	b143      	cbz	r3, 1000403a <_ZN5QUEUE6updateEv+0x76>
10004028:	f002 fd20 	bl	10006a6c <_ZN5SYNTH7voiceOnEhh>
1000402c:	2c08      	cmp	r4, #8
1000402e:	d9ec      	bls.n	1000400a <_ZN5QUEUE6updateEv+0x46>
10004030:	4639      	mov	r1, r7
10004032:	4630      	mov	r0, r6
10004034:	f005 fff2 	bl	1000a01c <__wrap_printf>
10004038:	e7e7      	b.n	1000400a <_ZN5QUEUE6updateEv+0x46>
1000403a:	f002 fd47 	bl	10006acc <_ZN5SYNTH8voiceOffEh>
1000403e:	e7f5      	b.n	1000402c <_ZN5QUEUE6updateEv+0x68>
10004040:	2002cdb4 	.word	0x2002cdb4
10004044:	1000e998 	.word	0x1000e998
10004048:	1000dee8 	.word	0x1000dee8

1000404c <_ZN5QUEUE11triggerSendEhhb>:
1000404c:	4684      	mov	ip, r0
1000404e:	460b      	mov	r3, r1
10004050:	b500      	push	{lr}
10004052:	b083      	sub	sp, #12
10004054:	a901      	add	r1, sp, #4
10004056:	4806      	ldr	r0, [pc, #24]	@ (10004070 <_ZN5QUEUE11triggerSendEhhb+0x24>)
10004058:	f88d c004 	strb.w	ip, [sp, #4]
1000405c:	f88d 3005 	strb.w	r3, [sp, #5]
10004060:	f88d 2007 	strb.w	r2, [sp, #7]
10004064:	f004 f87c 	bl	10008160 <queue_try_add>
10004068:	b003      	add	sp, #12
1000406a:	f85d fb04 	ldr.w	pc, [sp], #4
1000406e:	bf00      	nop
10004070:	2002cdb4 	.word	0x2002cdb4

10004074 <_ZN5QUEUE11releaseSendEh>:
10004074:	4603      	mov	r3, r0
10004076:	b500      	push	{lr}
10004078:	b083      	sub	sp, #12
1000407a:	4805      	ldr	r0, [pc, #20]	@ (10004090 <_ZN5QUEUE11releaseSendEh+0x1c>)
1000407c:	f10d 0107 	add.w	r1, sp, #7
10004080:	f88d 3007 	strb.w	r3, [sp, #7]
10004084:	f004 f874 	bl	10008170 <queue_add_blocking>
10004088:	b003      	add	sp, #12
1000408a:	f85d fb04 	ldr.w	pc, [sp], #4
1000408e:	bf00      	nop
10004090:	2002cda4 	.word	0x2002cda4

10004094 <_ZN5QUEUE14releaseReceiveEv>:
10004094:	b500      	push	{lr}
10004096:	b083      	sub	sp, #12
10004098:	f10d 0107 	add.w	r1, sp, #7
1000409c:	4803      	ldr	r0, [pc, #12]	@ (100040ac <_ZN5QUEUE14releaseReceiveEv+0x18>)
1000409e:	f004 f863 	bl	10008168 <queue_try_remove>
100040a2:	f89d 0007 	ldrb.w	r0, [sp, #7]
100040a6:	b003      	add	sp, #12
100040a8:	f85d fb04 	ldr.w	pc, [sp], #4
100040ac:	2002cda4 	.word	0x2002cda4

100040b0 <_ZN5QUEUE17releaseCheckQueueEv>:
100040b0:	4b04      	ldr	r3, [pc, #16]	@ (100040c4 <_ZN5QUEUE17releaseCheckQueueEv+0x14>)
100040b2:	8918      	ldrh	r0, [r3, #8]
100040b4:	895a      	ldrh	r2, [r3, #10]
100040b6:	1a80      	subs	r0, r0, r2
100040b8:	d502      	bpl.n	100040c0 <_ZN5QUEUE17releaseCheckQueueEv+0x10>
100040ba:	89db      	ldrh	r3, [r3, #14]
100040bc:	3301      	adds	r3, #1
100040be:	4418      	add	r0, r3
100040c0:	b2c0      	uxtb	r0, r0
100040c2:	4770      	bx	lr
100040c4:	2002cda4 	.word	0x2002cda4

100040c8 <_GLOBAL__sub_I__ZN5QUEUE13trigger_queueE>:
100040c8:	2200      	movs	r2, #0
100040ca:	f46f 437e 	mvn.w	r3, #65024	@ 0xfe00
100040ce:	4929      	ldr	r1, [pc, #164]	@ (10004174 <_GLOBAL__sub_I__ZN5QUEUE13trigger_queueE+0xac>)
100040d0:	4829      	ldr	r0, [pc, #164]	@ (10004178 <_GLOBAL__sub_I__ZN5QUEUE13trigger_queueE+0xb0>)
100040d2:	b570      	push	{r4, r5, r6, lr}
100040d4:	f04f 0c04 	mov.w	ip, #4
100040d8:	f64a 4544 	movw	r5, #44100	@ 0xac44
100040dc:	f64f 74ff 	movw	r4, #65535	@ 0xffff
100040e0:	e9c1 2306 	strd	r2, r3, [r1, #24]
100040e4:	e9c1 2309 	strd	r2, r3, [r1, #36]	@ 0x24
100040e8:	e9c1 230c 	strd	r2, r3, [r1, #48]	@ 0x30
100040ec:	4603      	mov	r3, r0
100040ee:	600d      	str	r5, [r1, #0]
100040f0:	f8a1 4040 	strh.w	r4, [r1, #64]	@ 0x40
100040f4:	82ca      	strh	r2, [r1, #22]
100040f6:	844a      	strh	r2, [r1, #34]	@ 0x22
100040f8:	85ca      	strh	r2, [r1, #46]	@ 0x2e
100040fa:	870a      	strh	r2, [r1, #56]	@ 0x38
100040fc:	eb01 060c 	add.w	r6, r1, ip
10004100:	f101 0508 	add.w	r5, r1, #8
10004104:	f101 040c 	add.w	r4, r1, #12
10004108:	f500 7ef0 	add.w	lr, r0, #480	@ 0x1e0
1000410c:	3110      	adds	r1, #16
1000410e:	f883 c020 	strb.w	ip, [r3, #32]
10004112:	f883 2024 	strb.w	r2, [r3, #36]	@ 0x24
10004116:	f883 2026 	strb.w	r2, [r3, #38]	@ 0x26
1000411a:	f883 2027 	strb.w	r2, [r3, #39]	@ 0x27
1000411e:	f883 2028 	strb.w	r2, [r3, #40]	@ 0x28
10004122:	e9c3 6500 	strd	r6, r5, [r3]
10004126:	e9c3 4102 	strd	r4, r1, [r3, #8]
1000412a:	e9c3 2204 	strd	r2, r2, [r3, #16]
1000412e:	e9c3 2206 	strd	r2, r2, [r3, #24]
10004132:	e9c3 220b 	strd	r2, r2, [r3, #44]	@ 0x2c
10004136:	e9c3 220d 	strd	r2, r2, [r3, #52]	@ 0x34
1000413a:	333c      	adds	r3, #60	@ 0x3c
1000413c:	459e      	cmp	lr, r3
1000413e:	d1e6      	bne.n	1000410e <_GLOBAL__sub_I__ZN5QUEUE13trigger_queueE+0x46>
10004140:	2301      	movs	r3, #1
10004142:	2102      	movs	r1, #2
10004144:	2505      	movs	r5, #5
10004146:	2403      	movs	r4, #3
10004148:	f8c0 21e0 	str.w	r2, [r0, #480]	@ 0x1e0
1000414c:	f880 2024 	strb.w	r2, [r0, #36]	@ 0x24
10004150:	f880 3060 	strb.w	r3, [r0, #96]	@ 0x60
10004154:	2206      	movs	r2, #6
10004156:	2307      	movs	r3, #7
10004158:	f880 c114 	strb.w	ip, [r0, #276]	@ 0x114
1000415c:	f880 5150 	strb.w	r5, [r0, #336]	@ 0x150
10004160:	f880 40d8 	strb.w	r4, [r0, #216]	@ 0xd8
10004164:	f880 109c 	strb.w	r1, [r0, #156]	@ 0x9c
10004168:	f880 218c 	strb.w	r2, [r0, #396]	@ 0x18c
1000416c:	f880 31c8 	strb.w	r3, [r0, #456]	@ 0x1c8
10004170:	bd70      	pop	{r4, r5, r6, pc}
10004172:	bf00      	nop
10004174:	2002cf5c 	.word	0x2002cf5c
10004178:	2002dc90 	.word	0x2002dc90

1000417c <_ZN4MIDI19handleControlChangeEhh>:
1000417c:	3840      	subs	r0, #64	@ 0x40
1000417e:	00ca      	lsls	r2, r1, #3
10004180:	2810      	cmp	r0, #16
10004182:	d80a      	bhi.n	1000419a <_ZN4MIDI19handleControlChangeEhh+0x1e>
10004184:	e8df f000 	tbb	[pc, r0]
10004188:	0909090a 	.word	0x0909090a
1000418c:	120d0909 	.word	0x120d0909
10004190:	26211c17 	.word	0x26211c17
10004194:	0909092b 	.word	0x0909092b
10004198:	30          	.byte	0x30
10004199:	00          	.byte	0x00
1000419a:	4770      	bx	lr
1000419c:	4610      	mov	r0, r2
1000419e:	f002 bbc3 	b.w	10006928 <_ZN13NOTE_HANDLING15setSustainPedalEt>
100041a2:	2100      	movs	r1, #0
100041a4:	2301      	movs	r3, #1
100041a6:	4608      	mov	r0, r1
100041a8:	f7fe be06 	b.w	10002db8 <_ZN8CONTROLS7setKnobEhhtb>
100041ac:	2301      	movs	r3, #1
100041ae:	4619      	mov	r1, r3
100041b0:	4618      	mov	r0, r3
100041b2:	f7fe be01 	b.w	10002db8 <_ZN8CONTROLS7setKnobEhhtb>
100041b6:	2301      	movs	r3, #1
100041b8:	2103      	movs	r1, #3
100041ba:	2004      	movs	r0, #4
100041bc:	f7fe bdfc 	b.w	10002db8 <_ZN8CONTROLS7setKnobEhhtb>
100041c0:	2301      	movs	r3, #1
100041c2:	2100      	movs	r1, #0
100041c4:	2004      	movs	r0, #4
100041c6:	f7fe bdf7 	b.w	10002db8 <_ZN8CONTROLS7setKnobEhhtb>
100041ca:	2301      	movs	r3, #1
100041cc:	2100      	movs	r1, #0
100041ce:	4618      	mov	r0, r3
100041d0:	f7fe bdf2 	b.w	10002db8 <_ZN8CONTROLS7setKnobEhhtb>
100041d4:	2301      	movs	r3, #1
100041d6:	2000      	movs	r0, #0
100041d8:	4619      	mov	r1, r3
100041da:	f7fe bded 	b.w	10002db8 <_ZN8CONTROLS7setKnobEhhtb>
100041de:	2301      	movs	r3, #1
100041e0:	2100      	movs	r1, #0
100041e2:	2003      	movs	r0, #3
100041e4:	f7fe bde8 	b.w	10002db8 <_ZN8CONTROLS7setKnobEhhtb>
100041e8:	2301      	movs	r3, #1
100041ea:	2004      	movs	r0, #4
100041ec:	4619      	mov	r1, r3
100041ee:	f7fe bde3 	b.w	10002db8 <_ZN8CONTROLS7setKnobEhhtb>
100041f2:	bf00      	nop

100041f4 <_ZN4MIDI11sendNoteOffEhh>:
100041f4:	4684      	mov	ip, r0
100041f6:	460a      	mov	r2, r1
100041f8:	2380      	movs	r3, #128	@ 0x80
100041fa:	b500      	push	{lr}
100041fc:	b083      	sub	sp, #12
100041fe:	a801      	add	r0, sp, #4
10004200:	2103      	movs	r1, #3
10004202:	f88d c005 	strb.w	ip, [sp, #5]
10004206:	f88d 2006 	strb.w	r2, [sp, #6]
1000420a:	f88d 3004 	strb.w	r3, [sp, #4]
1000420e:	f7fe f86d 	bl	100022ec <_ZN4UART4MIDI4sendEPhh>
10004212:	2103      	movs	r1, #3
10004214:	a801      	add	r0, sp, #4
10004216:	f7fc f997 	bl	10000548 <_ZN3USB4MIDI4sendEPhj>
1000421a:	b003      	add	sp, #12
1000421c:	f85d fb04 	ldr.w	pc, [sp], #4

10004220 <_ZN4MIDI10sendNoteOnEhh>:
10004220:	4684      	mov	ip, r0
10004222:	460a      	mov	r2, r1
10004224:	2390      	movs	r3, #144	@ 0x90
10004226:	b500      	push	{lr}
10004228:	b083      	sub	sp, #12
1000422a:	a801      	add	r0, sp, #4
1000422c:	2103      	movs	r1, #3
1000422e:	f88d c005 	strb.w	ip, [sp, #5]
10004232:	f88d 2006 	strb.w	r2, [sp, #6]
10004236:	f88d 3004 	strb.w	r3, [sp, #4]
1000423a:	f7fe f857 	bl	100022ec <_ZN4UART4MIDI4sendEPhh>
1000423e:	2103      	movs	r1, #3
10004240:	a801      	add	r0, sp, #4
10004242:	f7fc f981 	bl	10000548 <_ZN3USB4MIDI4sendEPhj>
10004246:	b003      	add	sp, #12
10004248:	f85d fb04 	ldr.w	pc, [sp], #4

1000424c <_ZN4MIDI9sendSysExEjPKh>:
1000424c:	b5f8      	push	{r3, r4, r5, r6, r7, lr}
1000424e:	2205      	movs	r2, #5
10004250:	25f0      	movs	r5, #240	@ 0xf0
10004252:	2600      	movs	r6, #0
10004254:	2422      	movs	r4, #34	@ 0x22
10004256:	f100 030c 	add.w	r3, r0, #12
1000425a:	f023 0307 	bic.w	r3, r3, #7
1000425e:	af00      	add	r7, sp, #0
10004260:	ebad 0d03 	sub.w	sp, sp, r3
10004264:	f88d 5000 	strb.w	r5, [sp]
10004268:	f88d 6001 	strb.w	r6, [sp, #1]
1000426c:	f88d 4002 	strb.w	r4, [sp, #2]
10004270:	1885      	adds	r5, r0, r2
10004272:	466c      	mov	r4, sp
10004274:	f88d 2003 	strb.w	r2, [sp, #3]
10004278:	1d06      	adds	r6, r0, #4
1000427a:	b118      	cbz	r0, 10004284 <_ZN4MIDI9sendSysExEjPKh+0x38>
1000427c:	4602      	mov	r2, r0
1000427e:	a801      	add	r0, sp, #4
10004280:	f009 f9fe 	bl	1000d680 <memcpy>
10004284:	23f7      	movs	r3, #247	@ 0xf7
10004286:	4620      	mov	r0, r4
10004288:	b2e9      	uxtb	r1, r5
1000428a:	55a3      	strb	r3, [r4, r6]
1000428c:	f7fe f82e 	bl	100022ec <_ZN4UART4MIDI4sendEPhh>
10004290:	4620      	mov	r0, r4
10004292:	b2a9      	uxth	r1, r5
10004294:	f7fc f958 	bl	10000548 <_ZN3USB4MIDI4sendEPhj>
10004298:	46bd      	mov	sp, r7
1000429a:	bdf8      	pop	{r3, r4, r5, r6, r7, pc}

1000429c <_ZN4MIDI15toggleClockFlagEv>:
1000429c:	4770      	bx	lr
1000429e:	bf00      	nop

100042a0 <_ZN4MIDI4initEv>:
100042a0:	b508      	push	{r3, lr}
100042a2:	f7fd fff3 	bl	1000228c <_ZN4UART4initEv>
100042a6:	e8bd 4008 	ldmia.w	sp!, {r3, lr}
100042aa:	f7fc b93b 	b.w	10000524 <_ZN3USB4initEv>
100042ae:	bf00      	nop

100042b0 <_ZN4MIDI13printMidiTypeENS_8MidiTypeE>:
100042b0:	2800      	cmp	r0, #0
100042b2:	d07c      	beq.n	100043ae <_ZN4MIDI13printMidiTypeENS_8MidiTypeE+0xfe>
100042b4:	0603      	lsls	r3, r0, #24
100042b6:	d544      	bpl.n	10004342 <_ZN4MIDI13printMidiTypeENS_8MidiTypeE+0x92>
100042b8:	3880      	subs	r0, #128	@ 0x80
100042ba:	287f      	cmp	r0, #127	@ 0x7f
100042bc:	d841      	bhi.n	10004342 <_ZN4MIDI13printMidiTypeENS_8MidiTypeE+0x92>
100042be:	e8df f000 	tbb	[pc, r0]
100042c2:	4043      	.short	0x4043
100042c4:	40404040 	.word	0x40404040
100042c8:	40404040 	.word	0x40404040
100042cc:	40404040 	.word	0x40404040
100042d0:	40464040 	.word	0x40464040
100042d4:	40404040 	.word	0x40404040
100042d8:	40404040 	.word	0x40404040
100042dc:	40404040 	.word	0x40404040
100042e0:	40494040 	.word	0x40494040
100042e4:	40404040 	.word	0x40404040
100042e8:	40404040 	.word	0x40404040
100042ec:	40404040 	.word	0x40404040
100042f0:	404c4040 	.word	0x404c4040
100042f4:	40404040 	.word	0x40404040
100042f8:	40404040 	.word	0x40404040
100042fc:	40404040 	.word	0x40404040
10004300:	404f4040 	.word	0x404f4040
10004304:	40404040 	.word	0x40404040
10004308:	40404040 	.word	0x40404040
1000430c:	40404040 	.word	0x40404040
10004310:	40524040 	.word	0x40524040
10004314:	40404040 	.word	0x40404040
10004318:	40404040 	.word	0x40404040
1000431c:	40404040 	.word	0x40404040
10004320:	40554040 	.word	0x40554040
10004324:	40404040 	.word	0x40404040
10004328:	40404040 	.word	0x40404040
1000432c:	40404040 	.word	0x40404040
10004330:	40584040 	.word	0x40584040
10004334:	40405e5b 	.word	0x40405e5b
10004338:	40644061 	.word	0x40644061
1000433c:	406d6a67 	.word	0x406d6a67
10004340:	7370      	.short	0x7370
10004342:	481c      	ldr	r0, [pc, #112]	@ (100043b4 <_ZN4MIDI13printMidiTypeENS_8MidiTypeE+0x104>)
10004344:	f005 be6a 	b.w	1000a01c <__wrap_printf>
10004348:	481b      	ldr	r0, [pc, #108]	@ (100043b8 <_ZN4MIDI13printMidiTypeENS_8MidiTypeE+0x108>)
1000434a:	f005 be67 	b.w	1000a01c <__wrap_printf>
1000434e:	481b      	ldr	r0, [pc, #108]	@ (100043bc <_ZN4MIDI13printMidiTypeENS_8MidiTypeE+0x10c>)
10004350:	f005 be64 	b.w	1000a01c <__wrap_printf>
10004354:	481a      	ldr	r0, [pc, #104]	@ (100043c0 <_ZN4MIDI13printMidiTypeENS_8MidiTypeE+0x110>)
10004356:	f005 be61 	b.w	1000a01c <__wrap_printf>
1000435a:	481a      	ldr	r0, [pc, #104]	@ (100043c4 <_ZN4MIDI13printMidiTypeENS_8MidiTypeE+0x114>)
1000435c:	f005 be5e 	b.w	1000a01c <__wrap_printf>
10004360:	4819      	ldr	r0, [pc, #100]	@ (100043c8 <_ZN4MIDI13printMidiTypeENS_8MidiTypeE+0x118>)
10004362:	f005 be5b 	b.w	1000a01c <__wrap_printf>
10004366:	4819      	ldr	r0, [pc, #100]	@ (100043cc <_ZN4MIDI13printMidiTypeENS_8MidiTypeE+0x11c>)
10004368:	f005 be58 	b.w	1000a01c <__wrap_printf>
1000436c:	4818      	ldr	r0, [pc, #96]	@ (100043d0 <_ZN4MIDI13printMidiTypeENS_8MidiTypeE+0x120>)
1000436e:	f005 be55 	b.w	1000a01c <__wrap_printf>
10004372:	4818      	ldr	r0, [pc, #96]	@ (100043d4 <_ZN4MIDI13printMidiTypeENS_8MidiTypeE+0x124>)
10004374:	f005 be52 	b.w	1000a01c <__wrap_printf>
10004378:	4817      	ldr	r0, [pc, #92]	@ (100043d8 <_ZN4MIDI13printMidiTypeENS_8MidiTypeE+0x128>)
1000437a:	f005 be4f 	b.w	1000a01c <__wrap_printf>
1000437e:	4817      	ldr	r0, [pc, #92]	@ (100043dc <_ZN4MIDI13printMidiTypeENS_8MidiTypeE+0x12c>)
10004380:	f005 be4c 	b.w	1000a01c <__wrap_printf>
10004384:	4816      	ldr	r0, [pc, #88]	@ (100043e0 <_ZN4MIDI13printMidiTypeENS_8MidiTypeE+0x130>)
10004386:	f005 be49 	b.w	1000a01c <__wrap_printf>
1000438a:	4816      	ldr	r0, [pc, #88]	@ (100043e4 <_ZN4MIDI13printMidiTypeENS_8MidiTypeE+0x134>)
1000438c:	f005 be46 	b.w	1000a01c <__wrap_printf>
10004390:	4815      	ldr	r0, [pc, #84]	@ (100043e8 <_ZN4MIDI13printMidiTypeENS_8MidiTypeE+0x138>)
10004392:	f005 be43 	b.w	1000a01c <__wrap_printf>
10004396:	4815      	ldr	r0, [pc, #84]	@ (100043ec <_ZN4MIDI13printMidiTypeENS_8MidiTypeE+0x13c>)
10004398:	f005 be40 	b.w	1000a01c <__wrap_printf>
1000439c:	4814      	ldr	r0, [pc, #80]	@ (100043f0 <_ZN4MIDI13printMidiTypeENS_8MidiTypeE+0x140>)
1000439e:	f005 be3d 	b.w	1000a01c <__wrap_printf>
100043a2:	4814      	ldr	r0, [pc, #80]	@ (100043f4 <_ZN4MIDI13printMidiTypeENS_8MidiTypeE+0x144>)
100043a4:	f005 be3a 	b.w	1000a01c <__wrap_printf>
100043a8:	4813      	ldr	r0, [pc, #76]	@ (100043f8 <_ZN4MIDI13printMidiTypeENS_8MidiTypeE+0x148>)
100043aa:	f005 be37 	b.w	1000a01c <__wrap_printf>
100043ae:	4813      	ldr	r0, [pc, #76]	@ (100043fc <_ZN4MIDI13printMidiTypeENS_8MidiTypeE+0x14c>)
100043b0:	f005 be34 	b.w	1000a01c <__wrap_printf>
100043b4:	1000eaec 	.word	0x1000eaec
100043b8:	1000ea0c 	.word	0x1000ea0c
100043bc:	1000ea1c 	.word	0x1000ea1c
100043c0:	1000ea2c 	.word	0x1000ea2c
100043c4:	1000ea3c 	.word	0x1000ea3c
100043c8:	1000ea4c 	.word	0x1000ea4c
100043cc:	1000ea5c 	.word	0x1000ea5c
100043d0:	1000ea6c 	.word	0x1000ea6c
100043d4:	1000ea7c 	.word	0x1000ea7c
100043d8:	1000ea8c 	.word	0x1000ea8c
100043dc:	1000ea9c 	.word	0x1000ea9c
100043e0:	1000eaac 	.word	0x1000eaac
100043e4:	1000e9cc 	.word	0x1000e9cc
100043e8:	1000e9dc 	.word	0x1000e9dc
100043ec:	1000e9ec 	.word	0x1000e9ec
100043f0:	1000e9fc 	.word	0x1000e9fc
100043f4:	1000eabc 	.word	0x1000eabc
100043f8:	1000eacc 	.word	0x1000eacc
100043fc:	1000eadc 	.word	0x1000eadc

10004400 <_ZN4MIDI16printMidiMessageENS_11MidiMessageE>:
10004400:	b084      	sub	sp, #16
10004402:	b5f8      	push	{r3, r4, r5, r6, r7, lr}
10004404:	ac06      	add	r4, sp, #24
10004406:	e884 000f 	stmia.w	r4, {r0, r1, r2, r3}
1000440a:	f89d 0018 	ldrb.w	r0, [sp, #24]
1000440e:	28f0      	cmp	r0, #240	@ 0xf0
10004410:	d014      	beq.n	1000443c <_ZN4MIDI16printMidiMessageENS_11MidiMessageE+0x3c>
10004412:	f7ff ff4d 	bl	100042b0 <_ZN4MIDI13printMidiTypeENS_8MidiTypeE>
10004416:	f89d 1019 	ldrb.w	r1, [sp, #25]
1000441a:	481d      	ldr	r0, [pc, #116]	@ (10004490 <_ZN4MIDI16printMidiMessageENS_11MidiMessageE+0x90>)
1000441c:	f005 fdfe 	bl	1000a01c <__wrap_printf>
10004420:	f89d 101a 	ldrb.w	r1, [sp, #26]
10004424:	481b      	ldr	r0, [pc, #108]	@ (10004494 <_ZN4MIDI16printMidiMessageENS_11MidiMessageE+0x94>)
10004426:	f005 fdf9 	bl	1000a01c <__wrap_printf>
1000442a:	f89d 101b 	ldrb.w	r1, [sp, #27]
1000442e:	481a      	ldr	r0, [pc, #104]	@ (10004498 <_ZN4MIDI16printMidiMessageENS_11MidiMessageE+0x98>)
10004430:	f005 fdf4 	bl	1000a01c <__wrap_printf>
10004434:	e8bd 40f8 	ldmia.w	sp!, {r3, r4, r5, r6, r7, lr}
10004438:	b004      	add	sp, #16
1000443a:	4770      	bx	lr
1000443c:	f89d 611b 	ldrb.w	r6, [sp, #283]	@ 0x11b
10004440:	4816      	ldr	r0, [pc, #88]	@ (1000449c <_ZN4MIDI16printMidiMessageENS_11MidiMessageE+0x9c>)
10004442:	f005 fdeb 	bl	1000a01c <__wrap_printf>
10004446:	4816      	ldr	r0, [pc, #88]	@ (100044a0 <_ZN4MIDI16printMidiMessageENS_11MidiMessageE+0xa0>)
10004448:	f005 fd92 	bl	10009f70 <__wrap_puts>
1000444c:	b1ce      	cbz	r6, 10004482 <_ZN4MIDI16printMidiMessageENS_11MidiMessageE+0x82>
1000444e:	4815      	ldr	r0, [pc, #84]	@ (100044a4 <_ZN4MIDI16printMidiMessageENS_11MidiMessageE+0xa4>)
10004450:	ad06      	add	r5, sp, #24
10004452:	f815 1f04 	ldrb.w	r1, [r5, #4]!
10004456:	2401      	movs	r4, #1
10004458:	4607      	mov	r7, r0
1000445a:	f005 fddf 	bl	1000a01c <__wrap_printf>
1000445e:	42a6      	cmp	r6, r4
10004460:	f104 0401 	add.w	r4, r4, #1
10004464:	d00d      	beq.n	10004482 <_ZN4MIDI16printMidiMessageENS_11MidiMessageE+0x82>
10004466:	4638      	mov	r0, r7
10004468:	f815 1f01 	ldrb.w	r1, [r5, #1]!
1000446c:	f005 fdd6 	bl	1000a01c <__wrap_printf>
10004470:	0763      	lsls	r3, r4, #29
10004472:	d1f4      	bne.n	1000445e <_ZN4MIDI16printMidiMessageENS_11MidiMessageE+0x5e>
10004474:	200a      	movs	r0, #10
10004476:	f005 fd6b 	bl	10009f50 <__wrap_putchar>
1000447a:	42a6      	cmp	r6, r4
1000447c:	f104 0401 	add.w	r4, r4, #1
10004480:	d1f1      	bne.n	10004466 <_ZN4MIDI16printMidiMessageENS_11MidiMessageE+0x66>
10004482:	200a      	movs	r0, #10
10004484:	f005 fd64 	bl	10009f50 <__wrap_putchar>
10004488:	e8bd 40f8 	ldmia.w	sp!, {r3, r4, r5, r6, r7, lr}
1000448c:	b004      	add	sp, #16
1000448e:	4770      	bx	lr
10004490:	1000eb14 	.word	0x1000eb14
10004494:	1000eb20 	.word	0x1000eb20
10004498:	1000eb28 	.word	0x1000eb28
1000449c:	1000ea7c 	.word	0x1000ea7c
100044a0:	1000eb08 	.word	0x1000eb08
100044a4:	1000eb0c 	.word	0x1000eb0c

100044a8 <_ZN4MIDI17handleMidiMessageERNS_11MidiMessageE>:
100044a8:	7803      	ldrb	r3, [r0, #0]
100044aa:	2b00      	cmp	r3, #0
100044ac:	f000 80b1 	beq.w	10004612 <_ZN4MIDI17handleMidiMessageERNS_11MidiMessageE+0x16a>
100044b0:	061a      	lsls	r2, r3, #24
100044b2:	f140 80af 	bpl.w	10004614 <_ZN4MIDI17handleMidiMessageERNS_11MidiMessageE+0x16c>
100044b6:	b510      	push	{r4, lr}
100044b8:	3b80      	subs	r3, #128	@ 0x80
100044ba:	f5ad 7d00 	sub.w	sp, sp, #512	@ 0x200
100044be:	2b7f      	cmp	r3, #127	@ 0x7f
100044c0:	d841      	bhi.n	10004546 <_ZN4MIDI17handleMidiMessageERNS_11MidiMessageE+0x9e>
100044c2:	e8df f003 	tbb	[pc, r3]
100044c6:	4065      	.short	0x4065
100044c8:	40404040 	.word	0x40404040
100044cc:	40404040 	.word	0x40404040
100044d0:	40404040 	.word	0x40404040
100044d4:	406d4040 	.word	0x406d4040
100044d8:	40404040 	.word	0x40404040
100044dc:	40404040 	.word	0x40404040
100044e0:	40404040 	.word	0x40404040
100044e4:	405a4040 	.word	0x405a4040
100044e8:	40404040 	.word	0x40404040
100044ec:	40404040 	.word	0x40404040
100044f0:	40404040 	.word	0x40404040
100044f4:	405d4040 	.word	0x405d4040
100044f8:	40404040 	.word	0x40404040
100044fc:	40404040 	.word	0x40404040
10004500:	40404040 	.word	0x40404040
10004504:	405a4040 	.word	0x405a4040
10004508:	40404040 	.word	0x40404040
1000450c:	40404040 	.word	0x40404040
10004510:	40404040 	.word	0x40404040
10004514:	405a4040 	.word	0x405a4040
10004518:	40404040 	.word	0x40404040
1000451c:	40404040 	.word	0x40404040
10004520:	40404040 	.word	0x40404040
10004524:	40774040 	.word	0x40774040
10004528:	40404040 	.word	0x40404040
1000452c:	40404040 	.word	0x40404040
10004530:	40404040 	.word	0x40404040
10004534:	40474040 	.word	0x40474040
10004538:	40405a85 	.word	0x40405a85
1000453c:	4094405a 	.word	0x4094405a
10004540:	40a05a9a 	.word	0x40a05a9a
10004544:	5a5a      	.short	0x5a5a
10004546:	4835      	ldr	r0, [pc, #212]	@ (1000461c <_ZN4MIDI17handleMidiMessageERNS_11MidiMessageE+0x174>)
10004548:	f50d 7d00 	add.w	sp, sp, #512	@ 0x200
1000454c:	e8bd 4010 	ldmia.w	sp!, {r4, lr}
10004550:	f005 bd64 	b.w	1000a01c <__wrap_printf>
10004554:	ac3e      	add	r4, sp, #248	@ 0xf8
10004556:	4601      	mov	r1, r0
10004558:	f240 1205 	movw	r2, #261	@ 0x105
1000455c:	4620      	mov	r0, r4
1000455e:	f009 f88f 	bl	1000d680 <memcpy>
10004562:	482f      	ldr	r0, [pc, #188]	@ (10004620 <_ZN4MIDI17handleMidiMessageERNS_11MidiMessageE+0x178>)
10004564:	f005 fd04 	bl	10009f70 <__wrap_puts>
10004568:	22f5      	movs	r2, #245	@ 0xf5
1000456a:	a942      	add	r1, sp, #264	@ 0x108
1000456c:	4668      	mov	r0, sp
1000456e:	f009 f887 	bl	1000d680 <memcpy>
10004572:	e894 000f 	ldmia.w	r4, {r0, r1, r2, r3}
10004576:	f7ff ff43 	bl	10004400 <_ZN4MIDI16printMidiMessageENS_11MidiMessageE>
1000457a:	f50d 7d00 	add.w	sp, sp, #512	@ 0x200
1000457e:	bd10      	pop	{r4, pc}
10004580:	78c1      	ldrb	r1, [r0, #3]
10004582:	7880      	ldrb	r0, [r0, #2]
10004584:	f50d 7d00 	add.w	sp, sp, #512	@ 0x200
10004588:	e8bd 4010 	ldmia.w	sp!, {r4, lr}
1000458c:	f7ff bdf6 	b.w	1000417c <_ZN4MIDI19handleControlChangeEhh>
10004590:	78c1      	ldrb	r1, [r0, #3]
10004592:	7880      	ldrb	r0, [r0, #2]
10004594:	f50d 7d00 	add.w	sp, sp, #512	@ 0x200
10004598:	e8bd 4010 	ldmia.w	sp!, {r4, lr}
1000459c:	f002 b9b2 	b.w	10006904 <_ZN13NOTE_HANDLING7noteOffEhh>
100045a0:	78c1      	ldrb	r1, [r0, #3]
100045a2:	7880      	ldrb	r0, [r0, #2]
100045a4:	2900      	cmp	r1, #0
100045a6:	d0f5      	beq.n	10004594 <_ZN4MIDI17handleMidiMessageERNS_11MidiMessageE+0xec>
100045a8:	f50d 7d00 	add.w	sp, sp, #512	@ 0x200
100045ac:	e8bd 4010 	ldmia.w	sp!, {r4, lr}
100045b0:	f002 b996 	b.w	100068e0 <_ZN13NOTE_HANDLING6noteOnEhh>
100045b4:	2300      	movs	r3, #0
100045b6:	78c4      	ldrb	r4, [r0, #3]
100045b8:	7882      	ldrb	r2, [r0, #2]
100045ba:	2103      	movs	r1, #3
100045bc:	4618      	mov	r0, r3
100045be:	ea42 12c4 	orr.w	r2, r2, r4, lsl #7
100045c2:	0912      	lsrs	r2, r2, #4
100045c4:	f50d 7d00 	add.w	sp, sp, #512	@ 0x200
100045c8:	e8bd 4010 	ldmia.w	sp!, {r4, lr}
100045cc:	f7fe bbf4 	b.w	10002db8 <_ZN8CONTROLS7setKnobEhhtb>
100045d0:	78c1      	ldrb	r1, [r0, #3]
100045d2:	7884      	ldrb	r4, [r0, #2]
100045d4:	4813      	ldr	r0, [pc, #76]	@ (10004624 <_ZN4MIDI17handleMidiMessageERNS_11MidiMessageE+0x17c>)
100045d6:	ea44 14c1 	orr.w	r4, r4, r1, lsl #7
100045da:	4621      	mov	r1, r4
100045dc:	f005 fd1e 	bl	1000a01c <__wrap_printf>
100045e0:	4620      	mov	r0, r4
100045e2:	f50d 7d00 	add.w	sp, sp, #512	@ 0x200
100045e6:	e8bd 4010 	ldmia.w	sp!, {r4, lr}
100045ea:	f001 bb8f 	b.w	10005d0c <_ZN5CLOCK17midiClockPositionEt>
100045ee:	f50d 7d00 	add.w	sp, sp, #512	@ 0x200
100045f2:	e8bd 4010 	ldmia.w	sp!, {r4, lr}
100045f6:	f001 bb39 	b.w	10005c6c <_ZN5CLOCK13midiClockTickEv>
100045fa:	f50d 7d00 	add.w	sp, sp, #512	@ 0x200
100045fe:	e8bd 4010 	ldmia.w	sp!, {r4, lr}
10004602:	f001 bb5f 	b.w	10005cc4 <_ZN5CLOCK14startMidiClockEv>
10004606:	f50d 7d00 	add.w	sp, sp, #512	@ 0x200
1000460a:	e8bd 4010 	ldmia.w	sp!, {r4, lr}
1000460e:	f001 bb6b 	b.w	10005ce8 <_ZN5CLOCK13stopMidiClockEv>
10004612:	4770      	bx	lr
10004614:	4801      	ldr	r0, [pc, #4]	@ (1000461c <_ZN4MIDI17handleMidiMessageERNS_11MidiMessageE+0x174>)
10004616:	f005 bd01 	b.w	1000a01c <__wrap_printf>
1000461a:	bf00      	nop
1000461c:	1000eb38 	.word	0x1000eb38
10004620:	1000eb30 	.word	0x1000eb30
10004624:	1000e9b0 	.word	0x1000e9b0

10004628 <_ZN4MIDI13usb_midi_taskEv>:
10004628:	2300      	movs	r3, #0
1000462a:	e92d 4ff0 	stmdb	sp!, {r4, r5, r6, r7, r8, r9, sl, fp, lr}
1000462e:	b085      	sub	sp, #20
10004630:	af00      	add	r7, sp, #0
10004632:	60bb      	str	r3, [r7, #8]
10004634:	f7fb ff7e 	bl	10000534 <_ZN3USB4MIDI9availableEv>
10004638:	4e6b      	ldr	r6, [pc, #428]	@ (100047e8 <_ZN4MIDI13usb_midi_taskEv+0x1c0>)
1000463a:	4604      	mov	r4, r0
1000463c:	2800      	cmp	r0, #0
1000463e:	d06b      	beq.n	10004718 <_ZN4MIDI13usb_midi_taskEv+0xf0>
10004640:	1dc2      	adds	r2, r0, #7
10004642:	f022 0207 	bic.w	r2, r2, #7
10004646:	46e8      	mov	r8, sp
10004648:	ebad 0d02 	sub.w	sp, sp, r2
1000464c:	2100      	movs	r1, #0
1000464e:	466d      	mov	r5, sp
10004650:	2801      	cmp	r0, #1
10004652:	46ea      	mov	sl, sp
10004654:	f100 39ff 	add.w	r9, r0, #4294967295	@ 0xffffffff
10004658:	f805 1b01 	strb.w	r1, [r5], #1
1000465c:	dd03      	ble.n	10004666 <_ZN4MIDI13usb_midi_taskEv+0x3e>
1000465e:	464a      	mov	r2, r9
10004660:	4628      	mov	r0, r5
10004662:	f009 f8ff 	bl	1000d864 <memset>
10004666:	b2e0      	uxtb	r0, r4
10004668:	4651      	mov	r1, sl
1000466a:	60f8      	str	r0, [r7, #12]
1000466c:	f7fb ff66 	bl	1000053c <_ZN3USB4MIDI3getEhPh>
10004670:	4b5e      	ldr	r3, [pc, #376]	@ (100047ec <_ZN4MIDI13usb_midi_taskEv+0x1c4>)
10004672:	68f8      	ldr	r0, [r7, #12]
10004674:	f893 b000 	ldrb.w	fp, [r3]
10004678:	f1bb 0f00 	cmp.w	fp, #0
1000467c:	d163      	bne.n	10004746 <_ZN4MIDI13usb_midi_taskEv+0x11e>
1000467e:	f99a 1000 	ldrsb.w	r1, [sl]
10004682:	f89a 2000 	ldrb.w	r2, [sl]
10004686:	2900      	cmp	r1, #0
10004688:	da4a      	bge.n	10004720 <_ZN4MIDI13usb_midi_taskEv+0xf8>
1000468a:	f102 010c 	add.w	r1, r2, #12
1000468e:	b2c9      	uxtb	r1, r1
10004690:	2901      	cmp	r1, #1
10004692:	d945      	bls.n	10004720 <_ZN4MIDI13usb_midi_taskEv+0xf8>
10004694:	2afd      	cmp	r2, #253	@ 0xfd
10004696:	d043      	beq.n	10004720 <_ZN4MIDI13usb_midi_taskEv+0xf8>
10004698:	2aef      	cmp	r2, #239	@ 0xef
1000469a:	f240 8098 	bls.w	100047ce <_ZN4MIDI13usb_midi_taskEv+0x1a6>
1000469e:	2af0      	cmp	r2, #240	@ 0xf0
100046a0:	7032      	strb	r2, [r6, #0]
100046a2:	d13f      	bne.n	10004724 <_ZN4MIDI13usb_midi_taskEv+0xfc>
100046a4:	2c01      	cmp	r4, #1
100046a6:	dd49      	ble.n	1000473c <_ZN4MIDI13usb_midi_taskEv+0x114>
100046a8:	68b9      	ldr	r1, [r7, #8]
100046aa:	eb0a 0304 	add.w	r3, sl, r4
100046ae:	1b49      	subs	r1, r1, r5
100046b0:	4608      	mov	r0, r1
100046b2:	ea6f 0a0a 	mvn.w	sl, sl
100046b6:	4649      	mov	r1, r9
100046b8:	2201      	movs	r2, #1
100046ba:	4681      	mov	r9, r0
100046bc:	f8df b138 	ldr.w	fp, [pc, #312]	@ 100047f8 <_ZN4MIDI13usb_midi_taskEv+0x1d0>
100046c0:	e001      	b.n	100046c6 <_ZN4MIDI13usb_midi_taskEv+0x9e>
100046c2:	429d      	cmp	r5, r3
100046c4:	d01b      	beq.n	100046fe <_ZN4MIDI13usb_midi_taskEv+0xd6>
100046c6:	f815 0b01 	ldrb.w	r0, [r5], #1
100046ca:	eb09 0405 	add.w	r4, r9, r5
100046ce:	28f7      	cmp	r0, #247	@ 0xf7
100046d0:	eb0a 0c05 	add.w	ip, sl, r5
100046d4:	f80b 0f01 	strb.w	r0, [fp, #1]!
100046d8:	b2e4      	uxtb	r4, r4
100046da:	d07c      	beq.n	100047d6 <_ZN4MIDI13usb_midi_taskEv+0x1ae>
100046dc:	4561      	cmp	r1, ip
100046de:	d1f0      	bne.n	100046c2 <_ZN4MIDI13usb_midi_taskEv+0x9a>
100046e0:	e9c7 3102 	strd	r3, r1, [r7, #8]
100046e4:	4b41      	ldr	r3, [pc, #260]	@ (100047ec <_ZN4MIDI13usb_midi_taskEv+0x1c4>)
100046e6:	4842      	ldr	r0, [pc, #264]	@ (100047f0 <_ZN4MIDI13usb_midi_taskEv+0x1c8>)
100046e8:	701a      	strb	r2, [r3, #0]
100046ea:	f886 4103 	strb.w	r4, [r6, #259]	@ 0x103
100046ee:	f005 fc3f 	bl	10009f70 <__wrap_puts>
100046f2:	e9d7 3102 	ldrd	r3, r1, [r7, #8]
100046f6:	429d      	cmp	r5, r3
100046f8:	f04f 0201 	mov.w	r2, #1
100046fc:	d1e3      	bne.n	100046c6 <_ZN4MIDI13usb_midi_taskEv+0x9e>
100046fe:	4b3b      	ldr	r3, [pc, #236]	@ (100047ec <_ZN4MIDI13usb_midi_taskEv+0x1c4>)
10004700:	60bc      	str	r4, [r7, #8]
10004702:	781b      	ldrb	r3, [r3, #0]
10004704:	b1d3      	cbz	r3, 1000473c <_ZN4MIDI13usb_midi_taskEv+0x114>
10004706:	483a      	ldr	r0, [pc, #232]	@ (100047f0 <_ZN4MIDI13usb_midi_taskEv+0x1c8>)
10004708:	f005 fc32 	bl	10009f70 <__wrap_puts>
1000470c:	46c5      	mov	sp, r8
1000470e:	f7fb ff11 	bl	10000534 <_ZN3USB4MIDI9availableEv>
10004712:	4604      	mov	r4, r0
10004714:	2800      	cmp	r0, #0
10004716:	d193      	bne.n	10004640 <_ZN4MIDI13usb_midi_taskEv+0x18>
10004718:	3714      	adds	r7, #20
1000471a:	46bd      	mov	sp, r7
1000471c:	e8bd 8ff0 	ldmia.w	sp!, {r4, r5, r6, r7, r8, r9, sl, fp, pc}
10004720:	2300      	movs	r3, #0
10004722:	7033      	strb	r3, [r6, #0]
10004724:	f89a 1001 	ldrb.w	r1, [sl, #1]
10004728:	f89a 3002 	ldrb.w	r3, [sl, #2]
1000472c:	f002 020f 	and.w	r2, r2, #15
10004730:	3201      	adds	r2, #1
10004732:	7072      	strb	r2, [r6, #1]
10004734:	70b1      	strb	r1, [r6, #2]
10004736:	70f3      	strb	r3, [r6, #3]
10004738:	f886 0103 	strb.w	r0, [r6, #259]	@ 0x103
1000473c:	4630      	mov	r0, r6
1000473e:	f7ff feb3 	bl	100044a8 <_ZN4MIDI17handleMidiMessageERNS_11MidiMessageE>
10004742:	46c5      	mov	sp, r8
10004744:	e7e3      	b.n	1000470e <_ZN4MIDI13usb_midi_taskEv+0xe6>
10004746:	f896 0103 	ldrb.w	r0, [r6, #259]	@ 0x103
1000474a:	2c00      	cmp	r4, #0
1000474c:	6078      	str	r0, [r7, #4]
1000474e:	ddda      	ble.n	10004706 <_ZN4MIDI13usb_midi_taskEv+0xde>
10004750:	4651      	mov	r1, sl
10004752:	2200      	movs	r2, #0
10004754:	eb0a 0304 	add.w	r3, sl, r4
10004758:	68bc      	ldr	r4, [r7, #8]
1000475a:	1c85      	adds	r5, r0, #2
1000475c:	ee07 8a90 	vmov	s15, r8
10004760:	60fa      	str	r2, [r7, #12]
10004762:	46d8      	mov	r8, fp
10004764:	ea6f 0a0a 	mvn.w	sl, sl
10004768:	4683      	mov	fp, r0
1000476a:	4a22      	ldr	r2, [pc, #136]	@ (100047f4 <_ZN4MIDI13usb_midi_taskEv+0x1cc>)
1000476c:	4435      	add	r5, r6
1000476e:	1a64      	subs	r4, r4, r1
10004770:	e001      	b.n	10004776 <_ZN4MIDI13usb_midi_taskEv+0x14e>
10004772:	4299      	cmp	r1, r3
10004774:	d015      	beq.n	100047a2 <_ZN4MIDI13usb_midi_taskEv+0x17a>
10004776:	f811 0b01 	ldrb.w	r0, [r1], #1
1000477a:	f805 0f01 	strb.w	r0, [r5, #1]!
1000477e:	f812 cf01 	ldrb.w	ip, [r2, #1]!
10004782:	1860      	adds	r0, r4, r1
10004784:	f1bc 0ff7 	cmp.w	ip, #247	@ 0xf7
10004788:	eb0a 0e01 	add.w	lr, sl, r1
1000478c:	b2c0      	uxtb	r0, r0
1000478e:	d013      	beq.n	100047b8 <_ZN4MIDI13usb_midi_taskEv+0x190>
10004790:	45f1      	cmp	r9, lr
10004792:	d1ee      	bne.n	10004772 <_ZN4MIDI13usb_midi_taskEv+0x14a>
10004794:	4483      	add	fp, r0
10004796:	4299      	cmp	r1, r3
10004798:	f8c7 800c 	str.w	r8, [r7, #12]
1000479c:	fa5f fb8b 	uxtb.w	fp, fp
100047a0:	d1e9      	bne.n	10004776 <_ZN4MIDI13usb_midi_taskEv+0x14e>
100047a2:	68fb      	ldr	r3, [r7, #12]
100047a4:	ee17 8a90 	vmov	r8, s15
100047a8:	b10b      	cbz	r3, 100047ae <_ZN4MIDI13usb_midi_taskEv+0x186>
100047aa:	f886 b103 	strb.w	fp, [r6, #259]	@ 0x103
100047ae:	60b8      	str	r0, [r7, #8]
100047b0:	480f      	ldr	r0, [pc, #60]	@ (100047f0 <_ZN4MIDI13usb_midi_taskEv+0x1c8>)
100047b2:	f005 fbdd 	bl	10009f70 <__wrap_puts>
100047b6:	e7a9      	b.n	1000470c <_ZN4MIDI13usb_midi_taskEv+0xe4>
100047b8:	687b      	ldr	r3, [r7, #4]
100047ba:	60b8      	str	r0, [r7, #8]
100047bc:	4403      	add	r3, r0
100047be:	480c      	ldr	r0, [pc, #48]	@ (100047f0 <_ZN4MIDI13usb_midi_taskEv+0x1c8>)
100047c0:	ee17 8a90 	vmov	r8, s15
100047c4:	f886 3103 	strb.w	r3, [r6, #259]	@ 0x103
100047c8:	f005 fbd2 	bl	10009f70 <__wrap_puts>
100047cc:	e79e      	b.n	1000470c <_ZN4MIDI13usb_midi_taskEv+0xe4>
100047ce:	f022 030f 	bic.w	r3, r2, #15
100047d2:	7033      	strb	r3, [r6, #0]
100047d4:	e7a6      	b.n	10004724 <_ZN4MIDI13usb_midi_taskEv+0xfc>
100047d6:	4b05      	ldr	r3, [pc, #20]	@ (100047ec <_ZN4MIDI13usb_midi_taskEv+0x1c4>)
100047d8:	f886 4103 	strb.w	r4, [r6, #259]	@ 0x103
100047dc:	781b      	ldrb	r3, [r3, #0]
100047de:	60bc      	str	r4, [r7, #8]
100047e0:	2b00      	cmp	r3, #0
100047e2:	d190      	bne.n	10004706 <_ZN4MIDI13usb_midi_taskEv+0xde>
100047e4:	e7aa      	b.n	1000473c <_ZN4MIDI13usb_midi_taskEv+0x114>
100047e6:	bf00      	nop
100047e8:	2002cb7c 	.word	0x2002cb7c
100047ec:	2003002d 	.word	0x2003002d
100047f0:	1000eb58 	.word	0x1000eb58
100047f4:	2002cb7f 	.word	0x2002cb7f
100047f8:	2002cb80 	.word	0x2002cb80

100047fc <_ZN4MIDI5parseEv>:
100047fc:	b5f8      	push	{r3, r4, r5, r6, r7, lr}
100047fe:	4dd7      	ldr	r5, [pc, #860]	@ (10004b5c <_ZN4MIDI5parseEv+0x360>)
10004800:	4ed7      	ldr	r6, [pc, #860]	@ (10004b60 <_ZN4MIDI5parseEv+0x364>)
10004802:	4fd8      	ldr	r7, [pc, #864]	@ (10004b64 <_ZN4MIDI5parseEv+0x368>)
10004804:	f7fd fd5e 	bl	100022c4 <_ZN4UART4MIDI9availableEv>
10004808:	4604      	mov	r4, r0
1000480a:	b348      	cbz	r0, 10004860 <_ZN4MIDI5parseEv+0x64>
1000480c:	f7fd fd64 	bl	100022d8 <_ZN4UART4MIDI3getEv>
10004810:	28fd      	cmp	r0, #253	@ 0xfd
10004812:	d0f7      	beq.n	10004804 <_ZN4MIDI5parseEv+0x8>
10004814:	882b      	ldrh	r3, [r5, #0]
10004816:	2b00      	cmp	r3, #0
10004818:	f040 813c 	bne.w	10004a94 <_ZN4MIDI5parseEv+0x298>
1000481c:	49d2      	ldr	r1, [pc, #840]	@ (10004b68 <_ZN4MIDI5parseEv+0x36c>)
1000481e:	7030      	strb	r0, [r6, #0]
10004820:	f991 2000 	ldrsb.w	r2, [r1]
10004824:	780b      	ldrb	r3, [r1, #0]
10004826:	2a00      	cmp	r2, #0
10004828:	da22      	bge.n	10004870 <_ZN4MIDI5parseEv+0x74>
1000482a:	f103 020c 	add.w	r2, r3, #12
1000482e:	b2d2      	uxtb	r2, r2
10004830:	2a01      	cmp	r2, #1
10004832:	d91d      	bls.n	10004870 <_ZN4MIDI5parseEv+0x74>
10004834:	2bfd      	cmp	r3, #253	@ 0xfd
10004836:	d01b      	beq.n	10004870 <_ZN4MIDI5parseEv+0x74>
10004838:	2bef      	cmp	r3, #239	@ 0xef
1000483a:	bf8c      	ite	hi
1000483c:	461a      	movhi	r2, r3
1000483e:	f003 02f0 	andls.w	r2, r3, #240	@ 0xf0
10004842:	f002 0ccf 	and.w	ip, r2, #207	@ 0xcf
10004846:	f1bc 0f80 	cmp.w	ip, #128	@ 0x80
1000484a:	d10b      	bne.n	10004864 <_ZN4MIDI5parseEv+0x68>
1000484c:	0602      	lsls	r2, r0, #24
1000484e:	d411      	bmi.n	10004874 <_ZN4MIDI5parseEv+0x78>
10004850:	2201      	movs	r2, #1
10004852:	7033      	strb	r3, [r6, #0]
10004854:	7070      	strb	r0, [r6, #1]
10004856:	802a      	strh	r2, [r5, #0]
10004858:	48c4      	ldr	r0, [pc, #784]	@ (10004b6c <_ZN4MIDI5parseEv+0x370>)
1000485a:	f005 fbdf 	bl	1000a01c <__wrap_printf>
1000485e:	2400      	movs	r4, #0
10004860:	4620      	mov	r0, r4
10004862:	bdf8      	pop	{r3, r4, r5, r6, r7, pc}
10004864:	2ae0      	cmp	r2, #224	@ 0xe0
10004866:	d0f1      	beq.n	1000484c <_ZN4MIDI5parseEv+0x50>
10004868:	f002 02ef 	and.w	r2, r2, #239	@ 0xef
1000486c:	2ac0      	cmp	r2, #192	@ 0xc0
1000486e:	d0ed      	beq.n	1000484c <_ZN4MIDI5parseEv+0x50>
10004870:	0603      	lsls	r3, r0, #24
10004872:	d5f1      	bpl.n	10004858 <_ZN4MIDI5parseEv+0x5c>
10004874:	f100 030c 	add.w	r3, r0, #12
10004878:	b2db      	uxtb	r3, r3
1000487a:	2b01      	cmp	r3, #1
1000487c:	d9ec      	bls.n	10004858 <_ZN4MIDI5parseEv+0x5c>
1000487e:	28ef      	cmp	r0, #239	@ 0xef
10004880:	bf98      	it	ls
10004882:	f000 00f0 	andls.w	r0, r0, #240	@ 0xf0
10004886:	f1a0 0380 	sub.w	r3, r0, #128	@ 0x80
1000488a:	2b7f      	cmp	r3, #127	@ 0x7f
1000488c:	d8e4      	bhi.n	10004858 <_ZN4MIDI5parseEv+0x5c>
1000488e:	a201      	add	r2, pc, #4	@ (adr r2, 10004894 <_ZN4MIDI5parseEv+0x98>)
10004890:	f852 f023 	ldr.w	pc, [r2, r3, lsl #2]
10004894:	10004b27 	.word	0x10004b27
10004898:	10004859 	.word	0x10004859
1000489c:	10004859 	.word	0x10004859
100048a0:	10004859 	.word	0x10004859
100048a4:	10004859 	.word	0x10004859
100048a8:	10004859 	.word	0x10004859
100048ac:	10004859 	.word	0x10004859
100048b0:	10004859 	.word	0x10004859
100048b4:	10004859 	.word	0x10004859
100048b8:	10004859 	.word	0x10004859
100048bc:	10004859 	.word	0x10004859
100048c0:	10004859 	.word	0x10004859
100048c4:	10004859 	.word	0x10004859
100048c8:	10004859 	.word	0x10004859
100048cc:	10004859 	.word	0x10004859
100048d0:	10004859 	.word	0x10004859
100048d4:	10004b27 	.word	0x10004b27
100048d8:	10004859 	.word	0x10004859
100048dc:	10004859 	.word	0x10004859
100048e0:	10004859 	.word	0x10004859
100048e4:	10004859 	.word	0x10004859
100048e8:	10004859 	.word	0x10004859
100048ec:	10004859 	.word	0x10004859
100048f0:	10004859 	.word	0x10004859
100048f4:	10004859 	.word	0x10004859
100048f8:	10004859 	.word	0x10004859
100048fc:	10004859 	.word	0x10004859
10004900:	10004859 	.word	0x10004859
10004904:	10004859 	.word	0x10004859
10004908:	10004859 	.word	0x10004859
1000490c:	10004859 	.word	0x10004859
10004910:	10004859 	.word	0x10004859
10004914:	10004b27 	.word	0x10004b27
10004918:	10004859 	.word	0x10004859
1000491c:	10004859 	.word	0x10004859
10004920:	10004859 	.word	0x10004859
10004924:	10004859 	.word	0x10004859
10004928:	10004859 	.word	0x10004859
1000492c:	10004859 	.word	0x10004859
10004930:	10004859 	.word	0x10004859
10004934:	10004859 	.word	0x10004859
10004938:	10004859 	.word	0x10004859
1000493c:	10004859 	.word	0x10004859
10004940:	10004859 	.word	0x10004859
10004944:	10004859 	.word	0x10004859
10004948:	10004859 	.word	0x10004859
1000494c:	10004859 	.word	0x10004859
10004950:	10004859 	.word	0x10004859
10004954:	10004b27 	.word	0x10004b27
10004958:	10004859 	.word	0x10004859
1000495c:	10004859 	.word	0x10004859
10004960:	10004859 	.word	0x10004859
10004964:	10004859 	.word	0x10004859
10004968:	10004859 	.word	0x10004859
1000496c:	10004859 	.word	0x10004859
10004970:	10004859 	.word	0x10004859
10004974:	10004859 	.word	0x10004859
10004978:	10004859 	.word	0x10004859
1000497c:	10004859 	.word	0x10004859
10004980:	10004859 	.word	0x10004859
10004984:	10004859 	.word	0x10004859
10004988:	10004859 	.word	0x10004859
1000498c:	10004859 	.word	0x10004859
10004990:	10004859 	.word	0x10004859
10004994:	10004b31 	.word	0x10004b31
10004998:	10004859 	.word	0x10004859
1000499c:	10004859 	.word	0x10004859
100049a0:	10004859 	.word	0x10004859
100049a4:	10004859 	.word	0x10004859
100049a8:	10004859 	.word	0x10004859
100049ac:	10004859 	.word	0x10004859
100049b0:	10004859 	.word	0x10004859
100049b4:	10004859 	.word	0x10004859
100049b8:	10004859 	.word	0x10004859
100049bc:	10004859 	.word	0x10004859
100049c0:	10004859 	.word	0x10004859
100049c4:	10004859 	.word	0x10004859
100049c8:	10004859 	.word	0x10004859
100049cc:	10004859 	.word	0x10004859
100049d0:	10004859 	.word	0x10004859
100049d4:	10004b31 	.word	0x10004b31
100049d8:	10004859 	.word	0x10004859
100049dc:	10004859 	.word	0x10004859
100049e0:	10004859 	.word	0x10004859
100049e4:	10004859 	.word	0x10004859
100049e8:	10004859 	.word	0x10004859
100049ec:	10004859 	.word	0x10004859
100049f0:	10004859 	.word	0x10004859
100049f4:	10004859 	.word	0x10004859
100049f8:	10004859 	.word	0x10004859
100049fc:	10004859 	.word	0x10004859
10004a00:	10004859 	.word	0x10004859
10004a04:	10004859 	.word	0x10004859
10004a08:	10004859 	.word	0x10004859
10004a0c:	10004859 	.word	0x10004859
10004a10:	10004859 	.word	0x10004859
10004a14:	10004b27 	.word	0x10004b27
10004a18:	10004859 	.word	0x10004859
10004a1c:	10004859 	.word	0x10004859
10004a20:	10004859 	.word	0x10004859
10004a24:	10004859 	.word	0x10004859
10004a28:	10004859 	.word	0x10004859
10004a2c:	10004859 	.word	0x10004859
10004a30:	10004859 	.word	0x10004859
10004a34:	10004859 	.word	0x10004859
10004a38:	10004859 	.word	0x10004859
10004a3c:	10004859 	.word	0x10004859
10004a40:	10004859 	.word	0x10004859
10004a44:	10004859 	.word	0x10004859
10004a48:	10004859 	.word	0x10004859
10004a4c:	10004859 	.word	0x10004859
10004a50:	10004859 	.word	0x10004859
10004a54:	10004b37 	.word	0x10004b37
10004a58:	10004b31 	.word	0x10004b31
10004a5c:	10004b27 	.word	0x10004b27
10004a60:	10004b31 	.word	0x10004b31
10004a64:	10004859 	.word	0x10004859
10004a68:	10004859 	.word	0x10004859
10004a6c:	10004b0d 	.word	0x10004b0d
10004a70:	10004b37 	.word	0x10004b37
10004a74:	10004b0d 	.word	0x10004b0d
10004a78:	10004b0d 	.word	0x10004b0d
10004a7c:	10004b0d 	.word	0x10004b0d
10004a80:	10004b0d 	.word	0x10004b0d
10004a84:	10004b0d 	.word	0x10004b0d
10004a88:	10004859 	.word	0x10004859
10004a8c:	10004b0d 	.word	0x10004b0d
10004a90:	10004b0d 	.word	0x10004b0d
10004a94:	0602      	lsls	r2, r0, #24
10004a96:	d411      	bmi.n	10004abc <_ZN4MIDI5parseEv+0x2c0>
10004a98:	7832      	ldrb	r2, [r6, #0]
10004a9a:	2af0      	cmp	r2, #240	@ 0xf0
10004a9c:	d003      	beq.n	10004aa6 <_ZN4MIDI5parseEv+0x2aa>
10004a9e:	2af7      	cmp	r2, #247	@ 0xf7
10004aa0:	d001      	beq.n	10004aa6 <_ZN4MIDI5parseEv+0x2aa>
10004aa2:	54f0      	strb	r0, [r6, r3]
10004aa4:	e002      	b.n	10004aac <_ZN4MIDI5parseEv+0x2b0>
10004aa6:	4932      	ldr	r1, [pc, #200]	@ (10004b70 <_ZN4MIDI5parseEv+0x374>)
10004aa8:	4419      	add	r1, r3
10004aaa:	7108      	strb	r0, [r1, #4]
10004aac:	8839      	ldrh	r1, [r7, #0]
10004aae:	1e48      	subs	r0, r1, #1
10004ab0:	4298      	cmp	r0, r3
10004ab2:	f340 8082 	ble.w	10004bba <_ZN4MIDI5parseEv+0x3be>
10004ab6:	3301      	adds	r3, #1
10004ab8:	802b      	strh	r3, [r5, #0]
10004aba:	e6a3      	b.n	10004804 <_ZN4MIDI5parseEv+0x8>
10004abc:	f1a0 02f0 	sub.w	r2, r0, #240	@ 0xf0
10004ac0:	2a0f      	cmp	r2, #15
10004ac2:	d8e9      	bhi.n	10004a98 <_ZN4MIDI5parseEv+0x29c>
10004ac4:	a101      	add	r1, pc, #4	@ (adr r1, 10004acc <_ZN4MIDI5parseEv+0x2d0>)
10004ac6:	f851 f022 	ldr.w	pc, [r1, r2, lsl #2]
10004aca:	bf00      	nop
10004acc:	10004b75 	.word	0x10004b75
10004ad0:	10004a99 	.word	0x10004a99
10004ad4:	10004a99 	.word	0x10004a99
10004ad8:	10004a99 	.word	0x10004a99
10004adc:	10004a99 	.word	0x10004a99
10004ae0:	10004a99 	.word	0x10004a99
10004ae4:	10004a99 	.word	0x10004a99
10004ae8:	10004b75 	.word	0x10004b75
10004aec:	10004b45 	.word	0x10004b45
10004af0:	10004b45 	.word	0x10004b45
10004af4:	10004b45 	.word	0x10004b45
10004af8:	10004b45 	.word	0x10004b45
10004afc:	10004b45 	.word	0x10004b45
10004b00:	10004a99 	.word	0x10004a99
10004b04:	10004b45 	.word	0x10004b45
10004b08:	10004b45 	.word	0x10004b45
10004b0c:	2300      	movs	r3, #0
10004b0e:	2101      	movs	r1, #1
10004b10:	4a17      	ldr	r2, [pc, #92]	@ (10004b70 <_ZN4MIDI5parseEv+0x374>)
10004b12:	802b      	strh	r3, [r5, #0]
10004b14:	7010      	strb	r0, [r2, #0]
10004b16:	4813      	ldr	r0, [pc, #76]	@ (10004b64 <_ZN4MIDI5parseEv+0x368>)
10004b18:	7053      	strb	r3, [r2, #1]
10004b1a:	8053      	strh	r3, [r2, #2]
10004b1c:	8003      	strh	r3, [r0, #0]
10004b1e:	f882 1104 	strb.w	r1, [r2, #260]	@ 0x104
10004b22:	4620      	mov	r0, r4
10004b24:	bdf8      	pop	{r3, r4, r5, r6, r7, pc}
10004b26:	2303      	movs	r3, #3
10004b28:	803b      	strh	r3, [r7, #0]
10004b2a:	2301      	movs	r3, #1
10004b2c:	802b      	strh	r3, [r5, #0]
10004b2e:	e669      	b.n	10004804 <_ZN4MIDI5parseEv+0x8>
10004b30:	2302      	movs	r3, #2
10004b32:	803b      	strh	r3, [r7, #0]
10004b34:	e7f9      	b.n	10004b2a <_ZN4MIDI5parseEv+0x32e>
10004b36:	23ff      	movs	r3, #255	@ 0xff
10004b38:	803b      	strh	r3, [r7, #0]
10004b3a:	2300      	movs	r3, #0
10004b3c:	700b      	strb	r3, [r1, #0]
10004b3e:	4b0c      	ldr	r3, [pc, #48]	@ (10004b70 <_ZN4MIDI5parseEv+0x374>)
10004b40:	7118      	strb	r0, [r3, #4]
10004b42:	e7f2      	b.n	10004b2a <_ZN4MIDI5parseEv+0x32e>
10004b44:	2100      	movs	r1, #0
10004b46:	2201      	movs	r2, #1
10004b48:	4b09      	ldr	r3, [pc, #36]	@ (10004b70 <_ZN4MIDI5parseEv+0x374>)
10004b4a:	7059      	strb	r1, [r3, #1]
10004b4c:	8059      	strh	r1, [r3, #2]
10004b4e:	f883 2103 	strb.w	r2, [r3, #259]	@ 0x103
10004b52:	7018      	strb	r0, [r3, #0]
10004b54:	f883 2104 	strb.w	r2, [r3, #260]	@ 0x104
10004b58:	4620      	mov	r0, r4
10004b5a:	bdf8      	pop	{r3, r4, r5, r6, r7, pc}
10004b5c:	2002fffc 	.word	0x2002fffc
10004b60:	2002cb78 	.word	0x2002cb78
10004b64:	2002fffe 	.word	0x2002fffe
10004b68:	2003002b 	.word	0x2003002b
10004b6c:	1000eb68 	.word	0x1000eb68
10004b70:	2002cc84 	.word	0x2002cc84
10004b74:	f8df c16c 	ldr.w	ip, [pc, #364]	@ 10004ce4 <_ZN4MIDI5parseEv+0x4e8>
10004b78:	f89c 2004 	ldrb.w	r2, [ip, #4]
10004b7c:	2af0      	cmp	r2, #240	@ 0xf0
10004b7e:	d006      	beq.n	10004b8e <_ZN4MIDI5parseEv+0x392>
10004b80:	2af7      	cmp	r2, #247	@ 0xf7
10004b82:	d004      	beq.n	10004b8e <_ZN4MIDI5parseEv+0x392>
10004b84:	4854      	ldr	r0, [pc, #336]	@ (10004cd8 <_ZN4MIDI5parseEv+0x4dc>)
10004b86:	f005 fa49 	bl	1000a01c <__wrap_printf>
10004b8a:	2400      	movs	r4, #0
10004b8c:	e668      	b.n	10004860 <_ZN4MIDI5parseEv+0x64>
10004b8e:	21f0      	movs	r1, #240	@ 0xf0
10004b90:	f8ac 1000 	strh.w	r1, [ip]
10004b94:	2101      	movs	r1, #1
10004b96:	2200      	movs	r2, #0
10004b98:	f88c 1104 	strb.w	r1, [ip, #260]	@ 0x104
10004b9c:	494f      	ldr	r1, [pc, #316]	@ (10004cdc <_ZN4MIDI5parseEv+0x4e0>)
10004b9e:	802a      	strh	r2, [r5, #0]
10004ba0:	800a      	strh	r2, [r1, #0]
10004ba2:	494f      	ldr	r1, [pc, #316]	@ (10004ce0 <_ZN4MIDI5parseEv+0x4e4>)
10004ba4:	700a      	strb	r2, [r1, #0]
10004ba6:	1c5a      	adds	r2, r3, #1
10004ba8:	b292      	uxth	r2, r2
10004baa:	4463      	add	r3, ip
10004bac:	7118      	strb	r0, [r3, #4]
10004bae:	f8ac 2002 	strh.w	r2, [ip, #2]
10004bb2:	f88c 2103 	strb.w	r2, [ip, #259]	@ 0x103
10004bb6:	4620      	mov	r0, r4
10004bb8:	bdf8      	pop	{r3, r4, r5, r6, r7, pc}
10004bba:	2af0      	cmp	r2, #240	@ 0xf0
10004bbc:	d04e      	beq.n	10004c5c <_ZN4MIDI5parseEv+0x460>
10004bbe:	2af7      	cmp	r2, #247	@ 0xf7
10004bc0:	d04c      	beq.n	10004c5c <_ZN4MIDI5parseEv+0x460>
10004bc2:	0613      	lsls	r3, r2, #24
10004bc4:	d535      	bpl.n	10004c32 <_ZN4MIDI5parseEv+0x436>
10004bc6:	2af4      	cmp	r2, #244	@ 0xf4
10004bc8:	d033      	beq.n	10004c32 <_ZN4MIDI5parseEv+0x436>
10004bca:	2af5      	cmp	r2, #245	@ 0xf5
10004bcc:	d031      	beq.n	10004c32 <_ZN4MIDI5parseEv+0x436>
10004bce:	2afd      	cmp	r2, #253	@ 0xfd
10004bd0:	d02f      	beq.n	10004c32 <_ZN4MIDI5parseEv+0x436>
10004bd2:	2aef      	cmp	r2, #239	@ 0xef
10004bd4:	bf8c      	ite	hi
10004bd6:	4613      	movhi	r3, r2
10004bd8:	f002 03f0 	andls.w	r3, r2, #240	@ 0xf0
10004bdc:	f8df c104 	ldr.w	ip, [pc, #260]	@ 10004ce4 <_ZN4MIDI5parseEv+0x4e8>
10004be0:	2b80      	cmp	r3, #128	@ 0x80
10004be2:	f88c 3000 	strb.w	r3, [ip]
10004be6:	d005      	beq.n	10004bf4 <_ZN4MIDI5parseEv+0x3f8>
10004be8:	2b90      	cmp	r3, #144	@ 0x90
10004bea:	d003      	beq.n	10004bf4 <_ZN4MIDI5parseEv+0x3f8>
10004bec:	2bb0      	cmp	r3, #176	@ 0xb0
10004bee:	d001      	beq.n	10004bf4 <_ZN4MIDI5parseEv+0x3f8>
10004bf0:	2ba0      	cmp	r3, #160	@ 0xa0
10004bf2:	d157      	bne.n	10004ca4 <_ZN4MIDI5parseEv+0x4a8>
10004bf4:	7870      	ldrb	r0, [r6, #1]
10004bf6:	2903      	cmp	r1, #3
10004bf8:	f88c 0002 	strb.w	r0, [ip, #2]
10004bfc:	f002 000f 	and.w	r0, r2, #15
10004c00:	f100 0001 	add.w	r0, r0, #1
10004c04:	f88c 0001 	strb.w	r0, [ip, #1]
10004c08:	d04a      	beq.n	10004ca0 <_ZN4MIDI5parseEv+0x4a4>
10004c0a:	2000      	movs	r0, #0
10004c0c:	f88c 1103 	strb.w	r1, [ip, #259]	@ 0x103
10004c10:	2100      	movs	r1, #0
10004c12:	8029      	strh	r1, [r5, #0]
10004c14:	8039      	strh	r1, [r7, #0]
10004c16:	2101      	movs	r1, #1
10004c18:	2bb0      	cmp	r3, #176	@ 0xb0
10004c1a:	f88c 0003 	strb.w	r0, [ip, #3]
10004c1e:	f88c 1104 	strb.w	r1, [ip, #260]	@ 0x104
10004c22:	d003      	beq.n	10004c2c <_ZN4MIDI5parseEv+0x430>
10004c24:	2bb0      	cmp	r3, #176	@ 0xb0
10004c26:	d934      	bls.n	10004c92 <_ZN4MIDI5parseEv+0x496>
10004c28:	2be0      	cmp	r3, #224	@ 0xe0
10004c2a:	d12d      	bne.n	10004c88 <_ZN4MIDI5parseEv+0x48c>
10004c2c:	4b2c      	ldr	r3, [pc, #176]	@ (10004ce0 <_ZN4MIDI5parseEv+0x4e4>)
10004c2e:	701a      	strb	r2, [r3, #0]
10004c30:	e616      	b.n	10004860 <_ZN4MIDI5parseEv+0x64>
10004c32:	2300      	movs	r3, #0
10004c34:	f8df c0ac 	ldr.w	ip, [pc, #172]	@ 10004ce4 <_ZN4MIDI5parseEv+0x4e8>
10004c38:	7870      	ldrb	r0, [r6, #1]
10004c3a:	2903      	cmp	r1, #3
10004c3c:	f88c 0002 	strb.w	r0, [ip, #2]
10004c40:	f8ac 3000 	strh.w	r3, [ip]
10004c44:	d02c      	beq.n	10004ca0 <_ZN4MIDI5parseEv+0x4a4>
10004c46:	2201      	movs	r2, #1
10004c48:	f88c 1103 	strb.w	r1, [ip, #259]	@ 0x103
10004c4c:	f88c 3003 	strb.w	r3, [ip, #3]
10004c50:	802b      	strh	r3, [r5, #0]
10004c52:	803b      	strh	r3, [r7, #0]
10004c54:	f88c 2104 	strb.w	r2, [ip, #260]	@ 0x104
10004c58:	2200      	movs	r2, #0
10004c5a:	e7e7      	b.n	10004c2c <_ZN4MIDI5parseEv+0x430>
10004c5c:	2301      	movs	r3, #1
10004c5e:	f64f 72f0 	movw	r2, #65520	@ 0xfff0
10004c62:	4e20      	ldr	r6, [pc, #128]	@ (10004ce4 <_ZN4MIDI5parseEv+0x4e8>)
10004c64:	f886 3104 	strb.w	r3, [r6, #260]	@ 0x104
10004c68:	4b1f      	ldr	r3, [pc, #124]	@ (10004ce8 <_ZN4MIDI5parseEv+0x4ec>)
10004c6a:	f896 4102 	ldrb.w	r4, [r6, #258]	@ 0x102
10004c6e:	6033      	str	r3, [r6, #0]
10004c70:	f8a6 2102 	strh.w	r2, [r6, #258]	@ 0x102
10004c74:	4630      	mov	r0, r6
10004c76:	f7ff fc17 	bl	100044a8 <_ZN4MIDI17handleMidiMessageERNS_11MidiMessageE>
10004c7a:	22f7      	movs	r2, #247	@ 0xf7
10004c7c:	2302      	movs	r3, #2
10004c7e:	7174      	strb	r4, [r6, #5]
10004c80:	7132      	strb	r2, [r6, #4]
10004c82:	2400      	movs	r4, #0
10004c84:	802b      	strh	r3, [r5, #0]
10004c86:	e5eb      	b.n	10004860 <_ZN4MIDI5parseEv+0x64>
10004c88:	f003 03ef 	and.w	r3, r3, #239	@ 0xef
10004c8c:	2bc0      	cmp	r3, #192	@ 0xc0
10004c8e:	d0cd      	beq.n	10004c2c <_ZN4MIDI5parseEv+0x430>
10004c90:	e7e2      	b.n	10004c58 <_ZN4MIDI5parseEv+0x45c>
10004c92:	2ba0      	cmp	r3, #160	@ 0xa0
10004c94:	d0ca      	beq.n	10004c2c <_ZN4MIDI5parseEv+0x430>
10004c96:	f003 03ef 	and.w	r3, r3, #239	@ 0xef
10004c9a:	2b80      	cmp	r3, #128	@ 0x80
10004c9c:	d0c6      	beq.n	10004c2c <_ZN4MIDI5parseEv+0x430>
10004c9e:	e7db      	b.n	10004c58 <_ZN4MIDI5parseEv+0x45c>
10004ca0:	78b0      	ldrb	r0, [r6, #2]
10004ca2:	e7b3      	b.n	10004c0c <_ZN4MIDI5parseEv+0x410>
10004ca4:	2bd0      	cmp	r3, #208	@ 0xd0
10004ca6:	d0a5      	beq.n	10004bf4 <_ZN4MIDI5parseEv+0x3f8>
10004ca8:	2be0      	cmp	r3, #224	@ 0xe0
10004caa:	d0a3      	beq.n	10004bf4 <_ZN4MIDI5parseEv+0x3f8>
10004cac:	2bc0      	cmp	r3, #192	@ 0xc0
10004cae:	d0a1      	beq.n	10004bf4 <_ZN4MIDI5parseEv+0x3f8>
10004cb0:	2000      	movs	r0, #0
10004cb2:	f896 e001 	ldrb.w	lr, [r6, #1]
10004cb6:	2903      	cmp	r1, #3
10004cb8:	f88c e002 	strb.w	lr, [ip, #2]
10004cbc:	f88c 0001 	strb.w	r0, [ip, #1]
10004cc0:	d0ee      	beq.n	10004ca0 <_ZN4MIDI5parseEv+0x4a4>
10004cc2:	f88c 1103 	strb.w	r1, [ip, #259]	@ 0x103
10004cc6:	2101      	movs	r1, #1
10004cc8:	8028      	strh	r0, [r5, #0]
10004cca:	8038      	strh	r0, [r7, #0]
10004ccc:	f88c 0003 	strb.w	r0, [ip, #3]
10004cd0:	f88c 1104 	strb.w	r1, [ip, #260]	@ 0x104
10004cd4:	e7a6      	b.n	10004c24 <_ZN4MIDI5parseEv+0x428>
10004cd6:	bf00      	nop
10004cd8:	1000eb7c 	.word	0x1000eb7c
10004cdc:	2002fffe 	.word	0x2002fffe
10004ce0:	2003002b 	.word	0x2003002b
10004ce4:	2002cc84 	.word	0x2002cc84
10004ce8:	00ff00f0 	.word	0x00ff00f0

10004cec <_ZN4MIDI6updateEv>:
10004cec:	b510      	push	{r4, lr}
10004cee:	4c0f      	ldr	r4, [pc, #60]	@ (10004d2c <_ZN4MIDI6updateEv+0x40>)
10004cf0:	b082      	sub	sp, #8
10004cf2:	7823      	ldrb	r3, [r4, #0]
10004cf4:	b163      	cbz	r3, 10004d10 <_ZN4MIDI6updateEv+0x24>
10004cf6:	23f8      	movs	r3, #248	@ 0xf8
10004cf8:	2101      	movs	r1, #1
10004cfa:	a801      	add	r0, sp, #4
10004cfc:	f88d 3004 	strb.w	r3, [sp, #4]
10004d00:	f7fd faf4 	bl	100022ec <_ZN4UART4MIDI4sendEPhh>
10004d04:	2101      	movs	r1, #1
10004d06:	a801      	add	r0, sp, #4
10004d08:	f7fb fc1e 	bl	10000548 <_ZN3USB4MIDI4sendEPhj>
10004d0c:	2300      	movs	r3, #0
10004d0e:	7023      	strb	r3, [r4, #0]
10004d10:	f7ff fd74 	bl	100047fc <_ZN4MIDI5parseEv>
10004d14:	b110      	cbz	r0, 10004d1c <_ZN4MIDI6updateEv+0x30>
10004d16:	4806      	ldr	r0, [pc, #24]	@ (10004d30 <_ZN4MIDI6updateEv+0x44>)
10004d18:	f7ff fbc6 	bl	100044a8 <_ZN4MIDI17handleMidiMessageERNS_11MidiMessageE>
10004d1c:	f7fb fc04 	bl	10000528 <_ZN3USB6updateEv>
10004d20:	b002      	add	sp, #8
10004d22:	e8bd 4010 	ldmia.w	sp!, {r4, lr}
10004d26:	f7ff bc7f 	b.w	10004628 <_ZN4MIDI13usb_midi_taskEv>
10004d2a:	bf00      	nop
10004d2c:	2003002c 	.word	0x2003002c
10004d30:	2002cc84 	.word	0x2002cc84

10004d34 <_GLOBAL__sub_I__ZN4MIDI17handleMidiMessageERNS_11MidiMessageE>:
10004d34:	2100      	movs	r1, #0
10004d36:	f46f 437e 	mvn.w	r3, #65024	@ 0xfe00
10004d3a:	4a32      	ldr	r2, [pc, #200]	@ (10004e04 <_GLOBAL__sub_I__ZN4MIDI17handleMidiMessageERNS_11MidiMessageE+0xd0>)
10004d3c:	4832      	ldr	r0, [pc, #200]	@ (10004e08 <_GLOBAL__sub_I__ZN4MIDI17handleMidiMessageERNS_11MidiMessageE+0xd4>)
10004d3e:	b570      	push	{r4, r5, r6, lr}
10004d40:	f04f 0c04 	mov.w	ip, #4
10004d44:	f64a 4544 	movw	r5, #44100	@ 0xac44
10004d48:	f64f 74ff 	movw	r4, #65535	@ 0xffff
10004d4c:	e9c2 1306 	strd	r1, r3, [r2, #24]
10004d50:	e9c2 1309 	strd	r1, r3, [r2, #36]	@ 0x24
10004d54:	e9c2 130c 	strd	r1, r3, [r2, #48]	@ 0x30
10004d58:	4603      	mov	r3, r0
10004d5a:	6015      	str	r5, [r2, #0]
10004d5c:	f8a2 4040 	strh.w	r4, [r2, #64]	@ 0x40
10004d60:	82d1      	strh	r1, [r2, #22]
10004d62:	8451      	strh	r1, [r2, #34]	@ 0x22
10004d64:	85d1      	strh	r1, [r2, #46]	@ 0x2e
10004d66:	8711      	strh	r1, [r2, #56]	@ 0x38
10004d68:	eb02 060c 	add.w	r6, r2, ip
10004d6c:	f102 0508 	add.w	r5, r2, #8
10004d70:	f102 040c 	add.w	r4, r2, #12
10004d74:	f500 7ef0 	add.w	lr, r0, #480	@ 0x1e0
10004d78:	3210      	adds	r2, #16
10004d7a:	f883 c020 	strb.w	ip, [r3, #32]
10004d7e:	f883 1024 	strb.w	r1, [r3, #36]	@ 0x24
10004d82:	f883 1026 	strb.w	r1, [r3, #38]	@ 0x26
10004d86:	f883 1027 	strb.w	r1, [r3, #39]	@ 0x27
10004d8a:	f883 1028 	strb.w	r1, [r3, #40]	@ 0x28
10004d8e:	e9c3 6500 	strd	r6, r5, [r3]
10004d92:	e9c3 4202 	strd	r4, r2, [r3, #8]
10004d96:	e9c3 1104 	strd	r1, r1, [r3, #16]
10004d9a:	e9c3 1106 	strd	r1, r1, [r3, #24]
10004d9e:	e9c3 110b 	strd	r1, r1, [r3, #44]	@ 0x2c
10004da2:	e9c3 110d 	strd	r1, r1, [r3, #52]	@ 0x34
10004da6:	333c      	adds	r3, #60	@ 0x3c
10004da8:	459e      	cmp	lr, r3
10004daa:	d1e6      	bne.n	10004d7a <_GLOBAL__sub_I__ZN4MIDI17handleMidiMessageERNS_11MidiMessageE+0x46>
10004dac:	2505      	movs	r5, #5
10004dae:	2403      	movs	r4, #3
10004db0:	2201      	movs	r2, #1
10004db2:	2302      	movs	r3, #2
10004db4:	f880 5150 	strb.w	r5, [r0, #336]	@ 0x150
10004db8:	f880 40d8 	strb.w	r4, [r0, #216]	@ 0xd8
10004dbc:	2506      	movs	r5, #6
10004dbe:	2407      	movs	r4, #7
10004dc0:	f880 2060 	strb.w	r2, [r0, #96]	@ 0x60
10004dc4:	2200      	movs	r2, #0
10004dc6:	f880 309c 	strb.w	r3, [r0, #156]	@ 0x9c
10004dca:	4b10      	ldr	r3, [pc, #64]	@ (10004e0c <_GLOBAL__sub_I__ZN4MIDI17handleMidiMessageERNS_11MidiMessageE+0xd8>)
10004dcc:	f8c0 11e0 	str.w	r1, [r0, #480]	@ 0x1e0
10004dd0:	7019      	strb	r1, [r3, #0]
10004dd2:	f883 1103 	strb.w	r1, [r3, #259]	@ 0x103
10004dd6:	4b0e      	ldr	r3, [pc, #56]	@ (10004e10 <_GLOBAL__sub_I__ZN4MIDI17handleMidiMessageERNS_11MidiMessageE+0xdc>)
10004dd8:	f880 1024 	strb.w	r1, [r0, #36]	@ 0x24
10004ddc:	7019      	strb	r1, [r3, #0]
10004dde:	f883 1103 	strb.w	r1, [r3, #259]	@ 0x103
10004de2:	4b0c      	ldr	r3, [pc, #48]	@ (10004e14 <_GLOBAL__sub_I__ZN4MIDI17handleMidiMessageERNS_11MidiMessageE+0xe0>)
10004de4:	490c      	ldr	r1, [pc, #48]	@ (10004e18 <_GLOBAL__sub_I__ZN4MIDI17handleMidiMessageERNS_11MidiMessageE+0xe4>)
10004de6:	f880 c114 	strb.w	ip, [r0, #276]	@ 0x114
10004dea:	f880 518c 	strb.w	r5, [r0, #396]	@ 0x18c
10004dee:	f880 41c8 	strb.w	r4, [r0, #456]	@ 0x1c8
10004df2:	f883 2103 	strb.w	r2, [r3, #259]	@ 0x103
10004df6:	701a      	strb	r2, [r3, #0]
10004df8:	f203 1305 	addw	r3, r3, #261	@ 0x105
10004dfc:	428b      	cmp	r3, r1
10004dfe:	d1f8      	bne.n	10004df2 <_GLOBAL__sub_I__ZN4MIDI17handleMidiMessageERNS_11MidiMessageE+0xbe>
10004e00:	bd70      	pop	{r4, r5, r6, pc}
10004e02:	bf00      	nop
10004e04:	2002cfa0 	.word	0x2002cfa0
10004e08:	2002de74 	.word	0x2002de74
10004e0c:	2002cc84 	.word	0x2002cc84
10004e10:	2002cb7c 	.word	0x2002cb7c
10004e14:	2001c678 	.word	0x2001c678
10004e18:	200207b8 	.word	0x200207b8

10004e1c <_ZN4ADSR8Envelope13triggerAttackEv>:
10004e1c:	2100      	movs	r1, #0
10004e1e:	6802      	ldr	r2, [r0, #0]
10004e20:	6983      	ldr	r3, [r0, #24]
10004e22:	6101      	str	r1, [r0, #16]
10004e24:	6812      	ldr	r2, [r2, #0]
10004e26:	f1c3 13ff 	rsb	r3, r3, #16711935	@ 0xff00ff
10004e2a:	f503 437f 	add.w	r3, r3, #65280	@ 0xff00
10004e2e:	fb93 f3f2 	sdiv	r3, r3, r2
10004e32:	f880 1020 	strb.w	r1, [r0, #32]
10004e36:	6142      	str	r2, [r0, #20]
10004e38:	61c3      	str	r3, [r0, #28]
10004e3a:	4770      	bx	lr

10004e3c <_ZN4ADSR8Envelope14triggerReleaseEv>:
10004e3c:	b410      	push	{r4}
10004e3e:	2400      	movs	r4, #0
10004e40:	68c2      	ldr	r2, [r0, #12]
10004e42:	6104      	str	r4, [r0, #16]
10004e44:	6983      	ldr	r3, [r0, #24]
10004e46:	6812      	ldr	r2, [r2, #0]
10004e48:	425b      	negs	r3, r3
10004e4a:	2103      	movs	r1, #3
10004e4c:	fb93 f3f2 	sdiv	r3, r3, r2
10004e50:	f85d 4b04 	ldr.w	r4, [sp], #4
10004e54:	f880 1020 	strb.w	r1, [r0, #32]
10004e58:	6142      	str	r2, [r0, #20]
10004e5a:	61c3      	str	r3, [r0, #28]
10004e5c:	4770      	bx	lr
10004e5e:	bf00      	nop

10004e60 <_ZN4ADSR8Envelope7stoppedEv>:
10004e60:	2300      	movs	r3, #0
10004e62:	2204      	movs	r2, #4
10004e64:	e9c0 3306 	strd	r3, r3, [r0, #24]
10004e68:	6103      	str	r3, [r0, #16]
10004e6a:	f880 2020 	strb.w	r2, [r0, #32]
10004e6e:	6143      	str	r3, [r0, #20]
10004e70:	4770      	bx	lr
10004e72:	bf00      	nop

10004e74 <_ZN4ADSR8Envelope6updateEv>:
10004e74:	f890 3020 	ldrb.w	r3, [r0, #32]
10004e78:	2b04      	cmp	r3, #4
10004e7a:	d01b      	beq.n	10004eb4 <_ZN4ADSR8Envelope6updateEv+0x40>
10004e7c:	e9d0 1204 	ldrd	r1, r2, [r0, #16]
10004e80:	4291      	cmp	r1, r2
10004e82:	d310      	bcc.n	10004ea6 <_ZN4ADSR8Envelope6updateEv+0x32>
10004e84:	2b02      	cmp	r3, #2
10004e86:	d00e      	beq.n	10004ea6 <_ZN4ADSR8Envelope6updateEv+0x32>
10004e88:	2b01      	cmp	r3, #1
10004e8a:	b410      	push	{r4}
10004e8c:	d02e      	beq.n	10004eec <_ZN4ADSR8Envelope6updateEv+0x78>
10004e8e:	2b03      	cmp	r3, #3
10004e90:	d011      	beq.n	10004eb6 <_ZN4ADSR8Envelope6updateEv+0x42>
10004e92:	b1cb      	cbz	r3, 10004ec8 <_ZN4ADSR8Envelope6updateEv+0x54>
10004e94:	e9d0 2306 	ldrd	r2, r3, [r0, #24]
10004e98:	3101      	adds	r1, #1
10004e9a:	441a      	add	r2, r3
10004e9c:	f85d 4b04 	ldr.w	r4, [sp], #4
10004ea0:	6182      	str	r2, [r0, #24]
10004ea2:	6101      	str	r1, [r0, #16]
10004ea4:	4770      	bx	lr
10004ea6:	e9d0 2306 	ldrd	r2, r3, [r0, #24]
10004eaa:	3101      	adds	r1, #1
10004eac:	441a      	add	r2, r3
10004eae:	6182      	str	r2, [r0, #24]
10004eb0:	6101      	str	r1, [r0, #16]
10004eb2:	4770      	bx	lr
10004eb4:	4770      	bx	lr
10004eb6:	2300      	movs	r3, #0
10004eb8:	2404      	movs	r4, #4
10004eba:	2101      	movs	r1, #1
10004ebc:	461a      	mov	r2, r3
10004ebe:	f880 4020 	strb.w	r4, [r0, #32]
10004ec2:	6143      	str	r3, [r0, #20]
10004ec4:	61c3      	str	r3, [r0, #28]
10004ec6:	e7e9      	b.n	10004e9c <_ZN4ADSR8Envelope6updateEv+0x28>
10004ec8:	6842      	ldr	r2, [r0, #4]
10004eca:	6103      	str	r3, [r0, #16]
10004ecc:	6811      	ldr	r1, [r2, #0]
10004ece:	6882      	ldr	r2, [r0, #8]
10004ed0:	6141      	str	r1, [r0, #20]
10004ed2:	6812      	ldr	r2, [r2, #0]
10004ed4:	6983      	ldr	r3, [r0, #24]
10004ed6:	2401      	movs	r4, #1
10004ed8:	ebc3 2202 	rsb	r2, r3, r2, lsl #8
10004edc:	fb92 f2f1 	sdiv	r2, r2, r1
10004ee0:	f880 4020 	strb.w	r4, [r0, #32]
10004ee4:	61c2      	str	r2, [r0, #28]
10004ee6:	4621      	mov	r1, r4
10004ee8:	441a      	add	r2, r3
10004eea:	e7d7      	b.n	10004e9c <_ZN4ADSR8Envelope6updateEv+0x28>
10004eec:	2400      	movs	r4, #0
10004eee:	f04f 0c02 	mov.w	ip, #2
10004ef2:	4619      	mov	r1, r3
10004ef4:	6982      	ldr	r2, [r0, #24]
10004ef6:	6144      	str	r4, [r0, #20]
10004ef8:	f880 c020 	strb.w	ip, [r0, #32]
10004efc:	61c4      	str	r4, [r0, #28]
10004efe:	e7cd      	b.n	10004e9c <_ZN4ADSR8Envelope6updateEv+0x28>

10004f00 <_ZN3ARP13transferNotesEv.part.0>:
10004f00:	e92d 43f8 	stmdb	sp!, {r3, r4, r5, r6, r7, r8, r9, lr}
10004f04:	2260      	movs	r2, #96	@ 0x60
10004f06:	492c      	ldr	r1, [pc, #176]	@ (10004fb8 <_ZN3ARP13transferNotesEv.part.0+0xb8>)
10004f08:	482c      	ldr	r0, [pc, #176]	@ (10004fbc <_ZN3ARP13transferNotesEv.part.0+0xbc>)
10004f0a:	f008 fbb9 	bl	1000d680 <memcpy>
10004f0e:	4a2c      	ldr	r2, [pc, #176]	@ (10004fc0 <_ZN3ARP13transferNotesEv.part.0+0xc0>)
10004f10:	4b2c      	ldr	r3, [pc, #176]	@ (10004fc4 <_ZN3ARP13transferNotesEv.part.0+0xc4>)
10004f12:	7817      	ldrb	r7, [r2, #0]
10004f14:	f993 9000 	ldrsb.w	r9, [r3]
10004f18:	bb5f      	cbnz	r7, 10004f72 <_ZN3ARP13transferNotesEv.part.0+0x72>
10004f1a:	f019 08ff 	ands.w	r8, r9, #255	@ 0xff
10004f1e:	d028      	beq.n	10004f72 <_ZN3ARP13transferNotesEv.part.0+0x72>
10004f20:	f04f 0e03 	mov.w	lr, #3
10004f24:	4a25      	ldr	r2, [pc, #148]	@ (10004fbc <_ZN3ARP13transferNotesEv.part.0+0xbc>)
10004f26:	1ed3      	subs	r3, r2, #3
10004f28:	fb1e 3e08 	smlabb	lr, lr, r8, r3
10004f2c:	3701      	adds	r7, #1
10004f2e:	4547      	cmp	r7, r8
10004f30:	bfb8      	it	lt
10004f32:	4613      	movlt	r3, r2
10004f34:	da1a      	bge.n	10004f6c <_ZN3ARP13transferNotesEv.part.0+0x6c>
10004f36:	7810      	ldrb	r0, [r2, #0]
10004f38:	f893 c003 	ldrb.w	ip, [r3, #3]
10004f3c:	1cd9      	adds	r1, r3, #3
10004f3e:	4584      	cmp	ip, r0
10004f40:	d20b      	bcs.n	10004f5a <_ZN3ARP13transferNotesEv.part.0+0x5a>
10004f42:	f8b3 6003 	ldrh.w	r6, [r3, #3]
10004f46:	7854      	ldrb	r4, [r2, #1]
10004f48:	f892 c002 	ldrb.w	ip, [r2, #2]
10004f4c:	795d      	ldrb	r5, [r3, #5]
10004f4e:	8016      	strh	r6, [r2, #0]
10004f50:	7095      	strb	r5, [r2, #2]
10004f52:	70d8      	strb	r0, [r3, #3]
10004f54:	711c      	strb	r4, [r3, #4]
10004f56:	f883 c005 	strb.w	ip, [r3, #5]
10004f5a:	4571      	cmp	r1, lr
10004f5c:	460b      	mov	r3, r1
10004f5e:	d1ea      	bne.n	10004f36 <_ZN3ARP13transferNotesEv.part.0+0x36>
10004f60:	3701      	adds	r7, #1
10004f62:	3203      	adds	r2, #3
10004f64:	4547      	cmp	r7, r8
10004f66:	bfb8      	it	lt
10004f68:	4613      	movlt	r3, r2
10004f6a:	dbe4      	blt.n	10004f36 <_ZN3ARP13transferNotesEv.part.0+0x36>
10004f6c:	f102 0203 	add.w	r2, r2, #3
10004f70:	d1dc      	bne.n	10004f2c <_ZN3ARP13transferNotesEv.part.0+0x2c>
10004f72:	4b15      	ldr	r3, [pc, #84]	@ (10004fc8 <_ZN3ARP13transferNotesEv.part.0+0xc8>)
10004f74:	781a      	ldrb	r2, [r3, #0]
10004f76:	b152      	cbz	r2, 10004f8e <_ZN3ARP13transferNotesEv.part.0+0x8e>
10004f78:	4a14      	ldr	r2, [pc, #80]	@ (10004fcc <_ZN3ARP13transferNotesEv.part.0+0xcc>)
10004f7a:	f992 1000 	ldrsb.w	r1, [r2]
10004f7e:	2900      	cmp	r1, #0
10004f80:	dd15      	ble.n	10004fae <_ZN3ARP13transferNotesEv.part.0+0xae>
10004f82:	2100      	movs	r1, #0
10004f84:	4812      	ldr	r0, [pc, #72]	@ (10004fd0 <_ZN3ARP13transferNotesEv.part.0+0xd0>)
10004f86:	7011      	strb	r1, [r2, #0]
10004f88:	7001      	strb	r1, [r0, #0]
10004f8a:	7019      	strb	r1, [r3, #0]
10004f8c:	e007      	b.n	10004f9e <_ZN3ARP13transferNotesEv.part.0+0x9e>
10004f8e:	490f      	ldr	r1, [pc, #60]	@ (10004fcc <_ZN3ARP13transferNotesEv.part.0+0xcc>)
10004f90:	f991 3000 	ldrsb.w	r3, [r1]
10004f94:	2b00      	cmp	r3, #0
10004f96:	dd02      	ble.n	10004f9e <_ZN3ARP13transferNotesEv.part.0+0x9e>
10004f98:	4599      	cmp	r9, r3
10004f9a:	bfd8      	it	le
10004f9c:	700a      	strble	r2, [r1, #0]
10004f9e:	2200      	movs	r2, #0
10004fa0:	490c      	ldr	r1, [pc, #48]	@ (10004fd4 <_ZN3ARP13transferNotesEv.part.0+0xd4>)
10004fa2:	4b0d      	ldr	r3, [pc, #52]	@ (10004fd8 <_ZN3ARP13transferNotesEv.part.0+0xd8>)
10004fa4:	f881 9000 	strb.w	r9, [r1]
10004fa8:	701a      	strb	r2, [r3, #0]
10004faa:	e8bd 83f8 	ldmia.w	sp!, {r3, r4, r5, r6, r7, r8, r9, pc}
10004fae:	2200      	movs	r2, #0
10004fb0:	4907      	ldr	r1, [pc, #28]	@ (10004fd0 <_ZN3ARP13transferNotesEv.part.0+0xd0>)
10004fb2:	701a      	strb	r2, [r3, #0]
10004fb4:	700a      	strb	r2, [r1, #0]
10004fb6:	e7f2      	b.n	10004f9e <_ZN3ARP13transferNotesEv.part.0+0x9e>
10004fb8:	20003d2c 	.word	0x20003d2c
10004fbc:	20003ccc 	.word	0x20003ccc
10004fc0:	20030016 	.word	0x20030016
10004fc4:	20030019 	.word	0x20030019
10004fc8:	20030020 	.word	0x20030020
10004fcc:	2003001e 	.word	0x2003001e
10004fd0:	20030018 	.word	0x20030018
10004fd4:	2003001d 	.word	0x2003001d
10004fd8:	20030022 	.word	0x20030022

10004fdc <_ZN3ARP8getStateEv>:
10004fdc:	4b01      	ldr	r3, [pc, #4]	@ (10004fe4 <_ZN3ARP8getStateEv+0x8>)
10004fde:	7818      	ldrb	r0, [r3, #0]
10004fe0:	4770      	bx	lr
10004fe2:	bf00      	nop
10004fe4:	20030014 	.word	0x20030014

10004fe8 <_ZN3ARP8playNoteEv>:
10004fe8:	4b32      	ldr	r3, [pc, #200]	@ (100050b4 <_ZN3ARP8playNoteEv+0xcc>)
10004fea:	e92d 41f0 	stmdb	sp!, {r4, r5, r6, r7, r8, lr}
10004fee:	781a      	ldrb	r2, [r3, #0]
10004ff0:	2a00      	cmp	r2, #0
10004ff2:	d156      	bne.n	100050a2 <_ZN3ARP8playNoteEv+0xba>
10004ff4:	4b30      	ldr	r3, [pc, #192]	@ (100050b8 <_ZN3ARP8playNoteEv+0xd0>)
10004ff6:	681b      	ldr	r3, [r3, #0]
10004ff8:	2b02      	cmp	r3, #2
10004ffa:	d02b      	beq.n	10005054 <_ZN3ARP8playNoteEv+0x6c>
10004ffc:	4a2f      	ldr	r2, [pc, #188]	@ (100050bc <_ZN3ARP8playNoteEv+0xd4>)
10004ffe:	4830      	ldr	r0, [pc, #192]	@ (100050c0 <_ZN3ARP8playNoteEv+0xd8>)
10005000:	f992 3000 	ldrsb.w	r3, [r2]
10005004:	eb03 0143 	add.w	r1, r3, r3, lsl #1
10005008:	5c41      	ldrb	r1, [r0, r1]
1000500a:	b1e1      	cbz	r1, 10005046 <_ZN3ARP8playNoteEv+0x5e>
1000500c:	4c2d      	ldr	r4, [pc, #180]	@ (100050c4 <_ZN3ARP8playNoteEv+0xdc>)
1000500e:	f994 4000 	ldrsb.w	r4, [r4]
10005012:	429c      	cmp	r4, r3
10005014:	da02      	bge.n	1000501c <_ZN3ARP8playNoteEv+0x34>
10005016:	2300      	movs	r3, #0
10005018:	7801      	ldrb	r1, [r0, #0]
1000501a:	7013      	strb	r3, [r2, #0]
1000501c:	4b2a      	ldr	r3, [pc, #168]	@ (100050c8 <_ZN3ARP8playNoteEv+0xe0>)
1000501e:	4a2b      	ldr	r2, [pc, #172]	@ (100050cc <_ZN3ARP8playNoteEv+0xe4>)
10005020:	781b      	ldrb	r3, [r3, #0]
10005022:	4c2b      	ldr	r4, [pc, #172]	@ (100050d0 <_ZN3ARP8playNoteEv+0xe8>)
10005024:	eb03 0343 	add.w	r3, r3, r3, lsl #1
10005028:	eb01 0183 	add.w	r1, r1, r3, lsl #2
1000502c:	7810      	ldrb	r0, [r2, #0]
1000502e:	b2c9      	uxtb	r1, r1
10005030:	227f      	movs	r2, #127	@ 0x7f
10005032:	7021      	strb	r1, [r4, #0]
10005034:	f001 fb12 	bl	1000665c <_ZN13NOTE_HANDLING7voiceOnEhhh>
10005038:	217f      	movs	r1, #127	@ 0x7f
1000503a:	7820      	ldrb	r0, [r4, #0]
1000503c:	f7ff f8f0 	bl	10004220 <_ZN4MIDI10sendNoteOnEhh>
10005040:	2201      	movs	r2, #1
10005042:	4b24      	ldr	r3, [pc, #144]	@ (100050d4 <_ZN3ARP8playNoteEv+0xec>)
10005044:	601a      	str	r2, [r3, #0]
10005046:	e8bd 81f0 	ldmia.w	sp!, {r4, r5, r6, r7, r8, pc}
1000504a:	2002      	movs	r0, #2
1000504c:	2200      	movs	r2, #0
1000504e:	491a      	ldr	r1, [pc, #104]	@ (100050b8 <_ZN3ARP8playNoteEv+0xd0>)
10005050:	701a      	strb	r2, [r3, #0]
10005052:	6008      	str	r0, [r1, #0]
10005054:	4e1b      	ldr	r6, [pc, #108]	@ (100050c4 <_ZN3ARP8playNoteEv+0xdc>)
10005056:	f996 3000 	ldrsb.w	r3, [r6]
1000505a:	2b00      	cmp	r3, #0
1000505c:	ddf0      	ble.n	10005040 <_ZN3ARP8playNoteEv+0x58>
1000505e:	2400      	movs	r4, #0
10005060:	4d1d      	ldr	r5, [pc, #116]	@ (100050d8 <_ZN3ARP8playNoteEv+0xf0>)
10005062:	4f17      	ldr	r7, [pc, #92]	@ (100050c0 <_ZN3ARP8playNoteEv+0xd8>)
10005064:	f8df 8060 	ldr.w	r8, [pc, #96]	@ 100050c8 <_ZN3ARP8playNoteEv+0xe0>
10005068:	e013      	b.n	10005092 <_ZN3ARP8playNoteEv+0xaa>
1000506a:	f898 3000 	ldrb.w	r3, [r8]
1000506e:	227f      	movs	r2, #127	@ 0x7f
10005070:	eb03 0343 	add.w	r3, r3, r3, lsl #1
10005074:	eb01 0183 	add.w	r1, r1, r3, lsl #2
10005078:	b2c9      	uxtb	r1, r1
1000507a:	f805 1f01 	strb.w	r1, [r5, #1]!
1000507e:	f001 faed 	bl	1000665c <_ZN13NOTE_HANDLING7voiceOnEhhh>
10005082:	217f      	movs	r1, #127	@ 0x7f
10005084:	7828      	ldrb	r0, [r5, #0]
10005086:	f7ff f8cb 	bl	10004220 <_ZN4MIDI10sendNoteOnEhh>
1000508a:	f996 3000 	ldrsb.w	r3, [r6]
1000508e:	42a3      	cmp	r3, r4
10005090:	ddd6      	ble.n	10005040 <_ZN3ARP8playNoteEv+0x58>
10005092:	eb04 0344 	add.w	r3, r4, r4, lsl #1
10005096:	5cf9      	ldrb	r1, [r7, r3]
10005098:	b2e0      	uxtb	r0, r4
1000509a:	3401      	adds	r4, #1
1000509c:	2900      	cmp	r1, #0
1000509e:	d1e4      	bne.n	1000506a <_ZN3ARP8playNoteEv+0x82>
100050a0:	e7ce      	b.n	10005040 <_ZN3ARP8playNoteEv+0x58>
100050a2:	4a0e      	ldr	r2, [pc, #56]	@ (100050dc <_ZN3ARP8playNoteEv+0xf4>)
100050a4:	7812      	ldrb	r2, [r2, #0]
100050a6:	2a00      	cmp	r2, #0
100050a8:	d1cf      	bne.n	1000504a <_ZN3ARP8playNoteEv+0x62>
100050aa:	4903      	ldr	r1, [pc, #12]	@ (100050b8 <_ZN3ARP8playNoteEv+0xd0>)
100050ac:	701a      	strb	r2, [r3, #0]
100050ae:	600a      	str	r2, [r1, #0]
100050b0:	e7a4      	b.n	10004ffc <_ZN3ARP8playNoteEv+0x14>
100050b2:	bf00      	nop
100050b4:	20030023 	.word	0x20030023
100050b8:	20003da4 	.word	0x20003da4
100050bc:	2003001e 	.word	0x2003001e
100050c0:	20003ccc 	.word	0x20003ccc
100050c4:	2003001d 	.word	0x2003001d
100050c8:	20030018 	.word	0x20030018
100050cc:	20030021 	.word	0x20030021
100050d0:	2003001a 	.word	0x2003001a
100050d4:	20003d9c 	.word	0x20003d9c
100050d8:	20003d8f 	.word	0x20003d8f
100050dc:	20030025 	.word	0x20030025

100050e0 <_ZN3ARP11releaseNoteEv>:
100050e0:	b570      	push	{r4, r5, r6, lr}
100050e2:	4e90      	ldr	r6, [pc, #576]	@ (10005324 <_ZN3ARP11releaseNoteEv+0x244>)
100050e4:	6833      	ldr	r3, [r6, #0]
100050e6:	2b02      	cmp	r3, #2
100050e8:	d132      	bne.n	10005150 <_ZN3ARP11releaseNoteEv+0x70>
100050ea:	2400      	movs	r4, #0
100050ec:	4d8e      	ldr	r5, [pc, #568]	@ (10005328 <_ZN3ARP11releaseNoteEv+0x248>)
100050ee:	e002      	b.n	100050f6 <_ZN3ARP11releaseNoteEv+0x16>
100050f0:	3401      	adds	r4, #1
100050f2:	2c08      	cmp	r4, #8
100050f4:	d00e      	beq.n	10005114 <_ZN3ARP11releaseNoteEv+0x34>
100050f6:	f815 1f01 	ldrb.w	r1, [r5, #1]!
100050fa:	2900      	cmp	r1, #0
100050fc:	d0f8      	beq.n	100050f0 <_ZN3ARP11releaseNoteEv+0x10>
100050fe:	b2e0      	uxtb	r0, r4
10005100:	2200      	movs	r2, #0
10005102:	f001 fac9 	bl	10006698 <_ZN13NOTE_HANDLING8voiceOffEhhh>
10005106:	3401      	adds	r4, #1
10005108:	2100      	movs	r1, #0
1000510a:	7828      	ldrb	r0, [r5, #0]
1000510c:	f7ff f872 	bl	100041f4 <_ZN4MIDI11sendNoteOffEhh>
10005110:	2c08      	cmp	r4, #8
10005112:	d1f0      	bne.n	100050f6 <_ZN3ARP11releaseNoteEv+0x16>
10005114:	6832      	ldr	r2, [r6, #0]
10005116:	4b85      	ldr	r3, [pc, #532]	@ (1000532c <_ZN3ARP11releaseNoteEv+0x24c>)
10005118:	2a02      	cmp	r2, #2
1000511a:	681b      	ldr	r3, [r3, #0]
1000511c:	d02f      	beq.n	1000517e <_ZN3ARP11releaseNoteEv+0x9e>
1000511e:	2b04      	cmp	r3, #4
10005120:	d812      	bhi.n	10005148 <_ZN3ARP11releaseNoteEv+0x68>
10005122:	e8df f003 	tbb	[pc, r3]
10005126:	4932      	.short	0x4932
10005128:	7b62      	.short	0x7b62
1000512a:	32          	.byte	0x32
1000512b:	00          	.byte	0x00
1000512c:	2400      	movs	r4, #0
1000512e:	4b80      	ldr	r3, [pc, #512]	@ (10005330 <_ZN3ARP11releaseNoteEv+0x250>)
10005130:	4880      	ldr	r0, [pc, #512]	@ (10005334 <_ZN3ARP11releaseNoteEv+0x254>)
10005132:	7819      	ldrb	r1, [r3, #0]
10005134:	f990 0000 	ldrsb.w	r0, [r0]
10005138:	3101      	adds	r1, #1
1000513a:	b249      	sxtb	r1, r1
1000513c:	4288      	cmp	r0, r1
1000513e:	7019      	strb	r1, [r3, #0]
10005140:	7014      	strb	r4, [r2, #0]
10005142:	da01      	bge.n	10005148 <_ZN3ARP11releaseNoteEv+0x68>
10005144:	2200      	movs	r2, #0
10005146:	701a      	strb	r2, [r3, #0]
10005148:	2200      	movs	r2, #0
1000514a:	4b7b      	ldr	r3, [pc, #492]	@ (10005338 <_ZN3ARP11releaseNoteEv+0x258>)
1000514c:	601a      	str	r2, [r3, #0]
1000514e:	bd70      	pop	{r4, r5, r6, pc}
10005150:	4c7a      	ldr	r4, [pc, #488]	@ (1000533c <_ZN3ARP11releaseNoteEv+0x25c>)
10005152:	4d7b      	ldr	r5, [pc, #492]	@ (10005340 <_ZN3ARP11releaseNoteEv+0x260>)
10005154:	2200      	movs	r2, #0
10005156:	7821      	ldrb	r1, [r4, #0]
10005158:	7828      	ldrb	r0, [r5, #0]
1000515a:	f001 fa9d 	bl	10006698 <_ZN13NOTE_HANDLING8voiceOffEhhh>
1000515e:	2100      	movs	r1, #0
10005160:	7820      	ldrb	r0, [r4, #0]
10005162:	f7ff f847 	bl	100041f4 <_ZN4MIDI11sendNoteOffEhh>
10005166:	2200      	movs	r2, #0
10005168:	782b      	ldrb	r3, [r5, #0]
1000516a:	7022      	strb	r2, [r4, #0]
1000516c:	3301      	adds	r3, #1
1000516e:	f003 0307 	and.w	r3, r3, #7
10005172:	6832      	ldr	r2, [r6, #0]
10005174:	702b      	strb	r3, [r5, #0]
10005176:	4b6d      	ldr	r3, [pc, #436]	@ (1000532c <_ZN3ARP11releaseNoteEv+0x24c>)
10005178:	2a02      	cmp	r2, #2
1000517a:	681b      	ldr	r3, [r3, #0]
1000517c:	d1cf      	bne.n	1000511e <_ZN3ARP11releaseNoteEv+0x3e>
1000517e:	2b03      	cmp	r3, #3
10005180:	d8e2      	bhi.n	10005148 <_ZN3ARP11releaseNoteEv+0x68>
10005182:	e8df f003 	tbb	[pc, r3]
10005186:	a8b4      	.short	0xa8b4
10005188:	6060      	.short	0x6060
1000518a:	496e      	ldr	r1, [pc, #440]	@ (10005344 <_ZN3ARP11releaseNoteEv+0x264>)
1000518c:	4a6e      	ldr	r2, [pc, #440]	@ (10005348 <_ZN3ARP11releaseNoteEv+0x268>)
1000518e:	780b      	ldrb	r3, [r1, #0]
10005190:	f992 2000 	ldrsb.w	r2, [r2]
10005194:	3301      	adds	r3, #1
10005196:	b25b      	sxtb	r3, r3
10005198:	429a      	cmp	r2, r3
1000519a:	700b      	strb	r3, [r1, #0]
1000519c:	dcd4      	bgt.n	10005148 <_ZN3ARP11releaseNoteEv+0x68>
1000519e:	2400      	movs	r4, #0
100051a0:	4b63      	ldr	r3, [pc, #396]	@ (10005330 <_ZN3ARP11releaseNoteEv+0x250>)
100051a2:	4864      	ldr	r0, [pc, #400]	@ (10005334 <_ZN3ARP11releaseNoteEv+0x254>)
100051a4:	781a      	ldrb	r2, [r3, #0]
100051a6:	f990 0000 	ldrsb.w	r0, [r0]
100051aa:	3201      	adds	r2, #1
100051ac:	b252      	sxtb	r2, r2
100051ae:	4290      	cmp	r0, r2
100051b0:	701a      	strb	r2, [r3, #0]
100051b2:	700c      	strb	r4, [r1, #0]
100051b4:	dbc6      	blt.n	10005144 <_ZN3ARP11releaseNoteEv+0x64>
100051b6:	e7c7      	b.n	10005148 <_ZN3ARP11releaseNoteEv+0x68>
100051b8:	4a62      	ldr	r2, [pc, #392]	@ (10005344 <_ZN3ARP11releaseNoteEv+0x264>)
100051ba:	4963      	ldr	r1, [pc, #396]	@ (10005348 <_ZN3ARP11releaseNoteEv+0x268>)
100051bc:	7813      	ldrb	r3, [r2, #0]
100051be:	f991 1000 	ldrsb.w	r1, [r1]
100051c2:	3b01      	subs	r3, #1
100051c4:	b25b      	sxtb	r3, r3
100051c6:	2901      	cmp	r1, #1
100051c8:	7013      	strb	r3, [r2, #0]
100051ca:	ddaf      	ble.n	1000512c <_ZN3ARP11releaseNoteEv+0x4c>
100051cc:	2b00      	cmp	r3, #0
100051ce:	dabb      	bge.n	10005148 <_ZN3ARP11releaseNoteEv+0x68>
100051d0:	4b57      	ldr	r3, [pc, #348]	@ (10005330 <_ZN3ARP11releaseNoteEv+0x250>)
100051d2:	4c58      	ldr	r4, [pc, #352]	@ (10005334 <_ZN3ARP11releaseNoteEv+0x254>)
100051d4:	7818      	ldrb	r0, [r3, #0]
100051d6:	f994 4000 	ldrsb.w	r4, [r4]
100051da:	3001      	adds	r0, #1
100051dc:	b240      	sxtb	r0, r0
100051de:	3901      	subs	r1, #1
100051e0:	4284      	cmp	r4, r0
100051e2:	7011      	strb	r1, [r2, #0]
100051e4:	7018      	strb	r0, [r3, #0]
100051e6:	dbad      	blt.n	10005144 <_ZN3ARP11releaseNoteEv+0x64>
100051e8:	e7ae      	b.n	10005148 <_ZN3ARP11releaseNoteEv+0x68>
100051ea:	4a58      	ldr	r2, [pc, #352]	@ (1000534c <_ZN3ARP11releaseNoteEv+0x26c>)
100051ec:	4955      	ldr	r1, [pc, #340]	@ (10005344 <_ZN3ARP11releaseNoteEv+0x264>)
100051ee:	7813      	ldrb	r3, [r2, #0]
100051f0:	2b00      	cmp	r3, #0
100051f2:	d053      	beq.n	1000529c <_ZN3ARP11releaseNoteEv+0x1bc>
100051f4:	780b      	ldrb	r3, [r1, #0]
100051f6:	4854      	ldr	r0, [pc, #336]	@ (10005348 <_ZN3ARP11releaseNoteEv+0x268>)
100051f8:	3301      	adds	r3, #1
100051fa:	f990 0000 	ldrsb.w	r0, [r0]
100051fe:	b25b      	sxtb	r3, r3
10005200:	4283      	cmp	r3, r0
10005202:	700b      	strb	r3, [r1, #0]
10005204:	dba0      	blt.n	10005148 <_ZN3ARP11releaseNoteEv+0x68>
10005206:	2801      	cmp	r0, #1
10005208:	bfcc      	ite	gt
1000520a:	1e83      	subgt	r3, r0, #2
1000520c:	2300      	movle	r3, #0
1000520e:	f04f 0000 	mov.w	r0, #0
10005212:	bfc8      	it	gt
10005214:	b25b      	sxtbgt	r3, r3
10005216:	700b      	strb	r3, [r1, #0]
10005218:	7010      	strb	r0, [r2, #0]
1000521a:	e795      	b.n	10005148 <_ZN3ARP11releaseNoteEv+0x68>
1000521c:	4a4b      	ldr	r2, [pc, #300]	@ (1000534c <_ZN3ARP11releaseNoteEv+0x26c>)
1000521e:	4949      	ldr	r1, [pc, #292]	@ (10005344 <_ZN3ARP11releaseNoteEv+0x264>)
10005220:	7810      	ldrb	r0, [r2, #0]
10005222:	b310      	cbz	r0, 1000526a <_ZN3ARP11releaseNoteEv+0x18a>
10005224:	780b      	ldrb	r3, [r1, #0]
10005226:	3b01      	subs	r3, #1
10005228:	b25b      	sxtb	r3, r3
1000522a:	2b00      	cmp	r3, #0
1000522c:	700b      	strb	r3, [r1, #0]
1000522e:	da8b      	bge.n	10005148 <_ZN3ARP11releaseNoteEv+0x68>
10005230:	4b45      	ldr	r3, [pc, #276]	@ (10005348 <_ZN3ARP11releaseNoteEv+0x268>)
10005232:	2000      	movs	r0, #0
10005234:	f993 3000 	ldrsb.w	r3, [r3]
10005238:	7010      	strb	r0, [r2, #0]
1000523a:	2b01      	cmp	r3, #1
1000523c:	bfd4      	ite	le
1000523e:	2300      	movle	r3, #0
10005240:	2301      	movgt	r3, #1
10005242:	700b      	strb	r3, [r1, #0]
10005244:	e780      	b.n	10005148 <_ZN3ARP11releaseNoteEv+0x68>
10005246:	4b42      	ldr	r3, [pc, #264]	@ (10005350 <_ZN3ARP11releaseNoteEv+0x270>)
10005248:	681a      	ldr	r2, [r3, #0]
1000524a:	2a00      	cmp	r2, #0
1000524c:	d05b      	beq.n	10005306 <_ZN3ARP11releaseNoteEv+0x226>
1000524e:	2a01      	cmp	r2, #1
10005250:	f47f af7a 	bne.w	10005148 <_ZN3ARP11releaseNoteEv+0x68>
10005254:	4936      	ldr	r1, [pc, #216]	@ (10005330 <_ZN3ARP11releaseNoteEv+0x250>)
10005256:	780a      	ldrb	r2, [r1, #0]
10005258:	3a01      	subs	r2, #1
1000525a:	b252      	sxtb	r2, r2
1000525c:	2a00      	cmp	r2, #0
1000525e:	bfb7      	itett	lt
10005260:	2200      	movlt	r2, #0
10005262:	700a      	strbge	r2, [r1, #0]
10005264:	700a      	strblt	r2, [r1, #0]
10005266:	601a      	strlt	r2, [r3, #0]
10005268:	e76e      	b.n	10005148 <_ZN3ARP11releaseNoteEv+0x68>
1000526a:	780b      	ldrb	r3, [r1, #0]
1000526c:	4c36      	ldr	r4, [pc, #216]	@ (10005348 <_ZN3ARP11releaseNoteEv+0x268>)
1000526e:	3301      	adds	r3, #1
10005270:	f994 4000 	ldrsb.w	r4, [r4]
10005274:	b25b      	sxtb	r3, r3
10005276:	42a3      	cmp	r3, r4
10005278:	700b      	strb	r3, [r1, #0]
1000527a:	f6ff af65 	blt.w	10005148 <_ZN3ARP11releaseNoteEv+0x68>
1000527e:	2c01      	cmp	r4, #1
10005280:	bfc8      	it	gt
10005282:	1ea0      	subgt	r0, r4, #2
10005284:	f04f 0401 	mov.w	r4, #1
10005288:	4b29      	ldr	r3, [pc, #164]	@ (10005330 <_ZN3ARP11releaseNoteEv+0x250>)
1000528a:	bfc8      	it	gt
1000528c:	b240      	sxtbgt	r0, r0
1000528e:	7008      	strb	r0, [r1, #0]
10005290:	7819      	ldrb	r1, [r3, #0]
10005292:	4828      	ldr	r0, [pc, #160]	@ (10005334 <_ZN3ARP11releaseNoteEv+0x254>)
10005294:	4421      	add	r1, r4
10005296:	f990 0000 	ldrsb.w	r0, [r0]
1000529a:	e74e      	b.n	1000513a <_ZN3ARP11releaseNoteEv+0x5a>
1000529c:	780b      	ldrb	r3, [r1, #0]
1000529e:	3b01      	subs	r3, #1
100052a0:	b25b      	sxtb	r3, r3
100052a2:	2b00      	cmp	r3, #0
100052a4:	700b      	strb	r3, [r1, #0]
100052a6:	f6bf af4f 	bge.w	10005148 <_ZN3ARP11releaseNoteEv+0x68>
100052aa:	2601      	movs	r6, #1
100052ac:	4b26      	ldr	r3, [pc, #152]	@ (10005348 <_ZN3ARP11releaseNoteEv+0x268>)
100052ae:	4d21      	ldr	r5, [pc, #132]	@ (10005334 <_ZN3ARP11releaseNoteEv+0x254>)
100052b0:	f993 4000 	ldrsb.w	r4, [r3]
100052b4:	4b1e      	ldr	r3, [pc, #120]	@ (10005330 <_ZN3ARP11releaseNoteEv+0x250>)
100052b6:	42b4      	cmp	r4, r6
100052b8:	bfd4      	ite	le
100052ba:	2400      	movle	r4, #0
100052bc:	2401      	movgt	r4, #1
100052be:	7818      	ldrb	r0, [r3, #0]
100052c0:	f995 5000 	ldrsb.w	r5, [r5]
100052c4:	4430      	add	r0, r6
100052c6:	b240      	sxtb	r0, r0
100052c8:	4285      	cmp	r5, r0
100052ca:	7018      	strb	r0, [r3, #0]
100052cc:	7016      	strb	r6, [r2, #0]
100052ce:	700c      	strb	r4, [r1, #0]
100052d0:	f6ff af38 	blt.w	10005144 <_ZN3ARP11releaseNoteEv+0x64>
100052d4:	e738      	b.n	10005148 <_ZN3ARP11releaseNoteEv+0x68>
100052d6:	4a16      	ldr	r2, [pc, #88]	@ (10005330 <_ZN3ARP11releaseNoteEv+0x250>)
100052d8:	7813      	ldrb	r3, [r2, #0]
100052da:	3b01      	subs	r3, #1
100052dc:	b25b      	sxtb	r3, r3
100052de:	2b00      	cmp	r3, #0
100052e0:	7013      	strb	r3, [r2, #0]
100052e2:	f6bf af31 	bge.w	10005148 <_ZN3ARP11releaseNoteEv+0x68>
100052e6:	4b13      	ldr	r3, [pc, #76]	@ (10005334 <_ZN3ARP11releaseNoteEv+0x254>)
100052e8:	781b      	ldrb	r3, [r3, #0]
100052ea:	7013      	strb	r3, [r2, #0]
100052ec:	e72c      	b.n	10005148 <_ZN3ARP11releaseNoteEv+0x68>
100052ee:	4b10      	ldr	r3, [pc, #64]	@ (10005330 <_ZN3ARP11releaseNoteEv+0x250>)
100052f0:	4910      	ldr	r1, [pc, #64]	@ (10005334 <_ZN3ARP11releaseNoteEv+0x254>)
100052f2:	781a      	ldrb	r2, [r3, #0]
100052f4:	f991 1000 	ldrsb.w	r1, [r1]
100052f8:	3201      	adds	r2, #1
100052fa:	b252      	sxtb	r2, r2
100052fc:	4291      	cmp	r1, r2
100052fe:	701a      	strb	r2, [r3, #0]
10005300:	f6bf af22 	bge.w	10005148 <_ZN3ARP11releaseNoteEv+0x68>
10005304:	e71e      	b.n	10005144 <_ZN3ARP11releaseNoteEv+0x64>
10005306:	490a      	ldr	r1, [pc, #40]	@ (10005330 <_ZN3ARP11releaseNoteEv+0x250>)
10005308:	480a      	ldr	r0, [pc, #40]	@ (10005334 <_ZN3ARP11releaseNoteEv+0x254>)
1000530a:	780a      	ldrb	r2, [r1, #0]
1000530c:	f990 0000 	ldrsb.w	r0, [r0]
10005310:	3201      	adds	r2, #1
10005312:	b252      	sxtb	r2, r2
10005314:	4282      	cmp	r2, r0
10005316:	700a      	strb	r2, [r1, #0]
10005318:	f77f af16 	ble.w	10005148 <_ZN3ARP11releaseNoteEv+0x68>
1000531c:	2201      	movs	r2, #1
1000531e:	7008      	strb	r0, [r1, #0]
10005320:	601a      	str	r2, [r3, #0]
10005322:	e711      	b.n	10005148 <_ZN3ARP11releaseNoteEv+0x68>
10005324:	20003da4 	.word	0x20003da4
10005328:	20003d8f 	.word	0x20003d8f
1000532c:	20003d8c 	.word	0x20003d8c
10005330:	20030018 	.word	0x20030018
10005334:	20030015 	.word	0x20030015
10005338:	20003d9c 	.word	0x20003d9c
1000533c:	2003001a 	.word	0x2003001a
10005340:	20030021 	.word	0x20030021
10005344:	2003001e 	.word	0x2003001e
10005348:	2003001d 	.word	0x2003001d
1000534c:	200010e4 	.word	0x200010e4
10005350:	20003d98 	.word	0x20003d98

10005354 <_ZN3ARP10removeNoteEh>:
10005354:	e92d 4ff0 	stmdb	sp!, {r4, r5, r6, r7, r8, r9, sl, fp, lr}
10005358:	f8df 8138 	ldr.w	r8, [pc, #312]	@ 10005494 <_ZN3ARP10removeNoteEh+0x140>
1000535c:	b083      	sub	sp, #12
1000535e:	f898 3000 	ldrb.w	r3, [r8]
10005362:	2b00      	cmp	r3, #0
10005364:	d077      	beq.n	10005456 <_ZN3ARP10removeNoteEh+0x102>
10005366:	2320      	movs	r3, #32
10005368:	f88d 3007 	strb.w	r3, [sp, #7]
1000536c:	4a44      	ldr	r2, [pc, #272]	@ (10005480 <_ZN3ARP10removeNoteEh+0x12c>)
1000536e:	f992 3000 	ldrsb.w	r3, [r2]
10005372:	2b00      	cmp	r3, #0
10005374:	dd04      	ble.n	10005380 <_ZN3ARP10removeNoteEh+0x2c>
10005376:	3b01      	subs	r3, #1
10005378:	b2db      	uxtb	r3, r3
1000537a:	7013      	strb	r3, [r2, #0]
1000537c:	2b00      	cmp	r3, #0
1000537e:	d06f      	beq.n	10005460 <_ZN3ARP10removeNoteEh+0x10c>
10005380:	f89d 3007 	ldrb.w	r3, [sp, #7]
10005384:	2b00      	cmp	r3, #0
10005386:	d056      	beq.n	10005436 <_ZN3ARP10removeNoteEh+0xe2>
10005388:	f04f 0c00 	mov.w	ip, #0
1000538c:	4e3d      	ldr	r6, [pc, #244]	@ (10005484 <_ZN3ARP10removeNoteEh+0x130>)
1000538e:	f04f 0b01 	mov.w	fp, #1
10005392:	46b6      	mov	lr, r6
10005394:	4665      	mov	r5, ip
10005396:	f8df a100 	ldr.w	sl, [pc, #256]	@ 10005498 <_ZN3ARP10removeNoteEh+0x144>
1000539a:	4f3b      	ldr	r7, [pc, #236]	@ (10005488 <_ZN3ARP10removeNoteEh+0x134>)
1000539c:	f8df 90fc 	ldr.w	r9, [pc, #252]	@ 1000549c <_ZN3ARP10removeNoteEh+0x148>
100053a0:	e007      	b.n	100053b2 <_ZN3ARP10removeNoteEh+0x5e>
100053a2:	f89d 3007 	ldrb.w	r3, [sp, #7]
100053a6:	f10c 0c01 	add.w	ip, ip, #1
100053aa:	4563      	cmp	r3, ip
100053ac:	f10e 0e03 	add.w	lr, lr, #3
100053b0:	dd41      	ble.n	10005436 <_ZN3ARP10removeNoteEh+0xe2>
100053b2:	f89e 3000 	ldrb.w	r3, [lr]
100053b6:	4283      	cmp	r3, r0
100053b8:	d1f3      	bne.n	100053a2 <_ZN3ARP10removeNoteEh+0x4e>
100053ba:	f89a 3000 	ldrb.w	r3, [sl]
100053be:	2b00      	cmp	r3, #0
100053c0:	d152      	bne.n	10005468 <_ZN3ARP10removeNoteEh+0x114>
100053c2:	f89d 3007 	ldrb.w	r3, [sp, #7]
100053c6:	3b01      	subs	r3, #1
100053c8:	4563      	cmp	r3, ip
100053ca:	dd0e      	ble.n	100053ea <_ZN3ARP10removeNoteEh+0x96>
100053cc:	4673      	mov	r3, lr
100053ce:	4661      	mov	r1, ip
100053d0:	f8b3 4003 	ldrh.w	r4, [r3, #3]
100053d4:	f89d 2007 	ldrb.w	r2, [sp, #7]
100053d8:	801c      	strh	r4, [r3, #0]
100053da:	3101      	adds	r1, #1
100053dc:	795c      	ldrb	r4, [r3, #5]
100053de:	3a01      	subs	r2, #1
100053e0:	428a      	cmp	r2, r1
100053e2:	709c      	strb	r4, [r3, #2]
100053e4:	f103 0303 	add.w	r3, r3, #3
100053e8:	dcf2      	bgt.n	100053d0 <_ZN3ARP10removeNoteEh+0x7c>
100053ea:	f89d 3007 	ldrb.w	r3, [sp, #7]
100053ee:	f898 2000 	ldrb.w	r2, [r8]
100053f2:	3b01      	subs	r3, #1
100053f4:	eb03 0343 	add.w	r3, r3, r3, lsl #1
100053f8:	54f5      	strb	r5, [r6, r3]
100053fa:	4433      	add	r3, r6
100053fc:	705d      	strb	r5, [r3, #1]
100053fe:	709d      	strb	r5, [r3, #2]
10005400:	783b      	ldrb	r3, [r7, #0]
10005402:	3b01      	subs	r3, #1
10005404:	b25b      	sxtb	r3, r3
10005406:	703b      	strb	r3, [r7, #0]
10005408:	b1c2      	cbz	r2, 1000543c <_ZN3ARP10removeNoteEh+0xe8>
1000540a:	f999 3000 	ldrsb.w	r3, [r9]
1000540e:	f888 5000 	strb.w	r5, [r8]
10005412:	4563      	cmp	r3, ip
10005414:	d019      	beq.n	1000544a <_ZN3ARP10removeNoteEh+0xf6>
10005416:	bfc4      	itt	gt
10005418:	f103 33ff 	addgt.w	r3, r3, #4294967295	@ 0xffffffff
1000541c:	f889 3000 	strbgt.w	r3, [r9]
10005420:	4b1a      	ldr	r3, [pc, #104]	@ (1000548c <_ZN3ARP10removeNoteEh+0x138>)
10005422:	f10c 0c01 	add.w	ip, ip, #1
10005426:	f883 b000 	strb.w	fp, [r3]
1000542a:	f89d 3007 	ldrb.w	r3, [sp, #7]
1000542e:	f10e 0e03 	add.w	lr, lr, #3
10005432:	4563      	cmp	r3, ip
10005434:	dcbd      	bgt.n	100053b2 <_ZN3ARP10removeNoteEh+0x5e>
10005436:	b003      	add	sp, #12
10005438:	e8bd 8ff0 	ldmia.w	sp!, {r4, r5, r6, r7, r8, r9, sl, fp, pc}
1000543c:	2b00      	cmp	r3, #0
1000543e:	f999 3000 	ldrsb.w	r3, [r9]
10005442:	bfb8      	it	lt
10005444:	703a      	strblt	r2, [r7, #0]
10005446:	4563      	cmp	r3, ip
10005448:	d1e5      	bne.n	10005416 <_ZN3ARP10removeNoteEh+0xc2>
1000544a:	f89d 3007 	ldrb.w	r3, [sp, #7]
1000544e:	3b01      	subs	r3, #1
10005450:	f889 3000 	strb.w	r3, [r9]
10005454:	e7e4      	b.n	10005420 <_ZN3ARP10removeNoteEh+0xcc>
10005456:	4b0c      	ldr	r3, [pc, #48]	@ (10005488 <_ZN3ARP10removeNoteEh+0x134>)
10005458:	781b      	ldrb	r3, [r3, #0]
1000545a:	f88d 3007 	strb.w	r3, [sp, #7]
1000545e:	e785      	b.n	1000536c <_ZN3ARP10removeNoteEh+0x18>
10005460:	2201      	movs	r2, #1
10005462:	4b0b      	ldr	r3, [pc, #44]	@ (10005490 <_ZN3ARP10removeNoteEh+0x13c>)
10005464:	701a      	strb	r2, [r3, #0]
10005466:	e78b      	b.n	10005380 <_ZN3ARP10removeNoteEh+0x2c>
10005468:	2301      	movs	r3, #1
1000546a:	4a08      	ldr	r2, [pc, #32]	@ (1000548c <_ZN3ARP10removeNoteEh+0x138>)
1000546c:	eb0c 0c4c 	add.w	ip, ip, ip, lsl #1
10005470:	44b4      	add	ip, r6
10005472:	f88c 3002 	strb.w	r3, [ip, #2]
10005476:	7013      	strb	r3, [r2, #0]
10005478:	b003      	add	sp, #12
1000547a:	e8bd 8ff0 	ldmia.w	sp!, {r4, r5, r6, r7, r8, r9, sl, fp, pc}
1000547e:	bf00      	nop
10005480:	20030013 	.word	0x20030013
10005484:	20003d2c 	.word	0x20003d2c
10005488:	20030019 	.word	0x20030019
1000548c:	20030022 	.word	0x20030022
10005490:	20030017 	.word	0x20030017
10005494:	2003001b 	.word	0x2003001b
10005498:	2003001f 	.word	0x2003001f
1000549c:	2003001c 	.word	0x2003001c

100054a0 <_ZN3ARP19clearSustainedNotesEv>:
100054a0:	b530      	push	{r4, r5, lr}
100054a2:	4b16      	ldr	r3, [pc, #88]	@ (100054fc <_ZN3ARP19clearSustainedNotesEv+0x5c>)
100054a4:	b089      	sub	sp, #36	@ 0x24
100054a6:	781b      	ldrb	r3, [r3, #0]
100054a8:	bb2b      	cbnz	r3, 100054f6 <_ZN3ARP19clearSustainedNotesEv+0x56>
100054aa:	4b15      	ldr	r3, [pc, #84]	@ (10005500 <_ZN3ARP19clearSustainedNotesEv+0x60>)
100054ac:	781c      	ldrb	r4, [r3, #0]
100054ae:	b304      	cbz	r4, 100054f2 <_ZN3ARP19clearSustainedNotesEv+0x52>
100054b0:	2100      	movs	r1, #0
100054b2:	460a      	mov	r2, r1
100054b4:	468c      	mov	ip, r1
100054b6:	4b13      	ldr	r3, [pc, #76]	@ (10005504 <_ZN3ARP19clearSustainedNotesEv+0x64>)
100054b8:	7898      	ldrb	r0, [r3, #2]
100054ba:	3101      	adds	r1, #1
100054bc:	b148      	cbz	r0, 100054d2 <_ZN3ARP19clearSustainedNotesEv+0x32>
100054be:	f102 0020 	add.w	r0, r2, #32
100054c2:	781d      	ldrb	r5, [r3, #0]
100054c4:	4468      	add	r0, sp
100054c6:	3201      	adds	r2, #1
100054c8:	f883 c002 	strb.w	ip, [r3, #2]
100054cc:	f800 5c20 	strb.w	r5, [r0, #-32]
100054d0:	b2d2      	uxtb	r2, r2
100054d2:	42a1      	cmp	r1, r4
100054d4:	f103 0303 	add.w	r3, r3, #3
100054d8:	dbee      	blt.n	100054b8 <_ZN3ARP19clearSustainedNotesEv+0x18>
100054da:	b152      	cbz	r2, 100054f2 <_ZN3ARP19clearSustainedNotesEv+0x52>
100054dc:	466d      	mov	r5, sp
100054de:	1954      	adds	r4, r2, r5
100054e0:	f815 0b01 	ldrb.w	r0, [r5], #1
100054e4:	f7ff ff36 	bl	10005354 <_ZN3ARP10removeNoteEh>
100054e8:	2100      	movs	r1, #0
100054ea:	f7fe fe83 	bl	100041f4 <_ZN4MIDI11sendNoteOffEhh>
100054ee:	42a5      	cmp	r5, r4
100054f0:	d1f6      	bne.n	100054e0 <_ZN3ARP19clearSustainedNotesEv+0x40>
100054f2:	b009      	add	sp, #36	@ 0x24
100054f4:	bd30      	pop	{r4, r5, pc}
100054f6:	2420      	movs	r4, #32
100054f8:	e7da      	b.n	100054b0 <_ZN3ARP19clearSustainedNotesEv+0x10>
100054fa:	bf00      	nop
100054fc:	2003001b 	.word	0x2003001b
10005500:	20030019 	.word	0x20030019
10005504:	20003d2c 	.word	0x20003d2c

10005508 <_ZN3ARP6updateEv>:
10005508:	b510      	push	{r4, lr}
1000550a:	f000 fb8d 	bl	10005c28 <_ZN5CLOCK6updateEv>
1000550e:	4b1e      	ldr	r3, [pc, #120]	@ (10005588 <_ZN3ARP6updateEv+0x80>)
10005510:	781b      	ldrb	r3, [r3, #0]
10005512:	b17b      	cbz	r3, 10005534 <_ZN3ARP6updateEv+0x2c>
10005514:	4c1d      	ldr	r4, [pc, #116]	@ (1000558c <_ZN3ARP6updateEv+0x84>)
10005516:	7823      	ldrb	r3, [r4, #0]
10005518:	b96b      	cbnz	r3, 10005536 <_ZN3ARP6updateEv+0x2e>
1000551a:	f000 fb79 	bl	10005c10 <_ZN5CLOCK12getClockTickEv>
1000551e:	4b1c      	ldr	r3, [pc, #112]	@ (10005590 <_ZN3ARP6updateEv+0x88>)
10005520:	681b      	ldr	r3, [r3, #0]
10005522:	4283      	cmp	r3, r0
10005524:	d803      	bhi.n	1000552e <_ZN3ARP6updateEv+0x26>
10005526:	4b1b      	ldr	r3, [pc, #108]	@ (10005594 <_ZN3ARP6updateEv+0x8c>)
10005528:	681a      	ldr	r2, [r3, #0]
1000552a:	2a01      	cmp	r2, #1
1000552c:	d021      	beq.n	10005572 <_ZN3ARP6updateEv+0x6a>
1000552e:	f000 fb91 	bl	10005c54 <_ZN5CLOCK15getClockChangedEv>
10005532:	b958      	cbnz	r0, 1000554c <_ZN3ARP6updateEv+0x44>
10005534:	bd10      	pop	{r4, pc}
10005536:	f7ff ffb3 	bl	100054a0 <_ZN3ARP19clearSustainedNotesEv>
1000553a:	2300      	movs	r3, #0
1000553c:	7023      	strb	r3, [r4, #0]
1000553e:	f000 fb67 	bl	10005c10 <_ZN5CLOCK12getClockTickEv>
10005542:	4b13      	ldr	r3, [pc, #76]	@ (10005590 <_ZN3ARP6updateEv+0x88>)
10005544:	681b      	ldr	r3, [r3, #0]
10005546:	4283      	cmp	r3, r0
10005548:	d8f1      	bhi.n	1000552e <_ZN3ARP6updateEv+0x26>
1000554a:	e7ec      	b.n	10005526 <_ZN3ARP6updateEv+0x1e>
1000554c:	f000 fb88 	bl	10005c60 <_ZN5CLOCK17resetClockChangedEv>
10005550:	4a10      	ldr	r2, [pc, #64]	@ (10005594 <_ZN3ARP6updateEv+0x8c>)
10005552:	6813      	ldr	r3, [r2, #0]
10005554:	2b01      	cmp	r3, #1
10005556:	d011      	beq.n	1000557c <_ZN3ARP6updateEv+0x74>
10005558:	2b02      	cmp	r3, #2
1000555a:	d011      	beq.n	10005580 <_ZN3ARP6updateEv+0x78>
1000555c:	2b00      	cmp	r3, #0
1000555e:	d1e9      	bne.n	10005534 <_ZN3ARP6updateEv+0x2c>
10005560:	4b0d      	ldr	r3, [pc, #52]	@ (10005598 <_ZN3ARP6updateEv+0x90>)
10005562:	781b      	ldrb	r3, [r3, #0]
10005564:	b10b      	cbz	r3, 1000556a <_ZN3ARP6updateEv+0x62>
10005566:	f7ff fccb 	bl	10004f00 <_ZN3ARP13transferNotesEv.part.0>
1000556a:	e8bd 4010 	ldmia.w	sp!, {r4, lr}
1000556e:	f7ff bd3b 	b.w	10004fe8 <_ZN3ARP8playNoteEv>
10005572:	2202      	movs	r2, #2
10005574:	601a      	str	r2, [r3, #0]
10005576:	f7ff fdb3 	bl	100050e0 <_ZN3ARP11releaseNoteEv>
1000557a:	e7d8      	b.n	1000552e <_ZN3ARP6updateEv+0x26>
1000557c:	2302      	movs	r3, #2
1000557e:	6013      	str	r3, [r2, #0]
10005580:	f7ff fdae 	bl	100050e0 <_ZN3ARP11releaseNoteEv>
10005584:	e7ec      	b.n	10005560 <_ZN3ARP6updateEv+0x58>
10005586:	bf00      	nop
10005588:	20030014 	.word	0x20030014
1000558c:	20030024 	.word	0x20030024
10005590:	20003da0 	.word	0x20003da0
10005594:	20003d9c 	.word	0x20003d9c
10005598:	20030022 	.word	0x20030022

1000559c <_ZN3ARP13clearAllNotesEv>:
1000559c:	2200      	movs	r2, #0
1000559e:	b570      	push	{r4, r5, r6, lr}
100055a0:	4b18      	ldr	r3, [pc, #96]	@ (10005604 <_ZN3ARP13clearAllNotesEv+0x68>)
100055a2:	b088      	sub	sp, #32
100055a4:	f103 0060 	add.w	r0, r3, #96	@ 0x60
100055a8:	7819      	ldrb	r1, [r3, #0]
100055aa:	3303      	adds	r3, #3
100055ac:	b131      	cbz	r1, 100055bc <_ZN3ARP13clearAllNotesEv+0x20>
100055ae:	f102 0420 	add.w	r4, r2, #32
100055b2:	446c      	add	r4, sp
100055b4:	3201      	adds	r2, #1
100055b6:	f804 1c20 	strb.w	r1, [r4, #-32]
100055ba:	b2d2      	uxtb	r2, r2
100055bc:	4283      	cmp	r3, r0
100055be:	d1f3      	bne.n	100055a8 <_ZN3ARP13clearAllNotesEv+0xc>
100055c0:	4e11      	ldr	r6, [pc, #68]	@ (10005608 <_ZN3ARP13clearAllNotesEv+0x6c>)
100055c2:	7833      	ldrb	r3, [r6, #0]
100055c4:	b19b      	cbz	r3, 100055ee <_ZN3ARP13clearAllNotesEv+0x52>
100055c6:	2300      	movs	r3, #0
100055c8:	7033      	strb	r3, [r6, #0]
100055ca:	b13a      	cbz	r2, 100055dc <_ZN3ARP13clearAllNotesEv+0x40>
100055cc:	466d      	mov	r5, sp
100055ce:	1954      	adds	r4, r2, r5
100055d0:	f815 0b01 	ldrb.w	r0, [r5], #1
100055d4:	f7ff febe 	bl	10005354 <_ZN3ARP10removeNoteEh>
100055d8:	42a5      	cmp	r5, r4
100055da:	d1f9      	bne.n	100055d0 <_ZN3ARP13clearAllNotesEv+0x34>
100055dc:	2301      	movs	r3, #1
100055de:	7033      	strb	r3, [r6, #0]
100055e0:	2300      	movs	r3, #0
100055e2:	490a      	ldr	r1, [pc, #40]	@ (1000560c <_ZN3ARP13clearAllNotesEv+0x70>)
100055e4:	4a0a      	ldr	r2, [pc, #40]	@ (10005610 <_ZN3ARP13clearAllNotesEv+0x74>)
100055e6:	700b      	strb	r3, [r1, #0]
100055e8:	7013      	strb	r3, [r2, #0]
100055ea:	b008      	add	sp, #32
100055ec:	bd70      	pop	{r4, r5, r6, pc}
100055ee:	2a00      	cmp	r2, #0
100055f0:	d0f6      	beq.n	100055e0 <_ZN3ARP13clearAllNotesEv+0x44>
100055f2:	466d      	mov	r5, sp
100055f4:	1954      	adds	r4, r2, r5
100055f6:	f815 0b01 	ldrb.w	r0, [r5], #1
100055fa:	f7ff feab 	bl	10005354 <_ZN3ARP10removeNoteEh>
100055fe:	42a5      	cmp	r5, r4
10005600:	d1f9      	bne.n	100055f6 <_ZN3ARP13clearAllNotesEv+0x5a>
10005602:	e7ed      	b.n	100055e0 <_ZN3ARP13clearAllNotesEv+0x44>
10005604:	20003d2c 	.word	0x20003d2c
10005608:	2003001f 	.word	0x2003001f
1000560c:	20030018 	.word	0x20030018
10005610:	20030013 	.word	0x20030013

10005614 <_ZN3ARP7addNoteEhh>:
10005614:	2800      	cmp	r0, #0
10005616:	d02f      	beq.n	10005678 <_ZN3ARP7addNoteEhh+0x64>
10005618:	e92d 41f0 	stmdb	sp!, {r4, r5, r6, r7, r8, lr}
1000561c:	4c29      	ldr	r4, [pc, #164]	@ (100056c4 <_ZN3ARP7addNoteEhh+0xb0>)
1000561e:	4680      	mov	r8, r0
10005620:	7823      	ldrb	r3, [r4, #0]
10005622:	460f      	mov	r7, r1
10005624:	2b00      	cmp	r3, #0
10005626:	d145      	bne.n	100056b4 <_ZN3ARP7addNoteEhh+0xa0>
10005628:	4a27      	ldr	r2, [pc, #156]	@ (100056c8 <_ZN3ARP7addNoteEhh+0xb4>)
1000562a:	4e28      	ldr	r6, [pc, #160]	@ (100056cc <_ZN3ARP7addNoteEhh+0xb8>)
1000562c:	7813      	ldrb	r3, [r2, #0]
1000562e:	3301      	adds	r3, #1
10005630:	b25b      	sxtb	r3, r3
10005632:	2b1f      	cmp	r3, #31
10005634:	bfc8      	it	gt
10005636:	2320      	movgt	r3, #32
10005638:	7013      	strb	r3, [r2, #0]
1000563a:	7833      	ldrb	r3, [r6, #0]
1000563c:	b9eb      	cbnz	r3, 1000567a <_ZN3ARP7addNoteEhh+0x66>
1000563e:	4d24      	ldr	r5, [pc, #144]	@ (100056d0 <_ZN3ARP7addNoteEhh+0xbc>)
10005640:	e001      	b.n	10005646 <_ZN3ARP7addNoteEhh+0x32>
10005642:	2b20      	cmp	r3, #32
10005644:	d016      	beq.n	10005674 <_ZN3ARP7addNoteEhh+0x60>
10005646:	eb03 0243 	add.w	r2, r3, r3, lsl #1
1000564a:	5cac      	ldrb	r4, [r5, r2]
1000564c:	3301      	adds	r3, #1
1000564e:	2c00      	cmp	r4, #0
10005650:	d1f7      	bne.n	10005642 <_ZN3ARP7addNoteEhh+0x2e>
10005652:	2001      	movs	r0, #1
10005654:	f805 8002 	strb.w	r8, [r5, r2]
10005658:	442a      	add	r2, r5
1000565a:	7057      	strb	r7, [r2, #1]
1000565c:	7094      	strb	r4, [r2, #2]
1000565e:	4a1d      	ldr	r2, [pc, #116]	@ (100056d4 <_ZN3ARP7addNoteEhh+0xc0>)
10005660:	4d1d      	ldr	r5, [pc, #116]	@ (100056d8 <_ZN3ARP7addNoteEhh+0xc4>)
10005662:	7813      	ldrb	r3, [r2, #0]
10005664:	7028      	strb	r0, [r5, #0]
10005666:	4403      	add	r3, r0
10005668:	b25b      	sxtb	r3, r3
1000566a:	2b1f      	cmp	r3, #31
1000566c:	bfc4      	itt	gt
1000566e:	2320      	movgt	r3, #32
10005670:	7030      	strbgt	r0, [r6, #0]
10005672:	7013      	strb	r3, [r2, #0]
10005674:	e8bd 81f0 	ldmia.w	sp!, {r4, r5, r6, r7, r8, pc}
10005678:	4770      	bx	lr
1000567a:	2601      	movs	r6, #1
1000567c:	f04f 0c00 	mov.w	ip, #0
10005680:	4d16      	ldr	r5, [pc, #88]	@ (100056dc <_ZN3ARP7addNoteEhh+0xc8>)
10005682:	4c13      	ldr	r4, [pc, #76]	@ (100056d0 <_ZN3ARP7addNoteEhh+0xbc>)
10005684:	f995 2000 	ldrsb.w	r2, [r5]
10005688:	1993      	adds	r3, r2, r6
1000568a:	ebbc 0103 	subs.w	r1, ip, r3
1000568e:	f001 011f 	and.w	r1, r1, #31
10005692:	f003 031f 	and.w	r3, r3, #31
10005696:	bf58      	it	pl
10005698:	424b      	negpl	r3, r1
1000569a:	eb02 0242 	add.w	r2, r2, r2, lsl #1
1000569e:	702b      	strb	r3, [r5, #0]
100056a0:	4b0d      	ldr	r3, [pc, #52]	@ (100056d8 <_ZN3ARP7addNoteEhh+0xc4>)
100056a2:	f804 8002 	strb.w	r8, [r4, r2]
100056a6:	4422      	add	r2, r4
100056a8:	7057      	strb	r7, [r2, #1]
100056aa:	f882 c002 	strb.w	ip, [r2, #2]
100056ae:	701e      	strb	r6, [r3, #0]
100056b0:	e8bd 81f0 	ldmia.w	sp!, {r4, r5, r6, r7, r8, pc}
100056b4:	f7ff ff72 	bl	1000559c <_ZN3ARP13clearAllNotesEv>
100056b8:	2501      	movs	r5, #1
100056ba:	2300      	movs	r3, #0
100056bc:	4a08      	ldr	r2, [pc, #32]	@ (100056e0 <_ZN3ARP7addNoteEhh+0xcc>)
100056be:	7023      	strb	r3, [r4, #0]
100056c0:	7015      	strb	r5, [r2, #0]
100056c2:	e7b1      	b.n	10005628 <_ZN3ARP7addNoteEhh+0x14>
100056c4:	20030017 	.word	0x20030017
100056c8:	20030013 	.word	0x20030013
100056cc:	2003001b 	.word	0x2003001b
100056d0:	20003d2c 	.word	0x20003d2c
100056d4:	20030019 	.word	0x20030019
100056d8:	20030022 	.word	0x20030022
100056dc:	2003001c 	.word	0x2003001c
100056e0:	20030020 	.word	0x20030020

100056e4 <_ZN3ARP9passNotesEv>:
100056e4:	4b1b      	ldr	r3, [pc, #108]	@ (10005754 <_ZN3ARP9passNotesEv+0x70>)
100056e6:	b570      	push	{r4, r5, r6, lr}
100056e8:	781b      	ldrb	r3, [r3, #0]
100056ea:	b10b      	cbz	r3, 100056f0 <_ZN3ARP9passNotesEv+0xc>
100056ec:	f7ff fc08 	bl	10004f00 <_ZN3ARP13transferNotesEv.part.0>
100056f0:	4b19      	ldr	r3, [pc, #100]	@ (10005758 <_ZN3ARP9passNotesEv+0x74>)
100056f2:	781c      	ldrb	r4, [r3, #0]
100056f4:	b9b4      	cbnz	r4, 10005724 <_ZN3ARP9passNotesEv+0x40>
100056f6:	4e19      	ldr	r6, [pc, #100]	@ (1000575c <_ZN3ARP9passNotesEv+0x78>)
100056f8:	e002      	b.n	10005700 <_ZN3ARP9passNotesEv+0x1c>
100056fa:	3401      	adds	r4, #1
100056fc:	2c20      	cmp	r4, #32
100056fe:	d010      	beq.n	10005722 <_ZN3ARP9passNotesEv+0x3e>
10005700:	eb04 0344 	add.w	r3, r4, r4, lsl #1
10005704:	5cf5      	ldrb	r5, [r6, r3]
10005706:	2d00      	cmp	r5, #0
10005708:	d0f7      	beq.n	100056fa <_ZN3ARP9passNotesEv+0x16>
1000570a:	b2e0      	uxtb	r0, r4
1000570c:	4629      	mov	r1, r5
1000570e:	227f      	movs	r2, #127	@ 0x7f
10005710:	f000 ffa4 	bl	1000665c <_ZN13NOTE_HANDLING7voiceOnEhhh>
10005714:	3401      	adds	r4, #1
10005716:	217f      	movs	r1, #127	@ 0x7f
10005718:	4628      	mov	r0, r5
1000571a:	f7fe fd81 	bl	10004220 <_ZN4MIDI10sendNoteOnEhh>
1000571e:	2c20      	cmp	r4, #32
10005720:	d1ee      	bne.n	10005700 <_ZN3ARP9passNotesEv+0x1c>
10005722:	bd70      	pop	{r4, r5, r6, pc}
10005724:	2400      	movs	r4, #0
10005726:	4d0d      	ldr	r5, [pc, #52]	@ (1000575c <_ZN3ARP9passNotesEv+0x78>)
10005728:	e00d      	b.n	10005746 <_ZN3ARP9passNotesEv+0x62>
1000572a:	782e      	ldrb	r6, [r5, #0]
1000572c:	3503      	adds	r5, #3
1000572e:	2e00      	cmp	r6, #0
10005730:	d0f7      	beq.n	10005722 <_ZN3ARP9passNotesEv+0x3e>
10005732:	227f      	movs	r2, #127	@ 0x7f
10005734:	4631      	mov	r1, r6
10005736:	f000 ff91 	bl	1000665c <_ZN13NOTE_HANDLING7voiceOnEhhh>
1000573a:	217f      	movs	r1, #127	@ 0x7f
1000573c:	4630      	mov	r0, r6
1000573e:	f7fe fd6f 	bl	10004220 <_ZN4MIDI10sendNoteOnEhh>
10005742:	2c20      	cmp	r4, #32
10005744:	d0ed      	beq.n	10005722 <_ZN3ARP9passNotesEv+0x3e>
10005746:	78ab      	ldrb	r3, [r5, #2]
10005748:	b2e0      	uxtb	r0, r4
1000574a:	3401      	adds	r4, #1
1000574c:	2b00      	cmp	r3, #0
1000574e:	d0ec      	beq.n	1000572a <_ZN3ARP9passNotesEv+0x46>
10005750:	bd70      	pop	{r4, r5, r6, pc}
10005752:	bf00      	nop
10005754:	20030022 	.word	0x20030022
10005758:	2003001f 	.word	0x2003001f
1000575c:	20003ccc 	.word	0x20003ccc

10005760 <_ZN3ARP9grabNotesEv>:
10005760:	e92d 41f0 	stmdb	sp!, {r4, r5, r6, r7, r8, lr}
10005764:	2500      	movs	r5, #0
10005766:	f04f 0801 	mov.w	r8, #1
1000576a:	462f      	mov	r7, r5
1000576c:	e002      	b.n	10005774 <_ZN3ARP9grabNotesEv+0x14>
1000576e:	3501      	adds	r5, #1
10005770:	2d08      	cmp	r5, #8
10005772:	d01e      	beq.n	100057b2 <_ZN3ARP9grabNotesEv+0x52>
10005774:	b2ee      	uxtb	r6, r5
10005776:	4630      	mov	r0, r6
10005778:	f000 ffa6 	bl	100066c8 <_ZN13NOTE_HANDLING16voicesActiveNoteEh>
1000577c:	4604      	mov	r4, r0
1000577e:	4630      	mov	r0, r6
10005780:	f000 ff98 	bl	100066b4 <_ZN13NOTE_HANDLING18voicesCheckSustainEh>
10005784:	4606      	mov	r6, r0
10005786:	217f      	movs	r1, #127	@ 0x7f
10005788:	4620      	mov	r0, r4
1000578a:	f7ff ff43 	bl	10005614 <_ZN3ARP7addNoteEhh>
1000578e:	2e00      	cmp	r6, #0
10005790:	d0ed      	beq.n	1000576e <_ZN3ARP9grabNotesEv+0xe>
10005792:	4b13      	ldr	r3, [pc, #76]	@ (100057e0 <_ZN3ARP9grabNotesEv+0x80>)
10005794:	3701      	adds	r7, #1
10005796:	b2ff      	uxtb	r7, r7
10005798:	f103 0160 	add.w	r1, r3, #96	@ 0x60
1000579c:	781a      	ldrb	r2, [r3, #0]
1000579e:	3303      	adds	r3, #3
100057a0:	42a2      	cmp	r2, r4
100057a2:	bf08      	it	eq
100057a4:	f803 8c01 	strbeq.w	r8, [r3, #-1]
100057a8:	428b      	cmp	r3, r1
100057aa:	d1f7      	bne.n	1000579c <_ZN3ARP9grabNotesEv+0x3c>
100057ac:	3501      	adds	r5, #1
100057ae:	2d08      	cmp	r5, #8
100057b0:	d1e0      	bne.n	10005774 <_ZN3ARP9grabNotesEv+0x14>
100057b2:	4a0c      	ldr	r2, [pc, #48]	@ (100057e4 <_ZN3ARP9grabNotesEv+0x84>)
100057b4:	7813      	ldrb	r3, [r2, #0]
100057b6:	1bdb      	subs	r3, r3, r7
100057b8:	b25b      	sxtb	r3, r3
100057ba:	2b00      	cmp	r3, #0
100057bc:	dd09      	ble.n	100057d2 <_ZN3ARP9grabNotesEv+0x72>
100057be:	7013      	strb	r3, [r2, #0]
100057c0:	4b09      	ldr	r3, [pc, #36]	@ (100057e8 <_ZN3ARP9grabNotesEv+0x88>)
100057c2:	781b      	ldrb	r3, [r3, #0]
100057c4:	b11b      	cbz	r3, 100057ce <_ZN3ARP9grabNotesEv+0x6e>
100057c6:	e8bd 41f0 	ldmia.w	sp!, {r4, r5, r6, r7, r8, lr}
100057ca:	f7ff bb99 	b.w	10004f00 <_ZN3ARP13transferNotesEv.part.0>
100057ce:	e8bd 81f0 	ldmia.w	sp!, {r4, r5, r6, r7, r8, pc}
100057d2:	2000      	movs	r0, #0
100057d4:	2101      	movs	r1, #1
100057d6:	4b05      	ldr	r3, [pc, #20]	@ (100057ec <_ZN3ARP9grabNotesEv+0x8c>)
100057d8:	7010      	strb	r0, [r2, #0]
100057da:	7019      	strb	r1, [r3, #0]
100057dc:	e7f0      	b.n	100057c0 <_ZN3ARP9grabNotesEv+0x60>
100057de:	bf00      	nop
100057e0:	20003d2c 	.word	0x20003d2c
100057e4:	20030013 	.word	0x20030013
100057e8:	20030022 	.word	0x20030022
100057ec:	20030017 	.word	0x20030017

100057f0 <_ZN3ARP8setStateEb>:
100057f0:	b510      	push	{r4, lr}
100057f2:	4c0a      	ldr	r4, [pc, #40]	@ (1000581c <_ZN3ARP8setStateEb+0x2c>)
100057f4:	7823      	ldrb	r3, [r4, #0]
100057f6:	4283      	cmp	r3, r0
100057f8:	d00f      	beq.n	1000581a <_ZN3ARP8setStateEb+0x2a>
100057fa:	7020      	strb	r0, [r4, #0]
100057fc:	f000 ff70 	bl	100066e0 <_ZN13NOTE_HANDLING10voicesStopEv>
10005800:	7823      	ldrb	r3, [r4, #0]
10005802:	b11b      	cbz	r3, 1000580c <_ZN3ARP8setStateEb+0x1c>
10005804:	e8bd 4010 	ldmia.w	sp!, {r4, lr}
10005808:	f7ff bfaa 	b.w	10005760 <_ZN3ARP9grabNotesEv>
1000580c:	f7ff ff6a 	bl	100056e4 <_ZN3ARP9passNotesEv>
10005810:	f7ff fec4 	bl	1000559c <_ZN3ARP13clearAllNotesEv>
10005814:	7823      	ldrb	r3, [r4, #0]
10005816:	2b00      	cmp	r3, #0
10005818:	d1f4      	bne.n	10005804 <_ZN3ARP8setStateEb+0x14>
1000581a:	bd10      	pop	{r4, pc}
1000581c:	20030014 	.word	0x20030014

10005820 <_ZN3ARP10toggleHoldEv>:
10005820:	4a04      	ldr	r2, [pc, #16]	@ (10005834 <_ZN3ARP10toggleHoldEv+0x14>)
10005822:	7813      	ldrb	r3, [r2, #0]
10005824:	f083 0301 	eor.w	r3, r3, #1
10005828:	7013      	strb	r3, [r2, #0]
1000582a:	b913      	cbnz	r3, 10005832 <_ZN3ARP10toggleHoldEv+0x12>
1000582c:	2201      	movs	r2, #1
1000582e:	4b02      	ldr	r3, [pc, #8]	@ (10005838 <_ZN3ARP10toggleHoldEv+0x18>)
10005830:	701a      	strb	r2, [r3, #0]
10005832:	4770      	bx	lr
10005834:	2003001f 	.word	0x2003001f
10005838:	20030024 	.word	0x20030024

1000583c <_ZN3ARP7getHoldEv>:
1000583c:	4b01      	ldr	r3, [pc, #4]	@ (10005844 <_ZN3ARP7getHoldEv+0x8>)
1000583e:	7818      	ldrb	r0, [r3, #0]
10005840:	4770      	bx	lr
10005842:	bf00      	nop
10005844:	2003001f 	.word	0x2003001f

10005848 <_ZN3ARP13toggleSustainEv>:
10005848:	4a04      	ldr	r2, [pc, #16]	@ (1000585c <_ZN3ARP13toggleSustainEv+0x14>)
1000584a:	7813      	ldrb	r3, [r2, #0]
1000584c:	f083 0301 	eor.w	r3, r3, #1
10005850:	7013      	strb	r3, [r2, #0]
10005852:	b913      	cbnz	r3, 1000585a <_ZN3ARP13toggleSustainEv+0x12>
10005854:	2201      	movs	r2, #1
10005856:	4b02      	ldr	r3, [pc, #8]	@ (10005860 <_ZN3ARP13toggleSustainEv+0x18>)
10005858:	701a      	strb	r2, [r3, #0]
1000585a:	4770      	bx	lr
1000585c:	2003001f 	.word	0x2003001f
10005860:	20030024 	.word	0x20030024

10005864 <_ZN3ARP11setDivisionEt>:
10005864:	b510      	push	{r4, lr}
10005866:	2300      	movs	r3, #0
10005868:	240a      	movs	r4, #10
1000586a:	b082      	sub	sp, #8
1000586c:	4619      	mov	r1, r3
1000586e:	f240 32ff 	movw	r2, #1023	@ 0x3ff
10005872:	9400      	str	r4, [sp, #0]
10005874:	f7fa fda6 	bl	100003c4 <_Z3maplllll>
10005878:	4b06      	ldr	r3, [pc, #24]	@ (10005894 <_ZN3ARP11setDivisionEt+0x30>)
1000587a:	b2c2      	uxtb	r2, r0
1000587c:	8819      	ldrh	r1, [r3, #0]
1000587e:	4291      	cmp	r1, r2
10005880:	d006      	beq.n	10005890 <_ZN3ARP11setDivisionEt+0x2c>
10005882:	4610      	mov	r0, r2
10005884:	801a      	strh	r2, [r3, #0]
10005886:	b002      	add	sp, #8
10005888:	e8bd 4010 	ldmia.w	sp!, {r4, lr}
1000588c:	f000 b93a 	b.w	10005b04 <_ZN5CLOCK11setDivisionEh>
10005890:	b002      	add	sp, #8
10005892:	bd10      	pop	{r4, pc}
10005894:	2002fff4 	.word	0x2002fff4

10005898 <_ZN3ARP8setRangeEt>:
10005898:	4b04      	ldr	r3, [pc, #16]	@ (100058ac <_ZN3ARP8setRangeEt+0x14>)
1000589a:	0a02      	lsrs	r2, r0, #8
1000589c:	8819      	ldrh	r1, [r3, #0]
1000589e:	ebb1 2f10 	cmp.w	r1, r0, lsr #8
100058a2:	d002      	beq.n	100058aa <_ZN3ARP8setRangeEt+0x12>
100058a4:	4902      	ldr	r1, [pc, #8]	@ (100058b0 <_ZN3ARP8setRangeEt+0x18>)
100058a6:	801a      	strh	r2, [r3, #0]
100058a8:	700a      	strb	r2, [r1, #0]
100058aa:	4770      	bx	lr
100058ac:	2002fff2 	.word	0x2002fff2
100058b0:	20030015 	.word	0x20030015

100058b4 <_ZN3ARP12setDirectionEt>:
100058b4:	4a13      	ldr	r2, [pc, #76]	@ (10005904 <_ZN3ARP12setDirectionEt+0x50>)
100058b6:	0a03      	lsrs	r3, r0, #8
100058b8:	8811      	ldrh	r1, [r2, #0]
100058ba:	ebb1 2f10 	cmp.w	r1, r0, lsr #8
100058be:	d00c      	beq.n	100058da <_ZN3ARP12setDirectionEt+0x26>
100058c0:	8013      	strh	r3, [r2, #0]
100058c2:	2b03      	cmp	r3, #3
100058c4:	d809      	bhi.n	100058da <_ZN3ARP12setDirectionEt+0x26>
100058c6:	e8df f003 	tbb	[pc, r3]
100058ca:	0f09      	.short	0x0f09
100058cc:	0215      	.short	0x0215
100058ce:	2003      	movs	r0, #3
100058d0:	2201      	movs	r2, #1
100058d2:	490d      	ldr	r1, [pc, #52]	@ (10005908 <_ZN3ARP12setDirectionEt+0x54>)
100058d4:	4b0d      	ldr	r3, [pc, #52]	@ (1000590c <_ZN3ARP12setDirectionEt+0x58>)
100058d6:	6008      	str	r0, [r1, #0]
100058d8:	601a      	str	r2, [r3, #0]
100058da:	4770      	bx	lr
100058dc:	2300      	movs	r3, #0
100058de:	490a      	ldr	r1, [pc, #40]	@ (10005908 <_ZN3ARP12setDirectionEt+0x54>)
100058e0:	4a0a      	ldr	r2, [pc, #40]	@ (1000590c <_ZN3ARP12setDirectionEt+0x58>)
100058e2:	600b      	str	r3, [r1, #0]
100058e4:	6013      	str	r3, [r2, #0]
100058e6:	4770      	bx	lr
100058e8:	2301      	movs	r3, #1
100058ea:	4907      	ldr	r1, [pc, #28]	@ (10005908 <_ZN3ARP12setDirectionEt+0x54>)
100058ec:	4a07      	ldr	r2, [pc, #28]	@ (1000590c <_ZN3ARP12setDirectionEt+0x58>)
100058ee:	600b      	str	r3, [r1, #0]
100058f0:	6013      	str	r3, [r2, #0]
100058f2:	4770      	bx	lr
100058f4:	2002      	movs	r0, #2
100058f6:	2200      	movs	r2, #0
100058f8:	4903      	ldr	r1, [pc, #12]	@ (10005908 <_ZN3ARP12setDirectionEt+0x54>)
100058fa:	4b04      	ldr	r3, [pc, #16]	@ (1000590c <_ZN3ARP12setDirectionEt+0x58>)
100058fc:	6008      	str	r0, [r1, #0]
100058fe:	601a      	str	r2, [r3, #0]
10005900:	4770      	bx	lr
10005902:	bf00      	nop
10005904:	2002fff6 	.word	0x2002fff6
10005908:	20003d8c 	.word	0x20003d8c
1000590c:	20003d98 	.word	0x20003d98

10005910 <_ZN3ARP7setGateEt>:
10005910:	b510      	push	{r4, lr}
10005912:	4604      	mov	r4, r0
10005914:	f000 f982 	bl	10005c1c <_ZN5CLOCK21getSamplesPerDivisionEv>
10005918:	fb04 f000 	mul.w	r0, r4, r0
1000591c:	f5b0 3f70 	cmp.w	r0, #245760	@ 0x3c000
10005920:	d303      	bcc.n	1000592a <_ZN3ARP7setGateEt+0x1a>
10005922:	4a04      	ldr	r2, [pc, #16]	@ (10005934 <_ZN3ARP7setGateEt+0x24>)
10005924:	0a83      	lsrs	r3, r0, #10
10005926:	6013      	str	r3, [r2, #0]
10005928:	bd10      	pop	{r4, pc}
1000592a:	22f0      	movs	r2, #240	@ 0xf0
1000592c:	4b01      	ldr	r3, [pc, #4]	@ (10005934 <_ZN3ARP7setGateEt+0x24>)
1000592e:	601a      	str	r2, [r3, #0]
10005930:	bd10      	pop	{r4, pc}
10005932:	bf00      	nop
10005934:	20003da0 	.word	0x20003da0

10005938 <_ZN3ARP6setBPMEt>:
10005938:	b510      	push	{r4, lr}
1000593a:	f44f 74af 	mov.w	r4, #350	@ 0x15e
1000593e:	b082      	sub	sp, #8
10005940:	231e      	movs	r3, #30
10005942:	f240 32ff 	movw	r2, #1023	@ 0x3ff
10005946:	2100      	movs	r1, #0
10005948:	9400      	str	r4, [sp, #0]
1000594a:	f7fa fd3b 	bl	100003c4 <_Z3maplllll>
1000594e:	b280      	uxth	r0, r0
10005950:	b002      	add	sp, #8
10005952:	e8bd 4010 	ldmia.w	sp!, {r4, lr}
10005956:	f000 b8b1 	b.w	10005abc <_ZN5CLOCK6setBPMEt>
1000595a:	bf00      	nop

1000595c <_ZN3ARP10setOctModeEt>:
1000595c:	0a42      	lsrs	r2, r0, #9
1000595e:	bf14      	ite	ne
10005960:	2201      	movne	r2, #1
10005962:	2200      	moveq	r2, #0
10005964:	4b04      	ldr	r3, [pc, #16]	@ (10005978 <_ZN3ARP10setOctModeEt+0x1c>)
10005966:	7819      	ldrb	r1, [r3, #0]
10005968:	4291      	cmp	r1, r2
1000596a:	d003      	beq.n	10005974 <_ZN3ARP10setOctModeEt+0x18>
1000596c:	2001      	movs	r0, #1
1000596e:	4903      	ldr	r1, [pc, #12]	@ (1000597c <_ZN3ARP10setOctModeEt+0x20>)
10005970:	701a      	strb	r2, [r3, #0]
10005972:	7008      	strb	r0, [r1, #0]
10005974:	4770      	bx	lr
10005976:	bf00      	nop
10005978:	20030025 	.word	0x20030025
1000597c:	20030023 	.word	0x20030023

10005980 <_ZN3ARP14setPlayedOrderEt>:
10005980:	0a42      	lsrs	r2, r0, #9
10005982:	bf14      	ite	ne
10005984:	2201      	movne	r2, #1
10005986:	2200      	moveq	r2, #0
10005988:	4b04      	ldr	r3, [pc, #16]	@ (1000599c <_ZN3ARP14setPlayedOrderEt+0x1c>)
1000598a:	7819      	ldrb	r1, [r3, #0]
1000598c:	4291      	cmp	r1, r2
1000598e:	d003      	beq.n	10005998 <_ZN3ARP14setPlayedOrderEt+0x18>
10005990:	2001      	movs	r0, #1
10005992:	4903      	ldr	r1, [pc, #12]	@ (100059a0 <_ZN3ARP14setPlayedOrderEt+0x20>)
10005994:	701a      	strb	r2, [r3, #0]
10005996:	7008      	strb	r0, [r1, #0]
10005998:	4770      	bx	lr
1000599a:	bf00      	nop
1000599c:	20030016 	.word	0x20030016
100059a0:	20030022 	.word	0x20030022

100059a4 <_GLOBAL__sub_I__ZN3ARP10playBufferE>:
100059a4:	2200      	movs	r2, #0
100059a6:	f46f 437e 	mvn.w	r3, #65024	@ 0xfe00
100059aa:	492e      	ldr	r1, [pc, #184]	@ (10005a64 <_GLOBAL__sub_I__ZN3ARP10playBufferE+0xc0>)
100059ac:	482e      	ldr	r0, [pc, #184]	@ (10005a68 <_GLOBAL__sub_I__ZN3ARP10playBufferE+0xc4>)
100059ae:	b570      	push	{r4, r5, r6, lr}
100059b0:	f04f 0c04 	mov.w	ip, #4
100059b4:	f64a 4544 	movw	r5, #44100	@ 0xac44
100059b8:	f64f 74ff 	movw	r4, #65535	@ 0xffff
100059bc:	e9c1 2306 	strd	r2, r3, [r1, #24]
100059c0:	e9c1 2309 	strd	r2, r3, [r1, #36]	@ 0x24
100059c4:	e9c1 230c 	strd	r2, r3, [r1, #48]	@ 0x30
100059c8:	4603      	mov	r3, r0
100059ca:	600d      	str	r5, [r1, #0]
100059cc:	f8a1 4040 	strh.w	r4, [r1, #64]	@ 0x40
100059d0:	82ca      	strh	r2, [r1, #22]
100059d2:	844a      	strh	r2, [r1, #34]	@ 0x22
100059d4:	85ca      	strh	r2, [r1, #46]	@ 0x2e
100059d6:	870a      	strh	r2, [r1, #56]	@ 0x38
100059d8:	eb01 060c 	add.w	r6, r1, ip
100059dc:	f101 0508 	add.w	r5, r1, #8
100059e0:	f101 040c 	add.w	r4, r1, #12
100059e4:	f500 7ef0 	add.w	lr, r0, #480	@ 0x1e0
100059e8:	3110      	adds	r1, #16
100059ea:	f883 c020 	strb.w	ip, [r3, #32]
100059ee:	f883 2024 	strb.w	r2, [r3, #36]	@ 0x24
100059f2:	f883 2026 	strb.w	r2, [r3, #38]	@ 0x26
100059f6:	f883 2027 	strb.w	r2, [r3, #39]	@ 0x27
100059fa:	f883 2028 	strb.w	r2, [r3, #40]	@ 0x28
100059fe:	e9c3 6500 	strd	r6, r5, [r3]
10005a02:	e9c3 4102 	strd	r4, r1, [r3, #8]
10005a06:	e9c3 2204 	strd	r2, r2, [r3, #16]
10005a0a:	e9c3 2206 	strd	r2, r2, [r3, #24]
10005a0e:	e9c3 220b 	strd	r2, r2, [r3, #44]	@ 0x2c
10005a12:	e9c3 220d 	strd	r2, r2, [r3, #52]	@ 0x34
10005a16:	333c      	adds	r3, #60	@ 0x3c
10005a18:	459e      	cmp	lr, r3
10005a1a:	d1e6      	bne.n	100059ea <_GLOBAL__sub_I__ZN3ARP10playBufferE+0x46>
10005a1c:	2403      	movs	r4, #3
10005a1e:	f8c0 21e0 	str.w	r2, [r0, #480]	@ 0x1e0
10005a22:	f880 2024 	strb.w	r2, [r0, #36]	@ 0x24
10005a26:	2206      	movs	r2, #6
10005a28:	2301      	movs	r3, #1
10005a2a:	2102      	movs	r1, #2
10005a2c:	2505      	movs	r5, #5
10005a2e:	f880 40d8 	strb.w	r4, [r0, #216]	@ 0xd8
10005a32:	2407      	movs	r4, #7
10005a34:	f880 218c 	strb.w	r2, [r0, #396]	@ 0x18c
10005a38:	2200      	movs	r2, #0
10005a3a:	f880 3060 	strb.w	r3, [r0, #96]	@ 0x60
10005a3e:	f880 109c 	strb.w	r1, [r0, #156]	@ 0x9c
10005a42:	4b0a      	ldr	r3, [pc, #40]	@ (10005a6c <_GLOBAL__sub_I__ZN3ARP10playBufferE+0xc8>)
10005a44:	490a      	ldr	r1, [pc, #40]	@ (10005a70 <_GLOBAL__sub_I__ZN3ARP10playBufferE+0xcc>)
10005a46:	f880 c114 	strb.w	ip, [r0, #276]	@ 0x114
10005a4a:	f880 5150 	strb.w	r5, [r0, #336]	@ 0x150
10005a4e:	f880 41c8 	strb.w	r4, [r0, #456]	@ 0x1c8
10005a52:	f883 2103 	strb.w	r2, [r3, #259]	@ 0x103
10005a56:	701a      	strb	r2, [r3, #0]
10005a58:	f203 1305 	addw	r3, r3, #261	@ 0x105
10005a5c:	428b      	cmp	r3, r1
10005a5e:	d1f8      	bne.n	10005a52 <_GLOBAL__sub_I__ZN3ARP10playBufferE+0xae>
10005a60:	bd70      	pop	{r4, r5, r6, pc}
10005a62:	bf00      	nop
10005a64:	2002cfe4 	.word	0x2002cfe4
10005a68:	2002e058 	.word	0x2002e058
10005a6c:	200207b8 	.word	0x200207b8
10005a70:	200248f8 	.word	0x200248f8

10005a74 <_ZN5CLOCK4initEv>:
10005a74:	b410      	push	{r4}
10005a76:	4a0b      	ldr	r2, [pc, #44]	@ (10005aa4 <_ZN5CLOCK4initEv+0x30>)
10005a78:	f04f 0c78 	mov.w	ip, #120	@ 0x78
10005a7c:	7812      	ldrb	r2, [r2, #0]
10005a7e:	4b0a      	ldr	r3, [pc, #40]	@ (10005aa8 <_ZN5CLOCK4initEv+0x34>)
10005a80:	f64a 4044 	movw	r0, #44100	@ 0xac44
10005a84:	fbb3 f3f2 	udiv	r3, r3, r2
10005a88:	f240 3296 	movw	r2, #918	@ 0x396
10005a8c:	4c07      	ldr	r4, [pc, #28]	@ (10005aac <_ZN5CLOCK4initEv+0x38>)
10005a8e:	4908      	ldr	r1, [pc, #32]	@ (10005ab0 <_ZN5CLOCK4initEv+0x3c>)
10005a90:	f8a4 c000 	strh.w	ip, [r4]
10005a94:	4c07      	ldr	r4, [pc, #28]	@ (10005ab4 <_ZN5CLOCK4initEv+0x40>)
10005a96:	6008      	str	r0, [r1, #0]
10005a98:	6023      	str	r3, [r4, #0]
10005a9a:	4b07      	ldr	r3, [pc, #28]	@ (10005ab8 <_ZN5CLOCK4initEv+0x44>)
10005a9c:	f85d 4b04 	ldr.w	r4, [sp], #4
10005aa0:	601a      	str	r2, [r3, #0]
10005aa2:	4770      	bx	lr
10005aa4:	200010e6 	.word	0x200010e6
10005aa8:	00015888 	.word	0x00015888
10005aac:	200010e8 	.word	0x200010e8
10005ab0:	2002cd8c 	.word	0x2002cd8c
10005ab4:	2002cd9c 	.word	0x2002cd9c
10005ab8:	2002cd98 	.word	0x2002cd98

10005abc <_ZN5CLOCK6setBPMEt>:
10005abc:	4b0b      	ldr	r3, [pc, #44]	@ (10005aec <_ZN5CLOCK6setBPMEt+0x30>)
10005abe:	b470      	push	{r4, r5, r6}
10005ac0:	681b      	ldr	r3, [r3, #0]
10005ac2:	4a0b      	ldr	r2, [pc, #44]	@ (10005af0 <_ZN5CLOCK6setBPMEt+0x34>)
10005ac4:	ebc3 1303 	rsb	r3, r3, r3, lsl #4
10005ac8:	011b      	lsls	r3, r3, #4
10005aca:	fbb3 f3f0 	udiv	r3, r3, r0
10005ace:	7812      	ldrb	r2, [r2, #0]
10005ad0:	4d08      	ldr	r5, [pc, #32]	@ (10005af4 <_ZN5CLOCK6setBPMEt+0x38>)
10005ad2:	fbb3 f2f2 	udiv	r2, r3, r2
10005ad6:	4e08      	ldr	r6, [pc, #32]	@ (10005af8 <_ZN5CLOCK6setBPMEt+0x3c>)
10005ad8:	4c08      	ldr	r4, [pc, #32]	@ (10005afc <_ZN5CLOCK6setBPMEt+0x40>)
10005ada:	8030      	strh	r0, [r6, #0]
10005adc:	fba5 0303 	umull	r0, r3, r5, r3
10005ae0:	4907      	ldr	r1, [pc, #28]	@ (10005b00 <_ZN5CLOCK6setBPMEt+0x44>)
10005ae2:	099b      	lsrs	r3, r3, #6
10005ae4:	6022      	str	r2, [r4, #0]
10005ae6:	600b      	str	r3, [r1, #0]
10005ae8:	bc70      	pop	{r4, r5, r6}
10005aea:	4770      	bx	lr
10005aec:	2002cd8c 	.word	0x2002cd8c
10005af0:	200010e6 	.word	0x200010e6
10005af4:	aaaaaaab 	.word	0xaaaaaaab
10005af8:	200010e8 	.word	0x200010e8
10005afc:	2002cd9c 	.word	0x2002cd9c
10005b00:	2002cd98 	.word	0x2002cd98

10005b04 <_ZN5CLOCK11setDivisionEh>:
10005b04:	b410      	push	{r4}
10005b06:	280c      	cmp	r0, #12
10005b08:	d842      	bhi.n	10005b90 <_ZN5CLOCK11setDivisionEh+0x8c>
10005b0a:	e8df f000 	tbb	[pc, r0]
10005b0e:	211e      	.short	0x211e
10005b10:	2d2a2724 	.word	0x2d2a2724
10005b14:	39363330 	.word	0x39363330
10005b18:	3f3c      	.short	0x3f3c
10005b1a:	07          	.byte	0x07
10005b1b:	00          	.byte	0x00
10005b1c:	2354      	movs	r3, #84	@ 0x54
10005b1e:	2101      	movs	r1, #1
10005b20:	4618      	mov	r0, r3
10005b22:	4c1d      	ldr	r4, [pc, #116]	@ (10005b98 <_ZN5CLOCK11setDivisionEh+0x94>)
10005b24:	4a1d      	ldr	r2, [pc, #116]	@ (10005b9c <_ZN5CLOCK11setDivisionEh+0x98>)
10005b26:	7023      	strb	r3, [r4, #0]
10005b28:	7011      	strb	r1, [r2, #0]
10005b2a:	491d      	ldr	r1, [pc, #116]	@ (10005ba0 <_ZN5CLOCK11setDivisionEh+0x9c>)
10005b2c:	4a1d      	ldr	r2, [pc, #116]	@ (10005ba4 <_ZN5CLOCK11setDivisionEh+0xa0>)
10005b2e:	680b      	ldr	r3, [r1, #0]
10005b30:	8812      	ldrh	r2, [r2, #0]
10005b32:	ebc3 1303 	rsb	r3, r3, r3, lsl #4
10005b36:	011b      	lsls	r3, r3, #4
10005b38:	fbb3 f3f2 	udiv	r3, r3, r2
10005b3c:	fbb3 f3f0 	udiv	r3, r3, r0
10005b40:	4a19      	ldr	r2, [pc, #100]	@ (10005ba8 <_ZN5CLOCK11setDivisionEh+0xa4>)
10005b42:	f85d 4b04 	ldr.w	r4, [sp], #4
10005b46:	6013      	str	r3, [r2, #0]
10005b48:	4770      	bx	lr
10005b4a:	2301      	movs	r3, #1
10005b4c:	2160      	movs	r1, #96	@ 0x60
10005b4e:	e7e7      	b.n	10005b20 <_ZN5CLOCK11setDivisionEh+0x1c>
10005b50:	2302      	movs	r3, #2
10005b52:	2130      	movs	r1, #48	@ 0x30
10005b54:	e7e4      	b.n	10005b20 <_ZN5CLOCK11setDivisionEh+0x1c>
10005b56:	2303      	movs	r3, #3
10005b58:	2120      	movs	r1, #32
10005b5a:	e7e1      	b.n	10005b20 <_ZN5CLOCK11setDivisionEh+0x1c>
10005b5c:	2304      	movs	r3, #4
10005b5e:	2118      	movs	r1, #24
10005b60:	e7de      	b.n	10005b20 <_ZN5CLOCK11setDivisionEh+0x1c>
10005b62:	2306      	movs	r3, #6
10005b64:	2110      	movs	r1, #16
10005b66:	e7db      	b.n	10005b20 <_ZN5CLOCK11setDivisionEh+0x1c>
10005b68:	2308      	movs	r3, #8
10005b6a:	210c      	movs	r1, #12
10005b6c:	e7d8      	b.n	10005b20 <_ZN5CLOCK11setDivisionEh+0x1c>
10005b6e:	230c      	movs	r3, #12
10005b70:	2108      	movs	r1, #8
10005b72:	e7d5      	b.n	10005b20 <_ZN5CLOCK11setDivisionEh+0x1c>
10005b74:	2310      	movs	r3, #16
10005b76:	2106      	movs	r1, #6
10005b78:	e7d2      	b.n	10005b20 <_ZN5CLOCK11setDivisionEh+0x1c>
10005b7a:	2318      	movs	r3, #24
10005b7c:	2104      	movs	r1, #4
10005b7e:	e7cf      	b.n	10005b20 <_ZN5CLOCK11setDivisionEh+0x1c>
10005b80:	2320      	movs	r3, #32
10005b82:	2103      	movs	r1, #3
10005b84:	e7cc      	b.n	10005b20 <_ZN5CLOCK11setDivisionEh+0x1c>
10005b86:	2330      	movs	r3, #48	@ 0x30
10005b88:	2102      	movs	r1, #2
10005b8a:	e7c9      	b.n	10005b20 <_ZN5CLOCK11setDivisionEh+0x1c>
10005b8c:	2340      	movs	r3, #64	@ 0x40
10005b8e:	e7c6      	b.n	10005b1e <_ZN5CLOCK11setDivisionEh+0x1a>
10005b90:	4b01      	ldr	r3, [pc, #4]	@ (10005b98 <_ZN5CLOCK11setDivisionEh+0x94>)
10005b92:	7818      	ldrb	r0, [r3, #0]
10005b94:	e7c9      	b.n	10005b2a <_ZN5CLOCK11setDivisionEh+0x26>
10005b96:	bf00      	nop
10005b98:	200010e6 	.word	0x200010e6
10005b9c:	200010e5 	.word	0x200010e5
10005ba0:	2002cd8c 	.word	0x2002cd8c
10005ba4:	200010e8 	.word	0x200010e8
10005ba8:	2002cd9c 	.word	0x2002cd9c

10005bac <_ZN5CLOCK17internalClockTickEv>:
10005bac:	4a12      	ldr	r2, [pc, #72]	@ (10005bf8 <_ZN5CLOCK17internalClockTickEv+0x4c>)
10005bae:	4913      	ldr	r1, [pc, #76]	@ (10005bfc <_ZN5CLOCK17internalClockTickEv+0x50>)
10005bb0:	6813      	ldr	r3, [r2, #0]
10005bb2:	6809      	ldr	r1, [r1, #0]
10005bb4:	3301      	adds	r3, #1
10005bb6:	428b      	cmp	r3, r1
10005bb8:	b510      	push	{r4, lr}
10005bba:	6013      	str	r3, [r2, #0]
10005bbc:	d304      	bcc.n	10005bc8 <_ZN5CLOCK17internalClockTickEv+0x1c>
10005bbe:	4b10      	ldr	r3, [pc, #64]	@ (10005c00 <_ZN5CLOCK17internalClockTickEv+0x54>)
10005bc0:	781b      	ldrb	r3, [r3, #0]
10005bc2:	b183      	cbz	r3, 10005be6 <_ZN5CLOCK17internalClockTickEv+0x3a>
10005bc4:	2300      	movs	r3, #0
10005bc6:	6013      	str	r3, [r2, #0]
10005bc8:	4c0e      	ldr	r4, [pc, #56]	@ (10005c04 <_ZN5CLOCK17internalClockTickEv+0x58>)
10005bca:	4a0f      	ldr	r2, [pc, #60]	@ (10005c08 <_ZN5CLOCK17internalClockTickEv+0x5c>)
10005bcc:	8823      	ldrh	r3, [r4, #0]
10005bce:	6812      	ldr	r2, [r2, #0]
10005bd0:	3301      	adds	r3, #1
10005bd2:	b29b      	uxth	r3, r3
10005bd4:	4293      	cmp	r3, r2
10005bd6:	8023      	strh	r3, [r4, #0]
10005bd8:	d304      	bcc.n	10005be4 <_ZN5CLOCK17internalClockTickEv+0x38>
10005bda:	4b09      	ldr	r3, [pc, #36]	@ (10005c00 <_ZN5CLOCK17internalClockTickEv+0x54>)
10005bdc:	781b      	ldrb	r3, [r3, #0]
10005bde:	b133      	cbz	r3, 10005bee <_ZN5CLOCK17internalClockTickEv+0x42>
10005be0:	2300      	movs	r3, #0
10005be2:	8023      	strh	r3, [r4, #0]
10005be4:	bd10      	pop	{r4, pc}
10005be6:	2101      	movs	r1, #1
10005be8:	4b08      	ldr	r3, [pc, #32]	@ (10005c0c <_ZN5CLOCK17internalClockTickEv+0x60>)
10005bea:	7019      	strb	r1, [r3, #0]
10005bec:	e7ea      	b.n	10005bc4 <_ZN5CLOCK17internalClockTickEv+0x18>
10005bee:	f7fe fb55 	bl	1000429c <_ZN4MIDI15toggleClockFlagEv>
10005bf2:	2300      	movs	r3, #0
10005bf4:	8023      	strh	r3, [r4, #0]
10005bf6:	e7f5      	b.n	10005be4 <_ZN5CLOCK17internalClockTickEv+0x38>
10005bf8:	2002cda0 	.word	0x2002cda0
10005bfc:	2002cd9c 	.word	0x2002cd9c
10005c00:	2003002f 	.word	0x2003002f
10005c04:	20030000 	.word	0x20030000
10005c08:	2002cd98 	.word	0x2002cd98
10005c0c:	2003002e 	.word	0x2003002e

10005c10 <_ZN5CLOCK12getClockTickEv>:
10005c10:	4b01      	ldr	r3, [pc, #4]	@ (10005c18 <_ZN5CLOCK12getClockTickEv+0x8>)
10005c12:	6818      	ldr	r0, [r3, #0]
10005c14:	4770      	bx	lr
10005c16:	bf00      	nop
10005c18:	2002cda0 	.word	0x2002cda0

10005c1c <_ZN5CLOCK21getSamplesPerDivisionEv>:
10005c1c:	4b01      	ldr	r3, [pc, #4]	@ (10005c24 <_ZN5CLOCK21getSamplesPerDivisionEv+0x8>)
10005c1e:	6818      	ldr	r0, [r3, #0]
10005c20:	4770      	bx	lr
10005c22:	bf00      	nop
10005c24:	2002cd9c 	.word	0x2002cd9c

10005c28 <_ZN5CLOCK6updateEv>:
10005c28:	4a07      	ldr	r2, [pc, #28]	@ (10005c48 <_ZN5CLOCK6updateEv+0x20>)
10005c2a:	7813      	ldrb	r3, [r2, #0]
10005c2c:	b153      	cbz	r3, 10005c44 <_ZN5CLOCK6updateEv+0x1c>
10005c2e:	f247 316b 	movw	r1, #29547	@ 0x736b
10005c32:	4b06      	ldr	r3, [pc, #24]	@ (10005c4c <_ZN5CLOCK6updateEv+0x24>)
10005c34:	4806      	ldr	r0, [pc, #24]	@ (10005c50 <_ZN5CLOCK6updateEv+0x28>)
10005c36:	681b      	ldr	r3, [r3, #0]
10005c38:	6800      	ldr	r0, [r0, #0]
10005c3a:	1a1b      	subs	r3, r3, r0
10005c3c:	428b      	cmp	r3, r1
10005c3e:	bf84      	itt	hi
10005c40:	2300      	movhi	r3, #0
10005c42:	7013      	strbhi	r3, [r2, #0]
10005c44:	4770      	bx	lr
10005c46:	bf00      	nop
10005c48:	2003002f 	.word	0x2003002f
10005c4c:	2002ffcc 	.word	0x2002ffcc
10005c50:	2002cd90 	.word	0x2002cd90

10005c54 <_ZN5CLOCK15getClockChangedEv>:
10005c54:	4b01      	ldr	r3, [pc, #4]	@ (10005c5c <_ZN5CLOCK15getClockChangedEv+0x8>)
10005c56:	7818      	ldrb	r0, [r3, #0]
10005c58:	4770      	bx	lr
10005c5a:	bf00      	nop
10005c5c:	2003002e 	.word	0x2003002e

10005c60 <_ZN5CLOCK17resetClockChangedEv>:
10005c60:	2200      	movs	r2, #0
10005c62:	4b01      	ldr	r3, [pc, #4]	@ (10005c68 <_ZN5CLOCK17resetClockChangedEv+0x8>)
10005c64:	701a      	strb	r2, [r3, #0]
10005c66:	4770      	bx	lr
10005c68:	2003002e 	.word	0x2003002e

10005c6c <_ZN5CLOCK13midiClockTickEv>:
10005c6c:	f04f 0c01 	mov.w	ip, #1
10005c70:	b530      	push	{r4, r5, lr}
10005c72:	490d      	ldr	r1, [pc, #52]	@ (10005ca8 <_ZN5CLOCK13midiClockTickEv+0x3c>)
10005c74:	4b0d      	ldr	r3, [pc, #52]	@ (10005cac <_ZN5CLOCK13midiClockTickEv+0x40>)
10005c76:	480e      	ldr	r0, [pc, #56]	@ (10005cb0 <_ZN5CLOCK13midiClockTickEv+0x44>)
10005c78:	681a      	ldr	r2, [r3, #0]
10005c7a:	4c0e      	ldr	r4, [pc, #56]	@ (10005cb4 <_ZN5CLOCK13midiClockTickEv+0x48>)
10005c7c:	780b      	ldrb	r3, [r1, #0]
10005c7e:	4d0e      	ldr	r5, [pc, #56]	@ (10005cb8 <_ZN5CLOCK13midiClockTickEv+0x4c>)
10005c80:	4463      	add	r3, ip
10005c82:	f895 e000 	ldrb.w	lr, [r5]
10005c86:	f884 c000 	strb.w	ip, [r4]
10005c8a:	6804      	ldr	r4, [r0, #0]
10005c8c:	b2db      	uxtb	r3, r3
10005c8e:	6002      	str	r2, [r0, #0]
10005c90:	480a      	ldr	r0, [pc, #40]	@ (10005cbc <_ZN5CLOCK13midiClockTickEv+0x50>)
10005c92:	1b12      	subs	r2, r2, r4
10005c94:	459e      	cmp	lr, r3
10005c96:	700b      	strb	r3, [r1, #0]
10005c98:	6002      	str	r2, [r0, #0]
10005c9a:	d804      	bhi.n	10005ca6 <_ZN5CLOCK13midiClockTickEv+0x3a>
10005c9c:	2300      	movs	r3, #0
10005c9e:	4a08      	ldr	r2, [pc, #32]	@ (10005cc0 <_ZN5CLOCK13midiClockTickEv+0x54>)
10005ca0:	700b      	strb	r3, [r1, #0]
10005ca2:	f882 c000 	strb.w	ip, [r2]
10005ca6:	bd30      	pop	{r4, r5, pc}
10005ca8:	20030030 	.word	0x20030030
10005cac:	2002ffcc 	.word	0x2002ffcc
10005cb0:	2002cd90 	.word	0x2002cd90
10005cb4:	2003002f 	.word	0x2003002f
10005cb8:	200010e5 	.word	0x200010e5
10005cbc:	2002cd94 	.word	0x2002cd94
10005cc0:	2003002e 	.word	0x2003002e

10005cc4 <_ZN5CLOCK14startMidiClockEv>:
10005cc4:	2301      	movs	r3, #1
10005cc6:	2000      	movs	r0, #0
10005cc8:	b410      	push	{r4}
10005cca:	4904      	ldr	r1, [pc, #16]	@ (10005cdc <_ZN5CLOCK14startMidiClockEv+0x18>)
10005ccc:	4c04      	ldr	r4, [pc, #16]	@ (10005ce0 <_ZN5CLOCK14startMidiClockEv+0x1c>)
10005cce:	4a05      	ldr	r2, [pc, #20]	@ (10005ce4 <_ZN5CLOCK14startMidiClockEv+0x20>)
10005cd0:	7023      	strb	r3, [r4, #0]
10005cd2:	6008      	str	r0, [r1, #0]
10005cd4:	f85d 4b04 	ldr.w	r4, [sp], #4
10005cd8:	7013      	strb	r3, [r2, #0]
10005cda:	4770      	bx	lr
10005cdc:	2002cda0 	.word	0x2002cda0
10005ce0:	2003002f 	.word	0x2003002f
10005ce4:	2003002e 	.word	0x2003002e

10005ce8 <_ZN5CLOCK13stopMidiClockEv>:
10005ce8:	2300      	movs	r3, #0
10005cea:	2101      	movs	r1, #1
10005cec:	b410      	push	{r4}
10005cee:	4804      	ldr	r0, [pc, #16]	@ (10005d00 <_ZN5CLOCK13stopMidiClockEv+0x18>)
10005cf0:	4c04      	ldr	r4, [pc, #16]	@ (10005d04 <_ZN5CLOCK13stopMidiClockEv+0x1c>)
10005cf2:	4a05      	ldr	r2, [pc, #20]	@ (10005d08 <_ZN5CLOCK13stopMidiClockEv+0x20>)
10005cf4:	7023      	strb	r3, [r4, #0]
10005cf6:	6003      	str	r3, [r0, #0]
10005cf8:	f85d 4b04 	ldr.w	r4, [sp], #4
10005cfc:	7011      	strb	r1, [r2, #0]
10005cfe:	4770      	bx	lr
10005d00:	2002cda0 	.word	0x2002cda0
10005d04:	2003002f 	.word	0x2003002f
10005d08:	2003002e 	.word	0x2003002e

10005d0c <_ZN5CLOCK17midiClockPositionEt>:
10005d0c:	4770      	bx	lr
10005d0e:	bf00      	nop

10005d10 <_GLOBAL__sub_I__ZN5CLOCK4initEv>:
10005d10:	2200      	movs	r2, #0
10005d12:	f46f 437e 	mvn.w	r3, #65024	@ 0xfe00
10005d16:	492e      	ldr	r1, [pc, #184]	@ (10005dd0 <_GLOBAL__sub_I__ZN5CLOCK4initEv+0xc0>)
10005d18:	482e      	ldr	r0, [pc, #184]	@ (10005dd4 <_GLOBAL__sub_I__ZN5CLOCK4initEv+0xc4>)
10005d1a:	b570      	push	{r4, r5, r6, lr}
10005d1c:	f04f 0c04 	mov.w	ip, #4
10005d20:	f64a 4544 	movw	r5, #44100	@ 0xac44
10005d24:	f64f 74ff 	movw	r4, #65535	@ 0xffff
10005d28:	e9c1 2306 	strd	r2, r3, [r1, #24]
10005d2c:	e9c1 2309 	strd	r2, r3, [r1, #36]	@ 0x24
10005d30:	e9c1 230c 	strd	r2, r3, [r1, #48]	@ 0x30
10005d34:	4603      	mov	r3, r0
10005d36:	600d      	str	r5, [r1, #0]
10005d38:	f8a1 4040 	strh.w	r4, [r1, #64]	@ 0x40
10005d3c:	82ca      	strh	r2, [r1, #22]
10005d3e:	844a      	strh	r2, [r1, #34]	@ 0x22
10005d40:	85ca      	strh	r2, [r1, #46]	@ 0x2e
10005d42:	870a      	strh	r2, [r1, #56]	@ 0x38
10005d44:	eb01 060c 	add.w	r6, r1, ip
10005d48:	f101 0508 	add.w	r5, r1, #8
10005d4c:	f101 040c 	add.w	r4, r1, #12
10005d50:	f500 7ef0 	add.w	lr, r0, #480	@ 0x1e0
10005d54:	3110      	adds	r1, #16
10005d56:	f883 c020 	strb.w	ip, [r3, #32]
10005d5a:	f883 2024 	strb.w	r2, [r3, #36]	@ 0x24
10005d5e:	f883 2026 	strb.w	r2, [r3, #38]	@ 0x26
10005d62:	f883 2027 	strb.w	r2, [r3, #39]	@ 0x27
10005d66:	f883 2028 	strb.w	r2, [r3, #40]	@ 0x28
10005d6a:	e9c3 6500 	strd	r6, r5, [r3]
10005d6e:	e9c3 4102 	strd	r4, r1, [r3, #8]
10005d72:	e9c3 2204 	strd	r2, r2, [r3, #16]
10005d76:	e9c3 2206 	strd	r2, r2, [r3, #24]
10005d7a:	e9c3 220b 	strd	r2, r2, [r3, #44]	@ 0x2c
10005d7e:	e9c3 220d 	strd	r2, r2, [r3, #52]	@ 0x34
10005d82:	333c      	adds	r3, #60	@ 0x3c
10005d84:	459e      	cmp	lr, r3
10005d86:	d1e6      	bne.n	10005d56 <_GLOBAL__sub_I__ZN5CLOCK4initEv+0x46>
10005d88:	2403      	movs	r4, #3
10005d8a:	f8c0 21e0 	str.w	r2, [r0, #480]	@ 0x1e0
10005d8e:	f880 2024 	strb.w	r2, [r0, #36]	@ 0x24
10005d92:	2206      	movs	r2, #6
10005d94:	2301      	movs	r3, #1
10005d96:	2102      	movs	r1, #2
10005d98:	2505      	movs	r5, #5
10005d9a:	f880 40d8 	strb.w	r4, [r0, #216]	@ 0xd8
10005d9e:	2407      	movs	r4, #7
10005da0:	f880 218c 	strb.w	r2, [r0, #396]	@ 0x18c
10005da4:	2200      	movs	r2, #0
10005da6:	f880 3060 	strb.w	r3, [r0, #96]	@ 0x60
10005daa:	f880 109c 	strb.w	r1, [r0, #156]	@ 0x9c
10005dae:	4b0a      	ldr	r3, [pc, #40]	@ (10005dd8 <_GLOBAL__sub_I__ZN5CLOCK4initEv+0xc8>)
10005db0:	490a      	ldr	r1, [pc, #40]	@ (10005ddc <_GLOBAL__sub_I__ZN5CLOCK4initEv+0xcc>)
10005db2:	f880 c114 	strb.w	ip, [r0, #276]	@ 0x114
10005db6:	f880 5150 	strb.w	r5, [r0, #336]	@ 0x150
10005dba:	f880 41c8 	strb.w	r4, [r0, #456]	@ 0x1c8
10005dbe:	f883 2103 	strb.w	r2, [r3, #259]	@ 0x103
10005dc2:	701a      	strb	r2, [r3, #0]
10005dc4:	f203 1305 	addw	r3, r3, #261	@ 0x105
10005dc8:	428b      	cmp	r3, r1
10005dca:	d1f8      	bne.n	10005dbe <_GLOBAL__sub_I__ZN5CLOCK4initEv+0xae>
10005dcc:	bd70      	pop	{r4, r5, r6, pc}
10005dce:	bf00      	nop
10005dd0:	2002d028 	.word	0x2002d028
10005dd4:	2002e23c 	.word	0x2002e23c
10005dd8:	200248f8 	.word	0x200248f8
10005ddc:	20028a38 	.word	0x20028a38

10005de0 <_ZN6FILTER4initEv>:
10005de0:	b570      	push	{r4, r5, r6, lr}
10005de2:	2500      	movs	r5, #0
10005de4:	462e      	mov	r6, r5
10005de6:	4c07      	ldr	r4, [pc, #28]	@ (10005e04 <_ZN6FILTER4initEv+0x24>)
10005de8:	f884 5024 	strb.w	r5, [r4, #36]	@ 0x24
10005dec:	4620      	mov	r0, r4
10005dee:	3501      	adds	r5, #1
10005df0:	e9c4 660b 	strd	r6, r6, [r4, #44]	@ 0x2c
10005df4:	f7ff f834 	bl	10004e60 <_ZN4ADSR8Envelope7stoppedEv>
10005df8:	2d08      	cmp	r5, #8
10005dfa:	f104 0438 	add.w	r4, r4, #56	@ 0x38
10005dfe:	d1f3      	bne.n	10005de8 <_ZN6FILTER4initEv+0x8>
10005e00:	bd70      	pop	{r4, r5, r6, pc}
10005e02:	bf00      	nop
10005e04:	2002e9e0 	.word	0x2002e9e0

10005e08 <_ZN6FILTER9setAttackEt>:
10005e08:	4a05      	ldr	r2, [pc, #20]	@ (10005e20 <_ZN6FILTER9setAttackEt+0x18>)
10005e0a:	0080      	lsls	r0, r0, #2
10005e0c:	6813      	ldr	r3, [r2, #0]
10005e0e:	4905      	ldr	r1, [pc, #20]	@ (10005e24 <_ZN6FILTER9setAttackEt+0x1c>)
10005e10:	fb00 3303 	mla	r3, r0, r3, r3
10005e14:	fba1 1303 	umull	r1, r3, r1, r3
10005e18:	099b      	lsrs	r3, r3, #6
10005e1a:	6053      	str	r3, [r2, #4]
10005e1c:	4770      	bx	lr
10005e1e:	bf00      	nop
10005e20:	2002eba0 	.word	0x2002eba0
10005e24:	10624dd3 	.word	0x10624dd3

10005e28 <_ZN6FILTER8setDecayEt>:
10005e28:	4a05      	ldr	r2, [pc, #20]	@ (10005e40 <_ZN6FILTER8setDecayEt+0x18>)
10005e2a:	0080      	lsls	r0, r0, #2
10005e2c:	6813      	ldr	r3, [r2, #0]
10005e2e:	4905      	ldr	r1, [pc, #20]	@ (10005e44 <_ZN6FILTER8setDecayEt+0x1c>)
10005e30:	fb00 3303 	mla	r3, r0, r3, r3
10005e34:	fba1 1303 	umull	r1, r3, r1, r3
10005e38:	099b      	lsrs	r3, r3, #6
10005e3a:	6093      	str	r3, [r2, #8]
10005e3c:	4770      	bx	lr
10005e3e:	bf00      	nop
10005e40:	2002eba0 	.word	0x2002eba0
10005e44:	10624dd3 	.word	0x10624dd3

10005e48 <_ZN6FILTER10setSustainEt>:
10005e48:	4b01      	ldr	r3, [pc, #4]	@ (10005e50 <_ZN6FILTER10setSustainEt+0x8>)
10005e4a:	0180      	lsls	r0, r0, #6
10005e4c:	60d8      	str	r0, [r3, #12]
10005e4e:	4770      	bx	lr
10005e50:	2002eba0 	.word	0x2002eba0

10005e54 <_ZN6FILTER10setReleaseEt>:
10005e54:	4a05      	ldr	r2, [pc, #20]	@ (10005e6c <_ZN6FILTER10setReleaseEt+0x18>)
10005e56:	0080      	lsls	r0, r0, #2
10005e58:	6813      	ldr	r3, [r2, #0]
10005e5a:	4905      	ldr	r1, [pc, #20]	@ (10005e70 <_ZN6FILTER10setReleaseEt+0x1c>)
10005e5c:	fb00 3303 	mla	r3, r0, r3, r3
10005e60:	fba1 1303 	umull	r1, r3, r1, r3
10005e64:	099b      	lsrs	r3, r3, #6
10005e66:	6113      	str	r3, [r2, #16]
10005e68:	4770      	bx	lr
10005e6a:	bf00      	nop
10005e6c:	2002eba0 	.word	0x2002eba0
10005e70:	10624dd3 	.word	0x10624dd3

10005e74 <_ZN6FILTER13triggerAttackEh>:
10005e74:	2101      	movs	r1, #1
10005e76:	4a05      	ldr	r2, [pc, #20]	@ (10005e8c <_ZN6FILTER13triggerAttackEh+0x18>)
10005e78:	ebc0 03c0 	rsb	r3, r0, r0, lsl #3
10005e7c:	eb02 03c3 	add.w	r3, r2, r3, lsl #3
10005e80:	4618      	mov	r0, r3
10005e82:	f883 1034 	strb.w	r1, [r3, #52]	@ 0x34
10005e86:	f7fe bfc9 	b.w	10004e1c <_ZN4ADSR8Envelope13triggerAttackEv>
10005e8a:	bf00      	nop
10005e8c:	2002e9e0 	.word	0x2002e9e0

10005e90 <_ZN6FILTER14triggerReleaseEh>:
10005e90:	4b03      	ldr	r3, [pc, #12]	@ (10005ea0 <_ZN6FILTER14triggerReleaseEh+0x10>)
10005e92:	ebc0 00c0 	rsb	r0, r0, r0, lsl #3
10005e96:	eb03 00c0 	add.w	r0, r3, r0, lsl #3
10005e9a:	f7fe bfcf 	b.w	10004e3c <_ZN4ADSR8Envelope14triggerReleaseEv>
10005e9e:	bf00      	nop
10005ea0:	2002e9e0 	.word	0x2002e9e0

10005ea4 <_ZN6FILTER6updateEh>:
10005ea4:	4b03      	ldr	r3, [pc, #12]	@ (10005eb4 <_ZN6FILTER6updateEh+0x10>)
10005ea6:	ebc0 00c0 	rsb	r0, r0, r0, lsl #3
10005eaa:	eb03 00c0 	add.w	r0, r3, r0, lsl #3
10005eae:	f7fe bfe1 	b.w	10004e74 <_ZN4ADSR8Envelope6updateEv>
10005eb2:	bf00      	nop
10005eb4:	2002e9e0 	.word	0x2002e9e0

10005eb8 <_ZN6FILTER7processEhRl>:
10005eb8:	e92d 43f8 	stmdb	sp!, {r3, r4, r5, r6, r7, r8, r9, lr}
10005ebc:	4b4c      	ldr	r3, [pc, #304]	@ (10005ff0 <_ZN6FILTER7processEhRl+0x138>)
10005ebe:	781b      	ldrb	r3, [r3, #0]
10005ec0:	b90b      	cbnz	r3, 10005ec6 <_ZN6FILTER7processEhRl+0xe>
10005ec2:	e8bd 83f8 	ldmia.w	sp!, {r3, r4, r5, r6, r7, r8, r9, pc}
10005ec6:	f8df 8144 	ldr.w	r8, [pc, #324]	@ 1000600c <_ZN6FILTER7processEhRl+0x154>
10005eca:	f8d8 3000 	ldr.w	r3, [r8]
10005ece:	2b00      	cmp	r3, #0
10005ed0:	d0f7      	beq.n	10005ec2 <_ZN6FILTER7processEhRl+0xa>
10005ed2:	4f48      	ldr	r7, [pc, #288]	@ (10005ff4 <_ZN6FILTER7processEhRl+0x13c>)
10005ed4:	ebc0 02c0 	rsb	r2, r0, r0, lsl #3
10005ed8:	ea4f 09c2 	mov.w	r9, r2, lsl #3
10005edc:	eb07 02c2 	add.w	r2, r7, r2, lsl #3
10005ee0:	f892 3020 	ldrb.w	r3, [r2, #32]
10005ee4:	460d      	mov	r5, r1
10005ee6:	2b04      	cmp	r3, #4
10005ee8:	d051      	beq.n	10005f8e <_ZN6FILTER7processEhRl+0xd6>
10005eea:	00c4      	lsls	r4, r0, #3
10005eec:	4b42      	ldr	r3, [pc, #264]	@ (10005ff8 <_ZN6FILTER7processEhRl+0x140>)
10005eee:	681b      	ldr	r3, [r3, #0]
10005ef0:	2b00      	cmp	r3, #0
10005ef2:	d15f      	bne.n	10005fb4 <_ZN6FILTER7processEhRl+0xfc>
10005ef4:	4b41      	ldr	r3, [pc, #260]	@ (10005ffc <_ZN6FILTER7processEhRl+0x144>)
10005ef6:	6819      	ldr	r1, [r3, #0]
10005ef8:	6993      	ldr	r3, [r2, #24]
10005efa:	0a1b      	lsrs	r3, r3, #8
10005efc:	fb01 f303 	mul.w	r3, r1, r3
10005f00:	1a21      	subs	r1, r4, r0
10005f02:	0c1b      	lsrs	r3, r3, #16
10005f04:	eb07 01c1 	add.w	r1, r7, r1, lsl #3
10005f08:	628b      	str	r3, [r1, #40]	@ 0x28
10005f0a:	f245 6122 	movw	r1, #22050	@ 0x5622
10005f0e:	4e3c      	ldr	r6, [pc, #240]	@ (10006000 <_ZN6FILTER7processEhRl+0x148>)
10005f10:	6992      	ldr	r2, [r2, #24]
10005f12:	f9b6 6000 	ldrsh.w	r6, [r6]
10005f16:	0a12      	lsrs	r2, r2, #8
10005f18:	fb06 3302 	mla	r3, r6, r2, r3
10005f1c:	4a39      	ldr	r2, [pc, #228]	@ (10006004 <_ZN6FILTER7processEhRl+0x14c>)
10005f1e:	6812      	ldr	r2, [r2, #0]
10005f20:	eb02 2353 	add.w	r3, r2, r3, lsr #9
10005f24:	428b      	cmp	r3, r1
10005f26:	d83f      	bhi.n	10005fa8 <_ZN6FILTER7processEhRl+0xf0>
10005f28:	1a22      	subs	r2, r4, r0
10005f2a:	eb07 02c2 	add.w	r2, r7, r2, lsl #3
10005f2e:	6293      	str	r3, [r2, #40]	@ 0x28
10005f30:	1a20      	subs	r0, r4, r0
10005f32:	eb07 04c0 	add.w	r4, r7, r0, lsl #3
10005f36:	6b26      	ldr	r6, [r4, #48]	@ 0x30
10005f38:	4a33      	ldr	r2, [pc, #204]	@ (10006008 <_ZN6FILTER7processEhRl+0x150>)
10005f3a:	fb06 f303 	mul.w	r3, r6, r3
10005f3e:	6812      	ldr	r2, [r2, #0]
10005f40:	6ae1      	ldr	r1, [r4, #44]	@ 0x2c
10005f42:	fb06 f202 	mul.w	r2, r6, r2
10005f46:	eb01 33e3 	add.w	r3, r1, r3, asr #15
10005f4a:	682e      	ldr	r6, [r5, #0]
10005f4c:	f109 002c 	add.w	r0, r9, #44	@ 0x2c
10005f50:	62e3      	str	r3, [r4, #44]	@ 0x2c
10005f52:	4438      	add	r0, r7
10005f54:	eba6 36e2 	sub.w	r6, r6, r2, asr #15
10005f58:	f000 f90e 	bl	10006178 <_ZN2FX8HARDCLIP7processERl>
10005f5c:	6ae3      	ldr	r3, [r4, #44]	@ 0x2c
10005f5e:	f109 0030 	add.w	r0, r9, #48	@ 0x30
10005f62:	1af6      	subs	r6, r6, r3
10005f64:	6aa3      	ldr	r3, [r4, #40]	@ 0x28
10005f66:	4438      	add	r0, r7
10005f68:	fb03 f206 	mul.w	r2, r3, r6
10005f6c:	6b23      	ldr	r3, [r4, #48]	@ 0x30
10005f6e:	eb03 33e2 	add.w	r3, r3, r2, asr #15
10005f72:	6323      	str	r3, [r4, #48]	@ 0x30
10005f74:	f000 f900 	bl	10006178 <_ZN2FX8HARDCLIP7processERl>
10005f78:	f8d8 3000 	ldr.w	r3, [r8]
10005f7c:	2b02      	cmp	r3, #2
10005f7e:	d02e      	beq.n	10005fde <_ZN6FILTER7processEhRl+0x126>
10005f80:	2b03      	cmp	r3, #3
10005f82:	d02a      	beq.n	10005fda <_ZN6FILTER7processEhRl+0x122>
10005f84:	2b01      	cmp	r3, #1
10005f86:	d19c      	bne.n	10005ec2 <_ZN6FILTER7processEhRl+0xa>
10005f88:	6ae3      	ldr	r3, [r4, #44]	@ 0x2c
10005f8a:	602b      	str	r3, [r5, #0]
10005f8c:	e799      	b.n	10005ec2 <_ZN6FILTER7processEhRl+0xa>
10005f8e:	ebc0 03c0 	rsb	r3, r0, r0, lsl #3
10005f92:	eb07 03c3 	add.w	r3, r7, r3, lsl #3
10005f96:	f893 1034 	ldrb.w	r1, [r3, #52]	@ 0x34
10005f9a:	00c4      	lsls	r4, r0, #3
10005f9c:	2900      	cmp	r1, #0
10005f9e:	d0a5      	beq.n	10005eec <_ZN6FILTER7processEhRl+0x34>
10005fa0:	2100      	movs	r1, #0
10005fa2:	f883 1034 	strb.w	r1, [r3, #52]	@ 0x34
10005fa6:	e7a1      	b.n	10005eec <_ZN6FILTER7processEhRl+0x34>
10005fa8:	1a23      	subs	r3, r4, r0
10005faa:	eb07 03c3 	add.w	r3, r7, r3, lsl #3
10005fae:	6299      	str	r1, [r3, #40]	@ 0x28
10005fb0:	460b      	mov	r3, r1
10005fb2:	e7bd      	b.n	10005f30 <_ZN6FILTER7processEhRl+0x78>
10005fb4:	2b01      	cmp	r3, #1
10005fb6:	d115      	bne.n	10005fe4 <_ZN6FILTER7processEhRl+0x12c>
10005fb8:	f245 6c22 	movw	ip, #22050	@ 0x5622
10005fbc:	4b0f      	ldr	r3, [pc, #60]	@ (10005ffc <_ZN6FILTER7processEhRl+0x144>)
10005fbe:	6991      	ldr	r1, [r2, #24]
10005fc0:	681b      	ldr	r3, [r3, #0]
10005fc2:	0a09      	lsrs	r1, r1, #8
10005fc4:	ebac 0303 	sub.w	r3, ip, r3
10005fc8:	fb01 f303 	mul.w	r3, r1, r3
10005fcc:	1a26      	subs	r6, r4, r0
10005fce:	eb07 06c6 	add.w	r6, r7, r6, lsl #3
10005fd2:	ebac 4313 	sub.w	r3, ip, r3, lsr #16
10005fd6:	62b3      	str	r3, [r6, #40]	@ 0x28
10005fd8:	e797      	b.n	10005f0a <_ZN6FILTER7processEhRl+0x52>
10005fda:	602e      	str	r6, [r5, #0]
10005fdc:	e771      	b.n	10005ec2 <_ZN6FILTER7processEhRl+0xa>
10005fde:	6b23      	ldr	r3, [r4, #48]	@ 0x30
10005fe0:	602b      	str	r3, [r5, #0]
10005fe2:	e76e      	b.n	10005ec2 <_ZN6FILTER7processEhRl+0xa>
10005fe4:	1a23      	subs	r3, r4, r0
10005fe6:	eb07 03c3 	add.w	r3, r7, r3, lsl #3
10005fea:	6a9b      	ldr	r3, [r3, #40]	@ 0x28
10005fec:	e78d      	b.n	10005f0a <_ZN6FILTER7processEhRl+0x52>
10005fee:	bf00      	nop
10005ff0:	20030033 	.word	0x20030033
10005ff4:	2002e9e0 	.word	0x2002e9e0
10005ff8:	2002e9d8 	.word	0x2002e9d8
10005ffc:	2002e9d4 	.word	0x2002e9d4
10006000:	20030002 	.word	0x20030002
10006004:	2002e9cc 	.word	0x2002e9cc
10006008:	2002e9dc 	.word	0x2002e9dc
1000600c:	2002e9d0 	.word	0x2002e9d0

10006010 <_ZN6FILTER8setStateEb>:
10006010:	2200      	movs	r2, #0
10006012:	4b05      	ldr	r3, [pc, #20]	@ (10006028 <_ZN6FILTER8setStateEb+0x18>)
10006014:	f503 71e0 	add.w	r1, r3, #448	@ 0x1c0
10006018:	e9c3 220b 	strd	r2, r2, [r3, #44]	@ 0x2c
1000601c:	3338      	adds	r3, #56	@ 0x38
1000601e:	428b      	cmp	r3, r1
10006020:	d1fa      	bne.n	10006018 <_ZN6FILTER8setStateEb+0x8>
10006022:	4b02      	ldr	r3, [pc, #8]	@ (1000602c <_ZN6FILTER8setStateEb+0x1c>)
10006024:	7018      	strb	r0, [r3, #0]
10006026:	4770      	bx	lr
10006028:	2002e9e0 	.word	0x2002e9e0
1000602c:	20030033 	.word	0x20030033

10006030 <_ZN6FILTER9setCutoffEt>:
10006030:	b508      	push	{r3, lr}
10006032:	f000 fd03 	bl	10006a3c <_Z20exponentialFrequencyt>
10006036:	4b01      	ldr	r3, [pc, #4]	@ (1000603c <_ZN6FILTER9setCutoffEt+0xc>)
10006038:	6018      	str	r0, [r3, #0]
1000603a:	bd08      	pop	{r3, pc}
1000603c:	2002e9d4 	.word	0x2002e9d4

10006040 <_ZN6FILTER12setResonanceEt>:
10006040:	b508      	push	{r3, lr}
10006042:	f000 fd01 	bl	10006a48 <_Z10filterDampt>
10006046:	4b01      	ldr	r3, [pc, #4]	@ (1000604c <_ZN6FILTER12setResonanceEt+0xc>)
10006048:	6018      	str	r0, [r3, #0]
1000604a:	bd08      	pop	{r3, pc}
1000604c:	2002e9dc 	.word	0x2002e9dc

10006050 <_ZN6FILTER7setTypeEt>:
10006050:	0a00      	lsrs	r0, r0, #8
10006052:	2803      	cmp	r0, #3
10006054:	d809      	bhi.n	1000606a <_ZN6FILTER7setTypeEt+0x1a>
10006056:	e8df f000 	tbb	[pc, r0]
1000605a:	1012      	.short	0x1012
1000605c:	0209      	.short	0x0209
1000605e:	2003      	movs	r0, #3
10006060:	2201      	movs	r2, #1
10006062:	4909      	ldr	r1, [pc, #36]	@ (10006088 <_ZN6FILTER7setTypeEt+0x38>)
10006064:	4b09      	ldr	r3, [pc, #36]	@ (1000608c <_ZN6FILTER7setTypeEt+0x3c>)
10006066:	6008      	str	r0, [r1, #0]
10006068:	601a      	str	r2, [r3, #0]
1000606a:	4770      	bx	lr
1000606c:	2002      	movs	r0, #2
1000606e:	2200      	movs	r2, #0
10006070:	4905      	ldr	r1, [pc, #20]	@ (10006088 <_ZN6FILTER7setTypeEt+0x38>)
10006072:	4b06      	ldr	r3, [pc, #24]	@ (1000608c <_ZN6FILTER7setTypeEt+0x3c>)
10006074:	6008      	str	r0, [r1, #0]
10006076:	601a      	str	r2, [r3, #0]
10006078:	4770      	bx	lr
1000607a:	2001      	movs	r0, #1
1000607c:	e7f7      	b.n	1000606e <_ZN6FILTER7setTypeEt+0x1e>
1000607e:	2200      	movs	r2, #0
10006080:	4b01      	ldr	r3, [pc, #4]	@ (10006088 <_ZN6FILTER7setTypeEt+0x38>)
10006082:	601a      	str	r2, [r3, #0]
10006084:	4770      	bx	lr
10006086:	bf00      	nop
10006088:	2002e9d0 	.word	0x2002e9d0
1000608c:	2002e9d8 	.word	0x2002e9d8

10006090 <_ZN6FILTER16setEnvelopeDepthEt>:
10006090:	4b01      	ldr	r3, [pc, #4]	@ (10006098 <_ZN6FILTER16setEnvelopeDepthEt+0x8>)
10006092:	8018      	strh	r0, [r3, #0]
10006094:	4770      	bx	lr
10006096:	bf00      	nop
10006098:	20030002 	.word	0x20030002

1000609c <_ZN6FILTER14modulateCutoffEt>:
1000609c:	4b01      	ldr	r3, [pc, #4]	@ (100060a4 <_ZN6FILTER14modulateCutoffEt+0x8>)
1000609e:	0880      	lsrs	r0, r0, #2
100060a0:	6018      	str	r0, [r3, #0]
100060a2:	4770      	bx	lr
100060a4:	2002e9cc 	.word	0x2002e9cc

100060a8 <_GLOBAL__sub_I__ZN6FILTER6filterE>:
100060a8:	b570      	push	{r4, r5, r6, lr}
100060aa:	f64a 4644 	movw	r6, #44100	@ 0xac44
100060ae:	2200      	movs	r2, #0
100060b0:	f04f 0c04 	mov.w	ip, #4
100060b4:	490c      	ldr	r1, [pc, #48]	@ (100060e8 <_GLOBAL__sub_I__ZN6FILTER6filterE+0x40>)
100060b6:	4b0d      	ldr	r3, [pc, #52]	@ (100060ec <_GLOBAL__sub_I__ZN6FILTER6filterE+0x44>)
100060b8:	f101 0508 	add.w	r5, r1, #8
100060bc:	f101 040c 	add.w	r4, r1, #12
100060c0:	f101 0010 	add.w	r0, r1, #16
100060c4:	f503 7ee0 	add.w	lr, r3, #448	@ 0x1c0
100060c8:	f841 6b04 	str.w	r6, [r1], #4
100060cc:	f883 c020 	strb.w	ip, [r3, #32]
100060d0:	e9c3 1500 	strd	r1, r5, [r3]
100060d4:	e9c3 4002 	strd	r4, r0, [r3, #8]
100060d8:	e9c3 2204 	strd	r2, r2, [r3, #16]
100060dc:	e9c3 2206 	strd	r2, r2, [r3, #24]
100060e0:	3338      	adds	r3, #56	@ 0x38
100060e2:	4573      	cmp	r3, lr
100060e4:	d1f2      	bne.n	100060cc <_GLOBAL__sub_I__ZN6FILTER6filterE+0x24>
100060e6:	bd70      	pop	{r4, r5, r6, pc}
100060e8:	2002eba0 	.word	0x2002eba0
100060ec:	2002e9e0 	.word	0x2002e9e0

100060f0 <_ZN2FX8SOFTCLIP7setGainEt>:
100060f0:	f3c0 1047 	ubfx	r0, r0, #5, #8
100060f4:	b110      	cbz	r0, 100060fc <_ZN2FX8SOFTCLIP7setGainEt+0xc>
100060f6:	4b03      	ldr	r3, [pc, #12]	@ (10006104 <_ZN2FX8SOFTCLIP7setGainEt+0x14>)
100060f8:	7018      	strb	r0, [r3, #0]
100060fa:	4770      	bx	lr
100060fc:	2201      	movs	r2, #1
100060fe:	4b01      	ldr	r3, [pc, #4]	@ (10006104 <_ZN2FX8SOFTCLIP7setGainEt+0x14>)
10006100:	701a      	strb	r2, [r3, #0]
10006102:	4770      	bx	lr
10006104:	200010ea 	.word	0x200010ea

10006108 <_ZN2FX8SOFTCLIP7processERl>:
10006108:	4b17      	ldr	r3, [pc, #92]	@ (10006168 <_ZN2FX8SOFTCLIP7processERl+0x60>)
1000610a:	6802      	ldr	r2, [r0, #0]
1000610c:	781b      	ldrb	r3, [r3, #0]
1000610e:	fb02 f303 	mul.w	r3, r2, r3
10006112:	f5b3 4f00 	cmp.w	r3, #32768	@ 0x8000
10006116:	db03      	blt.n	10006120 <_ZN2FX8SOFTCLIP7processERl+0x18>
10006118:	f647 73ff 	movw	r3, #32767	@ 0x7fff
1000611c:	6003      	str	r3, [r0, #0]
1000611e:	4770      	bx	lr
10006120:	f513 4f00 	cmn.w	r3, #32768	@ 0x8000
10006124:	da02      	bge.n	1000612c <_ZN2FX8SOFTCLIP7processERl+0x24>
10006126:	4b11      	ldr	r3, [pc, #68]	@ (1000616c <_ZN2FX8SOFTCLIP7processERl+0x64>)
10006128:	6003      	str	r3, [r0, #0]
1000612a:	4770      	bx	lr
1000612c:	fb03 f103 	mul.w	r1, r3, r3
10006130:	b410      	push	{r4}
10006132:	4c0f      	ldr	r4, [pc, #60]	@ (10006170 <_ZN2FX8SOFTCLIP7processERl+0x68>)
10006134:	fb84 c201 	smull	ip, r2, r4, r1
10006138:	eb02 0c01 	add.w	ip, r2, r1
1000613c:	17ca      	asrs	r2, r1, #31
1000613e:	ebc2 32ac 	rsb	r2, r2, ip, asr #14
10006142:	fb03 f202 	mul.w	r2, r3, r2
10006146:	fb84 1402 	smull	r1, r4, r4, r2
1000614a:	17d1      	asrs	r1, r2, #31
1000614c:	4422      	add	r2, r4
1000614e:	eb03 0343 	add.w	r3, r3, r3, lsl #1
10006152:	eba1 32a2 	sub.w	r2, r1, r2, asr #14
10006156:	4413      	add	r3, r2
10006158:	eb03 73d3 	add.w	r3, r3, r3, lsr #31
1000615c:	105b      	asrs	r3, r3, #1
1000615e:	f85d 4b04 	ldr.w	r4, [sp], #4
10006162:	6003      	str	r3, [r0, #0]
10006164:	4770      	bx	lr
10006166:	bf00      	nop
10006168:	200010ea 	.word	0x200010ea
1000616c:	ffff8000 	.word	0xffff8000
10006170:	80010003 	.word	0x80010003

10006174 <_ZN2FX8HARDCLIP9process16ERl>:
10006174:	4770      	bx	lr
10006176:	bf00      	nop

10006178 <_ZN2FX8HARDCLIP7processERl>:
10006178:	4770      	bx	lr
1000617a:	bf00      	nop

1000617c <_ZN3MOD10Modulation6updateEv.part.0>:
1000617c:	b530      	push	{r4, r5, lr}
1000617e:	6901      	ldr	r1, [r0, #16]
10006180:	7d03      	ldrb	r3, [r0, #20]
10006182:	780a      	ldrb	r2, [r1, #0]
10006184:	4604      	mov	r4, r0
10006186:	429a      	cmp	r2, r3
10006188:	b083      	sub	sp, #12
1000618a:	d152      	bne.n	10006232 <_ZN3MOD10Modulation6updateEv.part.0+0xb6>
1000618c:	68a2      	ldr	r2, [r4, #8]
1000618e:	69a3      	ldr	r3, [r4, #24]
10006190:	6812      	ldr	r2, [r2, #0]
10006192:	6860      	ldr	r0, [r4, #4]
10006194:	441a      	add	r2, r3
10006196:	f3c2 4307 	ubfx	r3, r2, #16, #8
1000619a:	7723      	strb	r3, [r4, #28]
1000619c:	8800      	ldrh	r0, [r0, #0]
1000619e:	61a2      	str	r2, [r4, #24]
100061a0:	4403      	add	r3, r0
100061a2:	4a5e      	ldr	r2, [pc, #376]	@ (1000631c <_ZN3MOD10Modulation6updateEv.part.0+0x1a0>)
100061a4:	b29b      	uxth	r3, r3
100061a6:	fba2 0203 	umull	r0, r2, r2, r3
100061aa:	0a92      	lsrs	r2, r2, #10
100061ac:	eb02 0242 	add.w	r2, r2, r2, lsl #1
100061b0:	eba3 2342 	sub.w	r3, r3, r2, lsl #9
100061b4:	f3c3 2207 	ubfx	r2, r3, #8, #8
100061b8:	b2db      	uxtb	r3, r3
100061ba:	f8ad 2004 	strh.w	r2, [sp, #4]
100061be:	f8ad 3006 	strh.w	r3, [sp, #6]
100061c2:	f8bd 2004 	ldrh.w	r2, [sp, #4]
100061c6:	4856      	ldr	r0, [pc, #344]	@ (10006320 <_ZN3MOD10Modulation6updateEv.part.0+0x1a4>)
100061c8:	f8bd 3006 	ldrh.w	r3, [sp, #6]
100061cc:	b292      	uxth	r2, r2
100061ce:	f850 2022 	ldr.w	r2, [r0, r2, lsl #2]
100061d2:	b29b      	uxth	r3, r3
100061d4:	f932 0013 	ldrsh.w	r0, [r2, r3, lsl #1]
100061d8:	83e0      	strh	r0, [r4, #30]
100061da:	780b      	ldrb	r3, [r1, #0]
100061dc:	eb04 02c3 	add.w	r2, r4, r3, lsl #3
100061e0:	f892 2025 	ldrb.w	r2, [r2, #37]	@ 0x25
100061e4:	2a01      	cmp	r2, #1
100061e6:	d04f      	beq.n	10006288 <_ZN3MOD10Modulation6updateEv.part.0+0x10c>
100061e8:	2a02      	cmp	r2, #2
100061ea:	d063      	beq.n	100062b4 <_ZN3MOD10Modulation6updateEv.part.0+0x138>
100061ec:	2a00      	cmp	r2, #0
100061ee:	d056      	beq.n	1000629e <_ZN3MOD10Modulation6updateEv.part.0+0x122>
100061f0:	eb04 00c3 	add.w	r0, r4, r3, lsl #3
100061f4:	f890 2024 	ldrb.w	r2, [r0, #36]	@ 0x24
100061f8:	00db      	lsls	r3, r3, #3
100061fa:	2a00      	cmp	r2, #0
100061fc:	d037      	beq.n	1000626e <_ZN3MOD10Modulation6updateEv.part.0+0xf2>
100061fe:	2a01      	cmp	r2, #1
10006200:	d10a      	bne.n	10006218 <_ZN3MOD10Modulation6updateEv.part.0+0x9c>
10006202:	68e2      	ldr	r2, [r4, #12]
10006204:	8be3      	ldrh	r3, [r4, #30]
10006206:	8812      	ldrh	r2, [r2, #0]
10006208:	f483 4300 	eor.w	r3, r3, #32768	@ 0x8000
1000620c:	fb02 f303 	mul.w	r3, r2, r3
10006210:	129b      	asrs	r3, r3, #10
10006212:	84c3      	strh	r3, [r0, #38]	@ 0x26
10006214:	780b      	ldrb	r3, [r1, #0]
10006216:	00db      	lsls	r3, r3, #3
10006218:	4423      	add	r3, r4
1000621a:	6a1a      	ldr	r2, [r3, #32]
1000621c:	b13a      	cbz	r2, 1000622e <_ZN3MOD10Modulation6updateEv.part.0+0xb2>
1000621e:	68e1      	ldr	r1, [r4, #12]
10006220:	8809      	ldrh	r1, [r1, #0]
10006222:	b121      	cbz	r1, 1000622e <_ZN3MOD10Modulation6updateEv.part.0+0xb2>
10006224:	8cd8      	ldrh	r0, [r3, #38]	@ 0x26
10006226:	b003      	add	sp, #12
10006228:	e8bd 4030 	ldmia.w	sp!, {r4, r5, lr}
1000622c:	4710      	bx	r2
1000622e:	b003      	add	sp, #12
10006230:	bd30      	pop	{r4, r5, pc}
10006232:	2000      	movs	r0, #0
10006234:	eb04 03c3 	add.w	r3, r4, r3, lsl #3
10006238:	7720      	strb	r0, [r4, #28]
1000623a:	61a0      	str	r0, [r4, #24]
1000623c:	6a1a      	ldr	r2, [r3, #32]
1000623e:	b122      	cbz	r2, 1000624a <_ZN3MOD10Modulation6updateEv.part.0+0xce>
10006240:	f893 3024 	ldrb.w	r3, [r3, #36]	@ 0x24
10006244:	b173      	cbz	r3, 10006264 <_ZN3MOD10Modulation6updateEv.part.0+0xe8>
10006246:	2b01      	cmp	r3, #1
10006248:	d00e      	beq.n	10006268 <_ZN3MOD10Modulation6updateEv.part.0+0xec>
1000624a:	780b      	ldrb	r3, [r1, #0]
1000624c:	eb04 02c3 	add.w	r2, r4, r3, lsl #3
10006250:	6a15      	ldr	r5, [r2, #32]
10006252:	b12d      	cbz	r5, 10006260 <_ZN3MOD10Modulation6updateEv.part.0+0xe4>
10006254:	f892 2024 	ldrb.w	r2, [r2, #36]	@ 0x24
10006258:	2a00      	cmp	r2, #0
1000625a:	d057      	beq.n	1000630c <_ZN3MOD10Modulation6updateEv.part.0+0x190>
1000625c:	2a01      	cmp	r2, #1
1000625e:	d034      	beq.n	100062ca <_ZN3MOD10Modulation6updateEv.part.0+0x14e>
10006260:	7523      	strb	r3, [r4, #20]
10006262:	e793      	b.n	1000618c <_ZN3MOD10Modulation6updateEv.part.0+0x10>
10006264:	f44f 4000 	mov.w	r0, #32768	@ 0x8000
10006268:	4790      	blx	r2
1000626a:	6921      	ldr	r1, [r4, #16]
1000626c:	e7ed      	b.n	1000624a <_ZN3MOD10Modulation6updateEv.part.0+0xce>
1000626e:	68e3      	ldr	r3, [r4, #12]
10006270:	f9b4 201e 	ldrsh.w	r2, [r4, #30]
10006274:	881b      	ldrh	r3, [r3, #0]
10006276:	fb02 f303 	mul.w	r3, r2, r3
1000627a:	129b      	asrs	r3, r3, #10
1000627c:	f5a3 4300 	sub.w	r3, r3, #32768	@ 0x8000
10006280:	84c3      	strh	r3, [r0, #38]	@ 0x26
10006282:	780b      	ldrb	r3, [r1, #0]
10006284:	00db      	lsls	r3, r3, #3
10006286:	e7c7      	b.n	10006218 <_ZN3MOD10Modulation6updateEv.part.0+0x9c>
10006288:	2800      	cmp	r0, #0
1000628a:	dd24      	ble.n	100062d6 <_ZN3MOD10Modulation6updateEv.part.0+0x15a>
1000628c:	f7fa f8d4 	bl	10000438 <_ZN6RANDOM3getEv>
10006290:	8be3      	ldrh	r3, [r4, #30]
10006292:	6921      	ldr	r1, [r4, #16]
10006294:	eba3 1090 	sub.w	r0, r3, r0, lsr #6
10006298:	83e0      	strh	r0, [r4, #30]
1000629a:	780b      	ldrb	r3, [r1, #0]
1000629c:	e7a8      	b.n	100061f0 <_ZN3MOD10Modulation6updateEv.part.0+0x74>
1000629e:	2800      	cmp	r0, #0
100062a0:	dd2b      	ble.n	100062fa <_ZN3MOD10Modulation6updateEv.part.0+0x17e>
100062a2:	f7fa f8c9 	bl	10000438 <_ZN6RANDOM3getEv>
100062a6:	8be3      	ldrh	r3, [r4, #30]
100062a8:	6921      	ldr	r1, [r4, #16]
100062aa:	eba3 1010 	sub.w	r0, r3, r0, lsr #4
100062ae:	83e0      	strh	r0, [r4, #30]
100062b0:	780b      	ldrb	r3, [r1, #0]
100062b2:	e79d      	b.n	100061f0 <_ZN3MOD10Modulation6updateEv.part.0+0x74>
100062b4:	2800      	cmp	r0, #0
100062b6:	dd17      	ble.n	100062e8 <_ZN3MOD10Modulation6updateEv.part.0+0x16c>
100062b8:	f7fa f8be 	bl	10000438 <_ZN6RANDOM3getEv>
100062bc:	8be3      	ldrh	r3, [r4, #30]
100062be:	6921      	ldr	r1, [r4, #16]
100062c0:	eba3 10d0 	sub.w	r0, r3, r0, lsr #7
100062c4:	83e0      	strh	r0, [r4, #30]
100062c6:	780b      	ldrb	r3, [r1, #0]
100062c8:	e792      	b.n	100061f0 <_ZN3MOD10Modulation6updateEv.part.0+0x74>
100062ca:	2000      	movs	r0, #0
100062cc:	47a8      	blx	r5
100062ce:	6921      	ldr	r1, [r4, #16]
100062d0:	780b      	ldrb	r3, [r1, #0]
100062d2:	7523      	strb	r3, [r4, #20]
100062d4:	e75a      	b.n	1000618c <_ZN3MOD10Modulation6updateEv.part.0+0x10>
100062d6:	f7fa f8af 	bl	10000438 <_ZN6RANDOM3getEv>
100062da:	8be3      	ldrh	r3, [r4, #30]
100062dc:	6921      	ldr	r1, [r4, #16]
100062de:	eb03 1090 	add.w	r0, r3, r0, lsr #6
100062e2:	83e0      	strh	r0, [r4, #30]
100062e4:	780b      	ldrb	r3, [r1, #0]
100062e6:	e783      	b.n	100061f0 <_ZN3MOD10Modulation6updateEv.part.0+0x74>
100062e8:	f7fa f8a6 	bl	10000438 <_ZN6RANDOM3getEv>
100062ec:	8be3      	ldrh	r3, [r4, #30]
100062ee:	6921      	ldr	r1, [r4, #16]
100062f0:	eb03 10d0 	add.w	r0, r3, r0, lsr #7
100062f4:	83e0      	strh	r0, [r4, #30]
100062f6:	780b      	ldrb	r3, [r1, #0]
100062f8:	e77a      	b.n	100061f0 <_ZN3MOD10Modulation6updateEv.part.0+0x74>
100062fa:	f7fa f89d 	bl	10000438 <_ZN6RANDOM3getEv>
100062fe:	8be3      	ldrh	r3, [r4, #30]
10006300:	6921      	ldr	r1, [r4, #16]
10006302:	eb03 1010 	add.w	r0, r3, r0, lsr #4
10006306:	83e0      	strh	r0, [r4, #30]
10006308:	780b      	ldrb	r3, [r1, #0]
1000630a:	e771      	b.n	100061f0 <_ZN3MOD10Modulation6updateEv.part.0+0x74>
1000630c:	f44f 4000 	mov.w	r0, #32768	@ 0x8000
10006310:	47a8      	blx	r5
10006312:	6921      	ldr	r1, [r4, #16]
10006314:	780b      	ldrb	r3, [r1, #0]
10006316:	7523      	strb	r3, [r4, #20]
10006318:	e738      	b.n	1000618c <_ZN3MOD10Modulation6updateEv.part.0+0x10>
1000631a:	bf00      	nop
1000631c:	aaaaaaab 	.word	0xaaaaaaab
10006320:	1000ebe4 	.word	0x1000ebe4

10006324 <_ZN3MOD4initEv>:
10006324:	f04f 0c00 	mov.w	ip, #0
10006328:	f64f 71c0 	movw	r1, #65472	@ 0xffc0
1000632c:	4a08      	ldr	r2, [pc, #32]	@ (10006350 <_ZN3MOD4initEv+0x2c>)
1000632e:	b410      	push	{r4}
10006330:	6813      	ldr	r3, [r2, #0]
10006332:	4c08      	ldr	r4, [pc, #32]	@ (10006354 <_ZN3MOD4initEv+0x30>)
10006334:	4808      	ldr	r0, [pc, #32]	@ (10006358 <_ZN3MOD4initEv+0x34>)
10006336:	fba4 4303 	umull	r4, r3, r4, r3
1000633a:	f880 c000 	strb.w	ip, [r0]
1000633e:	099b      	lsrs	r3, r3, #6
10006340:	e9c2 3301 	strd	r3, r3, [r2, #4]
10006344:	e9c2 1303 	strd	r1, r3, [r2, #12]
10006348:	f85d 4b04 	ldr.w	r4, [sp], #4
1000634c:	4770      	bx	lr
1000634e:	bf00      	nop
10006350:	20003db8 	.word	0x20003db8
10006354:	10624dd3 	.word	0x10624dd3
10006358:	20030028 	.word	0x20030028

1000635c <_ZN3MOD6updateEv>:
1000635c:	4802      	ldr	r0, [pc, #8]	@ (10006368 <_ZN3MOD6updateEv+0xc>)
1000635e:	7803      	ldrb	r3, [r0, #0]
10006360:	b903      	cbnz	r3, 10006364 <_ZN3MOD6updateEv+0x8>
10006362:	4770      	bx	lr
10006364:	f7ff bf0a 	b.w	1000617c <_ZN3MOD10Modulation6updateEv.part.0>
10006368:	20003dcc 	.word	0x20003dcc

1000636c <_ZN3MOD8setStateEb>:
1000636c:	b538      	push	{r3, r4, r5, lr}
1000636e:	4b0f      	ldr	r3, [pc, #60]	@ (100063ac <_ZN3MOD8setStateEb+0x40>)
10006370:	781a      	ldrb	r2, [r3, #0]
10006372:	4282      	cmp	r2, r0
10006374:	d100      	bne.n	10006378 <_ZN3MOD8setStateEb+0xc>
10006376:	bd38      	pop	{r3, r4, r5, pc}
10006378:	2200      	movs	r2, #0
1000637a:	461c      	mov	r4, r3
1000637c:	7018      	strb	r0, [r3, #0]
1000637e:	771a      	strb	r2, [r3, #28]
10006380:	619a      	str	r2, [r3, #24]
10006382:	83da      	strh	r2, [r3, #30]
10006384:	f103 0518 	add.w	r5, r3, #24
10006388:	6a23      	ldr	r3, [r4, #32]
1000638a:	b133      	cbz	r3, 1000639a <_ZN3MOD8setStateEb+0x2e>
1000638c:	f894 2024 	ldrb.w	r2, [r4, #36]	@ 0x24
10006390:	b13a      	cbz	r2, 100063a2 <_ZN3MOD8setStateEb+0x36>
10006392:	2a01      	cmp	r2, #1
10006394:	d101      	bne.n	1000639a <_ZN3MOD8setStateEb+0x2e>
10006396:	2000      	movs	r0, #0
10006398:	4798      	blx	r3
1000639a:	3408      	adds	r4, #8
1000639c:	42a5      	cmp	r5, r4
1000639e:	d1f3      	bne.n	10006388 <_ZN3MOD8setStateEb+0x1c>
100063a0:	bd38      	pop	{r3, r4, r5, pc}
100063a2:	f44f 4000 	mov.w	r0, #32768	@ 0x8000
100063a6:	4798      	blx	r3
100063a8:	e7f7      	b.n	1000639a <_ZN3MOD8setStateEb+0x2e>
100063aa:	bf00      	nop
100063ac:	20003dcc 	.word	0x20003dcc

100063b0 <_ZN3MOD8setShapeEt>:
100063b0:	b510      	push	{r4, lr}
100063b2:	2300      	movs	r3, #0
100063b4:	2405      	movs	r4, #5
100063b6:	b082      	sub	sp, #8
100063b8:	4619      	mov	r1, r3
100063ba:	f240 32ff 	movw	r2, #1023	@ 0x3ff
100063be:	9400      	str	r4, [sp, #0]
100063c0:	f7fa f800 	bl	100003c4 <_Z3maplllll>
100063c4:	4b02      	ldr	r3, [pc, #8]	@ (100063d0 <_ZN3MOD8setShapeEt+0x20>)
100063c6:	0200      	lsls	r0, r0, #8
100063c8:	8018      	strh	r0, [r3, #0]
100063ca:	b002      	add	sp, #8
100063cc:	bd10      	pop	{r4, pc}
100063ce:	bf00      	nop
100063d0:	2002fffa 	.word	0x2002fffa

100063d4 <_ZN3MOD8setDepthEt>:
100063d4:	4b02      	ldr	r3, [pc, #8]	@ (100063e0 <_ZN3MOD8setDepthEt+0xc>)
100063d6:	881a      	ldrh	r2, [r3, #0]
100063d8:	4282      	cmp	r2, r0
100063da:	bf18      	it	ne
100063dc:	8018      	strhne	r0, [r3, #0]
100063de:	4770      	bx	lr
100063e0:	2002fff8 	.word	0x2002fff8

100063e4 <_ZN3MOD7setRateEt>:
100063e4:	b508      	push	{r3, lr}
100063e6:	f000 fb29 	bl	10006a3c <_Z20exponentialFrequencyt>
100063ea:	f64a 4343 	movw	r3, #44099	@ 0xac43
100063ee:	ebc0 4000 	rsb	r0, r0, r0, lsl #16
100063f2:	4298      	cmp	r0, r3
100063f4:	d906      	bls.n	10006404 <_ZN3MOD7setRateEt+0x20>
100063f6:	4a05      	ldr	r2, [pc, #20]	@ (1000640c <_ZN3MOD7setRateEt+0x28>)
100063f8:	4b05      	ldr	r3, [pc, #20]	@ (10006410 <_ZN3MOD7setRateEt+0x2c>)
100063fa:	fba2 2000 	umull	r2, r0, r2, r0
100063fe:	0bc0      	lsrs	r0, r0, #15
10006400:	6018      	str	r0, [r3, #0]
10006402:	bd08      	pop	{r3, pc}
10006404:	2201      	movs	r2, #1
10006406:	4b02      	ldr	r3, [pc, #8]	@ (10006410 <_ZN3MOD7setRateEt+0x2c>)
10006408:	601a      	str	r2, [r3, #0]
1000640a:	bd08      	pop	{r3, pc}
1000640c:	be37c63b 	.word	0xbe37c63b
10006410:	20003db4 	.word	0x20003db4

10006414 <_ZN3MOD9setMatrixEt>:
10006414:	4b01      	ldr	r3, [pc, #4]	@ (1000641c <_ZN3MOD9setMatrixEt+0x8>)
10006416:	0a00      	lsrs	r0, r0, #8
10006418:	7018      	strb	r0, [r3, #0]
1000641a:	4770      	bx	lr
1000641c:	20030028 	.word	0x20030028

10006420 <_ZN3MOD9setAttackEt>:
10006420:	4a05      	ldr	r2, [pc, #20]	@ (10006438 <_ZN3MOD9setAttackEt+0x18>)
10006422:	0080      	lsls	r0, r0, #2
10006424:	6813      	ldr	r3, [r2, #0]
10006426:	4905      	ldr	r1, [pc, #20]	@ (1000643c <_ZN3MOD9setAttackEt+0x1c>)
10006428:	fb00 3303 	mla	r3, r0, r3, r3
1000642c:	fba1 1303 	umull	r1, r3, r1, r3
10006430:	099b      	lsrs	r3, r3, #6
10006432:	6053      	str	r3, [r2, #4]
10006434:	4770      	bx	lr
10006436:	bf00      	nop
10006438:	20003db8 	.word	0x20003db8
1000643c:	10624dd3 	.word	0x10624dd3

10006440 <_ZN3MOD8setDecayEt>:
10006440:	4a05      	ldr	r2, [pc, #20]	@ (10006458 <_ZN3MOD8setDecayEt+0x18>)
10006442:	0080      	lsls	r0, r0, #2
10006444:	6813      	ldr	r3, [r2, #0]
10006446:	4905      	ldr	r1, [pc, #20]	@ (1000645c <_ZN3MOD8setDecayEt+0x1c>)
10006448:	fb00 3303 	mla	r3, r0, r3, r3
1000644c:	fba1 1303 	umull	r1, r3, r1, r3
10006450:	099b      	lsrs	r3, r3, #6
10006452:	6093      	str	r3, [r2, #8]
10006454:	4770      	bx	lr
10006456:	bf00      	nop
10006458:	20003db8 	.word	0x20003db8
1000645c:	10624dd3 	.word	0x10624dd3

10006460 <_ZN3MOD10setSustainEt>:
10006460:	4b01      	ldr	r3, [pc, #4]	@ (10006468 <_ZN3MOD10setSustainEt+0x8>)
10006462:	0180      	lsls	r0, r0, #6
10006464:	60d8      	str	r0, [r3, #12]
10006466:	4770      	bx	lr
10006468:	20003db8 	.word	0x20003db8

1000646c <_ZN3MOD10setReleaseEt>:
1000646c:	4a05      	ldr	r2, [pc, #20]	@ (10006484 <_ZN3MOD10setReleaseEt+0x18>)
1000646e:	0080      	lsls	r0, r0, #2
10006470:	6813      	ldr	r3, [r2, #0]
10006472:	4905      	ldr	r1, [pc, #20]	@ (10006488 <_ZN3MOD10setReleaseEt+0x1c>)
10006474:	fb00 3303 	mla	r3, r0, r3, r3
10006478:	fba1 1303 	umull	r1, r3, r1, r3
1000647c:	099b      	lsrs	r3, r3, #6
1000647e:	6113      	str	r3, [r2, #16]
10006480:	4770      	bx	lr
10006482:	bf00      	nop
10006484:	20003db8 	.word	0x20003db8
10006488:	10624dd3 	.word	0x10624dd3

1000648c <_ZN3MOD14voicesIncreaseEv>:
1000648c:	4a07      	ldr	r2, [pc, #28]	@ (100064ac <_ZN3MOD14voicesIncreaseEv+0x20>)
1000648e:	7813      	ldrb	r3, [r2, #0]
10006490:	3301      	adds	r3, #1
10006492:	b25b      	sxtb	r3, r3
10006494:	7013      	strb	r3, [r2, #0]
10006496:	7813      	ldrb	r3, [r2, #0]
10006498:	b25b      	sxtb	r3, r3
1000649a:	2b08      	cmp	r3, #8
1000649c:	dc00      	bgt.n	100064a0 <_ZN3MOD14voicesIncreaseEv+0x14>
1000649e:	4770      	bx	lr
100064a0:	2308      	movs	r3, #8
100064a2:	4903      	ldr	r1, [pc, #12]	@ (100064b0 <_ZN3MOD14voicesIncreaseEv+0x24>)
100064a4:	4803      	ldr	r0, [pc, #12]	@ (100064b4 <_ZN3MOD14voicesIncreaseEv+0x28>)
100064a6:	7013      	strb	r3, [r2, #0]
100064a8:	f003 bdb8 	b.w	1000a01c <__wrap_printf>
100064ac:	20030026 	.word	0x20030026
100064b0:	1000eb84 	.word	0x1000eb84
100064b4:	1000eb9c 	.word	0x1000eb9c

100064b8 <_ZN3MOD14voicesDecreaseEv>:
100064b8:	4a07      	ldr	r2, [pc, #28]	@ (100064d8 <_ZN3MOD14voicesDecreaseEv+0x20>)
100064ba:	7813      	ldrb	r3, [r2, #0]
100064bc:	3b01      	subs	r3, #1
100064be:	b25b      	sxtb	r3, r3
100064c0:	7013      	strb	r3, [r2, #0]
100064c2:	7813      	ldrb	r3, [r2, #0]
100064c4:	061b      	lsls	r3, r3, #24
100064c6:	d400      	bmi.n	100064ca <_ZN3MOD14voicesDecreaseEv+0x12>
100064c8:	4770      	bx	lr
100064ca:	2300      	movs	r3, #0
100064cc:	4903      	ldr	r1, [pc, #12]	@ (100064dc <_ZN3MOD14voicesDecreaseEv+0x24>)
100064ce:	4804      	ldr	r0, [pc, #16]	@ (100064e0 <_ZN3MOD14voicesDecreaseEv+0x28>)
100064d0:	7013      	strb	r3, [r2, #0]
100064d2:	f003 bda3 	b.w	1000a01c <__wrap_printf>
100064d6:	bf00      	nop
100064d8:	20030026 	.word	0x20030026
100064dc:	1000ebac 	.word	0x1000ebac
100064e0:	1000eb9c 	.word	0x1000eb9c

100064e4 <_ZN3MOD13triggerAttackEv>:
100064e4:	b508      	push	{r3, lr}
100064e6:	4b06      	ldr	r3, [pc, #24]	@ (10006500 <_ZN3MOD13triggerAttackEv+0x1c>)
100064e8:	781b      	ldrb	r3, [r3, #0]
100064ea:	b25b      	sxtb	r3, r3
100064ec:	2b00      	cmp	r3, #0
100064ee:	dd05      	ble.n	100064fc <_ZN3MOD13triggerAttackEv+0x18>
100064f0:	4804      	ldr	r0, [pc, #16]	@ (10006504 <_ZN3MOD13triggerAttackEv+0x20>)
100064f2:	f7fe fc93 	bl	10004e1c <_ZN4ADSR8Envelope13triggerAttackEv>
100064f6:	2201      	movs	r2, #1
100064f8:	4b03      	ldr	r3, [pc, #12]	@ (10006508 <_ZN3MOD13triggerAttackEv+0x24>)
100064fa:	701a      	strb	r2, [r3, #0]
100064fc:	bd08      	pop	{r3, pc}
100064fe:	bf00      	nop
10006500:	20030026 	.word	0x20030026
10006504:	20003e0c 	.word	0x20003e0c
10006508:	20030027 	.word	0x20030027

1000650c <_ZN3MOD14triggerReleaseEv>:
1000650c:	b510      	push	{r4, lr}
1000650e:	4c07      	ldr	r4, [pc, #28]	@ (1000652c <_ZN3MOD14triggerReleaseEv+0x20>)
10006510:	7823      	ldrb	r3, [r4, #0]
10006512:	b123      	cbz	r3, 1000651e <_ZN3MOD14triggerReleaseEv+0x12>
10006514:	4b06      	ldr	r3, [pc, #24]	@ (10006530 <_ZN3MOD14triggerReleaseEv+0x24>)
10006516:	781b      	ldrb	r3, [r3, #0]
10006518:	b25b      	sxtb	r3, r3
1000651a:	2b00      	cmp	r3, #0
1000651c:	dd00      	ble.n	10006520 <_ZN3MOD14triggerReleaseEv+0x14>
1000651e:	bd10      	pop	{r4, pc}
10006520:	4804      	ldr	r0, [pc, #16]	@ (10006534 <_ZN3MOD14triggerReleaseEv+0x28>)
10006522:	f7fe fc8b 	bl	10004e3c <_ZN4ADSR8Envelope14triggerReleaseEv>
10006526:	2300      	movs	r3, #0
10006528:	7023      	strb	r3, [r4, #0]
1000652a:	bd10      	pop	{r4, pc}
1000652c:	20030027 	.word	0x20030027
10006530:	20030026 	.word	0x20030026
10006534:	20003e0c 	.word	0x20003e0c

10006538 <_GLOBAL__sub_I__ZN3MOD10Modulation4initEv>:
10006538:	e92d 47f0 	stmdb	sp!, {r4, r5, r6, r7, r8, r9, sl, lr}
1000653c:	f46f 437e 	mvn.w	r3, #65024	@ 0xfe00
10006540:	2400      	movs	r4, #0
10006542:	4a3d      	ldr	r2, [pc, #244]	@ (10006638 <_GLOBAL__sub_I__ZN3MOD10Modulation4initEv+0x100>)
10006544:	493d      	ldr	r1, [pc, #244]	@ (1000663c <_GLOBAL__sub_I__ZN3MOD10Modulation4initEv+0x104>)
10006546:	f64a 4544 	movw	r5, #44100	@ 0xac44
1000654a:	f64f 70ff 	movw	r0, #65535	@ 0xffff
1000654e:	f04f 0c04 	mov.w	ip, #4
10006552:	e9c2 4306 	strd	r4, r3, [r2, #24]
10006556:	e9c2 4309 	strd	r4, r3, [r2, #36]	@ 0x24
1000655a:	e9c2 430c 	strd	r4, r3, [r2, #48]	@ 0x30
1000655e:	460b      	mov	r3, r1
10006560:	6015      	str	r5, [r2, #0]
10006562:	f8a2 0040 	strh.w	r0, [r2, #64]	@ 0x40
10006566:	82d4      	strh	r4, [r2, #22]
10006568:	8454      	strh	r4, [r2, #34]	@ 0x22
1000656a:	85d4      	strh	r4, [r2, #46]	@ 0x2e
1000656c:	8714      	strh	r4, [r2, #56]	@ 0x38
1000656e:	eb02 060c 	add.w	r6, r2, ip
10006572:	f102 0508 	add.w	r5, r2, #8
10006576:	f102 000c 	add.w	r0, r2, #12
1000657a:	f501 7ef0 	add.w	lr, r1, #480	@ 0x1e0
1000657e:	3210      	adds	r2, #16
10006580:	f883 c020 	strb.w	ip, [r3, #32]
10006584:	f883 4024 	strb.w	r4, [r3, #36]	@ 0x24
10006588:	f883 4026 	strb.w	r4, [r3, #38]	@ 0x26
1000658c:	f883 4027 	strb.w	r4, [r3, #39]	@ 0x27
10006590:	f883 4028 	strb.w	r4, [r3, #40]	@ 0x28
10006594:	e9c3 6500 	strd	r6, r5, [r3]
10006598:	e9c3 0202 	strd	r0, r2, [r3, #8]
1000659c:	e9c3 4404 	strd	r4, r4, [r3, #16]
100065a0:	e9c3 4406 	strd	r4, r4, [r3, #24]
100065a4:	e9c3 440b 	strd	r4, r4, [r3, #44]	@ 0x2c
100065a8:	e9c3 440d 	strd	r4, r4, [r3, #52]	@ 0x34
100065ac:	333c      	adds	r3, #60	@ 0x3c
100065ae:	459e      	cmp	lr, r3
100065b0:	d1e6      	bne.n	10006580 <_GLOBAL__sub_I__ZN3MOD10Modulation4initEv+0x48>
100065b2:	2002      	movs	r0, #2
100065b4:	f881 009c 	strb.w	r0, [r1, #156]	@ 0x9c
100065b8:	2003      	movs	r0, #3
100065ba:	f881 00d8 	strb.w	r0, [r1, #216]	@ 0xd8
100065be:	2005      	movs	r0, #5
100065c0:	f881 0150 	strb.w	r0, [r1, #336]	@ 0x150
100065c4:	2006      	movs	r0, #6
100065c6:	4f1e      	ldr	r7, [pc, #120]	@ (10006640 <_GLOBAL__sub_I__ZN3MOD10Modulation4initEv+0x108>)
100065c8:	f64a 4544 	movw	r5, #44100	@ 0xac44
100065cc:	46b8      	mov	r8, r7
100065ce:	2201      	movs	r2, #1
100065d0:	f881 018c 	strb.w	r0, [r1, #396]	@ 0x18c
100065d4:	2007      	movs	r0, #7
100065d6:	f848 5b04 	str.w	r5, [r8], #4
100065da:	4d1a      	ldr	r5, [pc, #104]	@ (10006644 <_GLOBAL__sub_I__ZN3MOD10Modulation4initEv+0x10c>)
100065dc:	f881 2060 	strb.w	r2, [r1, #96]	@ 0x60
100065e0:	702a      	strb	r2, [r5, #0]
100065e2:	4a19      	ldr	r2, [pc, #100]	@ (10006648 <_GLOBAL__sub_I__ZN3MOD10Modulation4initEv+0x110>)
100065e4:	4e19      	ldr	r6, [pc, #100]	@ (1000664c <_GLOBAL__sub_I__ZN3MOD10Modulation4initEv+0x114>)
100065e6:	606a      	str	r2, [r5, #4]
100065e8:	4a19      	ldr	r2, [pc, #100]	@ (10006650 <_GLOBAL__sub_I__ZN3MOD10Modulation4initEv+0x118>)
100065ea:	f105 0e20 	add.w	lr, r5, #32
100065ee:	60aa      	str	r2, [r5, #8]
100065f0:	4a18      	ldr	r2, [pc, #96]	@ (10006654 <_GLOBAL__sub_I__ZN3MOD10Modulation4initEv+0x11c>)
100065f2:	f8c1 41e0 	str.w	r4, [r1, #480]	@ 0x1e0
100065f6:	60ea      	str	r2, [r5, #12]
100065f8:	4a17      	ldr	r2, [pc, #92]	@ (10006658 <_GLOBAL__sub_I__ZN3MOD10Modulation4initEv+0x120>)
100065fa:	f881 4024 	strb.w	r4, [r1, #36]	@ 0x24
100065fe:	f881 c114 	strb.w	ip, [r1, #276]	@ 0x114
10006602:	f881 01c8 	strb.w	r0, [r1, #456]	@ 0x1c8
10006606:	612a      	str	r2, [r5, #16]
10006608:	ce0f      	ldmia	r6!, {r0, r1, r2, r3}
1000660a:	e8ae 000f 	stmia.w	lr!, {r0, r1, r2, r3}
1000660e:	e896 000f 	ldmia.w	r6, {r0, r1, r2, r3}
10006612:	f107 0a08 	add.w	sl, r7, #8
10006616:	f107 090c 	add.w	r9, r7, #12
1000661a:	3710      	adds	r7, #16
1000661c:	e88e 000f 	stmia.w	lr, {r0, r1, r2, r3}
10006620:	e9c5 8a10 	strd	r8, sl, [r5, #64]	@ 0x40
10006624:	e9c5 9712 	strd	r9, r7, [r5, #72]	@ 0x48
10006628:	e9c5 4414 	strd	r4, r4, [r5, #80]	@ 0x50
1000662c:	e9c5 4416 	strd	r4, r4, [r5, #88]	@ 0x58
10006630:	f885 c060 	strb.w	ip, [r5, #96]	@ 0x60
10006634:	e8bd 87f0 	ldmia.w	sp!, {r4, r5, r6, r7, r8, r9, sl, pc}
10006638:	2002d06c 	.word	0x2002d06c
1000663c:	2002e420 	.word	0x2002e420
10006640:	20003db8 	.word	0x20003db8
10006644:	20003dcc 	.word	0x20003dcc
10006648:	2002fffa 	.word	0x2002fffa
1000664c:	1000ebc4 	.word	0x1000ebc4
10006650:	20003db4 	.word	0x20003db4
10006654:	2002fff8 	.word	0x2002fff8
10006658:	20030028 	.word	0x20030028

1000665c <_ZN13NOTE_HANDLING7voiceOnEhhh>:
1000665c:	b901      	cbnz	r1, 10006660 <_ZN13NOTE_HANDLING7voiceOnEhhh+0x4>
1000665e:	4770      	bx	lr
10006660:	b570      	push	{r4, r5, r6, lr}
10006662:	f240 1501 	movw	r5, #257	@ 0x101
10006666:	f04f 0e00 	mov.w	lr, #0
1000666a:	4c09      	ldr	r4, [pc, #36]	@ (10006690 <_ZN13NOTE_HANDLING7voiceOnEhhh+0x34>)
1000666c:	eb00 0340 	add.w	r3, r0, r0, lsl #1
10006670:	6826      	ldr	r6, [r4, #0]
10006672:	4c08      	ldr	r4, [pc, #32]	@ (10006694 <_ZN13NOTE_HANDLING7voiceOnEhhh+0x38>)
10006674:	f804 1023 	strb.w	r1, [r4, r3, lsl #2]
10006678:	eb04 0383 	add.w	r3, r4, r3, lsl #2
1000667c:	705a      	strb	r2, [r3, #1]
1000667e:	605e      	str	r6, [r3, #4]
10006680:	805d      	strh	r5, [r3, #2]
10006682:	f883 e008 	strb.w	lr, [r3, #8]
10006686:	2201      	movs	r2, #1
10006688:	e8bd 4070 	ldmia.w	sp!, {r4, r5, r6, lr}
1000668c:	f7fd bcde 	b.w	1000404c <_ZN5QUEUE11triggerSendEhhb>
10006690:	2002ffcc 	.word	0x2002ffcc
10006694:	20003bf4 	.word	0x20003bf4

10006698 <_ZN13NOTE_HANDLING8voiceOffEhhh>:
10006698:	2200      	movs	r2, #0
1000669a:	4905      	ldr	r1, [pc, #20]	@ (100066b0 <_ZN13NOTE_HANDLING8voiceOffEhhh+0x18>)
1000669c:	eb00 0340 	add.w	r3, r0, r0, lsl #1
100066a0:	eb01 0c83 	add.w	ip, r1, r3, lsl #2
100066a4:	f88c 2002 	strb.w	r2, [ip, #2]
100066a8:	f811 1023 	ldrb.w	r1, [r1, r3, lsl #2]
100066ac:	f7fd bcce 	b.w	1000404c <_ZN5QUEUE11triggerSendEhhb>
100066b0:	20003bf4 	.word	0x20003bf4

100066b4 <_ZN13NOTE_HANDLING18voicesCheckSustainEh>:
100066b4:	4b03      	ldr	r3, [pc, #12]	@ (100066c4 <_ZN13NOTE_HANDLING18voicesCheckSustainEh+0x10>)
100066b6:	eb00 0040 	add.w	r0, r0, r0, lsl #1
100066ba:	eb03 0080 	add.w	r0, r3, r0, lsl #2
100066be:	7a00      	ldrb	r0, [r0, #8]
100066c0:	4770      	bx	lr
100066c2:	bf00      	nop
100066c4:	20003bf4 	.word	0x20003bf4

100066c8 <_ZN13NOTE_HANDLING16voicesActiveNoteEh>:
100066c8:	4a04      	ldr	r2, [pc, #16]	@ (100066dc <_ZN13NOTE_HANDLING16voicesActiveNoteEh+0x14>)
100066ca:	eb00 0340 	add.w	r3, r0, r0, lsl #1
100066ce:	eb02 0183 	add.w	r1, r2, r3, lsl #2
100066d2:	7888      	ldrb	r0, [r1, #2]
100066d4:	009b      	lsls	r3, r3, #2
100066d6:	b100      	cbz	r0, 100066da <_ZN13NOTE_HANDLING16voicesActiveNoteEh+0x12>
100066d8:	5cd0      	ldrb	r0, [r2, r3]
100066da:	4770      	bx	lr
100066dc:	20003bf4 	.word	0x20003bf4

100066e0 <_ZN13NOTE_HANDLING10voicesStopEv>:
100066e0:	b510      	push	{r4, lr}
100066e2:	2400      	movs	r4, #0
100066e4:	2200      	movs	r2, #0
100066e6:	b2e0      	uxtb	r0, r4
100066e8:	4611      	mov	r1, r2
100066ea:	3401      	adds	r4, #1
100066ec:	f7fd fcae 	bl	1000404c <_ZN5QUEUE11triggerSendEhhb>
100066f0:	2c08      	cmp	r4, #8
100066f2:	d1f7      	bne.n	100066e4 <_ZN13NOTE_HANDLING10voicesStopEv+0x4>
100066f4:	bd10      	pop	{r4, pc}
100066f6:	bf00      	nop

100066f8 <_ZN13NOTE_HANDLING8priorityEhh>:
100066f8:	23ff      	movs	r3, #255	@ 0xff
100066fa:	b5f0      	push	{r4, r5, r6, r7, lr}
100066fc:	b083      	sub	sp, #12
100066fe:	460e      	mov	r6, r1
10006700:	f88d 3003 	strb.w	r3, [sp, #3]
10006704:	4605      	mov	r5, r0
10006706:	f7fd fd8b 	bl	10004220 <_ZN4MIDI10sendNoteOnEhh>
1000670a:	4939      	ldr	r1, [pc, #228]	@ (100067f0 <_ZN13NOTE_HANDLING8priorityEhh+0xf8>)
1000670c:	2200      	movs	r2, #0
1000670e:	460f      	mov	r7, r1
10006710:	460b      	mov	r3, r1
10006712:	e005      	b.n	10006720 <_ZN13NOTE_HANDLING8priorityEhh+0x28>
10006714:	78dc      	ldrb	r4, [r3, #3]
10006716:	330c      	adds	r3, #12
10006718:	b14c      	cbz	r4, 1000672e <_ZN13NOTE_HANDLING8priorityEhh+0x36>
1000671a:	3201      	adds	r2, #1
1000671c:	2a08      	cmp	r2, #8
1000671e:	d009      	beq.n	10006734 <_ZN13NOTE_HANDLING8priorityEhh+0x3c>
10006720:	f893 c000 	ldrb.w	ip, [r3]
10006724:	45ac      	cmp	ip, r5
10006726:	d1f5      	bne.n	10006714 <_ZN13NOTE_HANDLING8priorityEhh+0x1c>
10006728:	7898      	ldrb	r0, [r3, #2]
1000672a:	2800      	cmp	r0, #0
1000672c:	d0f2      	beq.n	10006714 <_ZN13NOTE_HANDLING8priorityEhh+0x1c>
1000672e:	b252      	sxtb	r2, r2
10006730:	f88d 2003 	strb.w	r2, [sp, #3]
10006734:	f89d 3003 	ldrb.w	r3, [sp, #3]
10006738:	061a      	lsls	r2, r3, #24
1000673a:	d428      	bmi.n	1000678e <_ZN13NOTE_HANDLING8priorityEhh+0x96>
1000673c:	4b2d      	ldr	r3, [pc, #180]	@ (100067f4 <_ZN13NOTE_HANDLING8priorityEhh+0xfc>)
1000673e:	781b      	ldrb	r3, [r3, #0]
10006740:	b143      	cbz	r3, 10006754 <_ZN13NOTE_HANDLING8priorityEhh+0x5c>
10006742:	2200      	movs	r2, #0
10006744:	f89d 3003 	ldrb.w	r3, [sp, #3]
10006748:	b25b      	sxtb	r3, r3
1000674a:	eb03 0343 	add.w	r3, r3, r3, lsl #1
1000674e:	eb07 0383 	add.w	r3, r7, r3, lsl #2
10006752:	721a      	strb	r2, [r3, #8]
10006754:	f89d 0003 	ldrb.w	r0, [sp, #3]
10006758:	b240      	sxtb	r0, r0
1000675a:	b90d      	cbnz	r5, 10006760 <_ZN13NOTE_HANDLING8priorityEhh+0x68>
1000675c:	b003      	add	sp, #12
1000675e:	bdf0      	pop	{r4, r5, r6, r7, pc}
10006760:	4a25      	ldr	r2, [pc, #148]	@ (100067f8 <_ZN13NOTE_HANDLING8priorityEhh+0x100>)
10006762:	b2c0      	uxtb	r0, r0
10006764:	6812      	ldr	r2, [r2, #0]
10006766:	eb00 0340 	add.w	r3, r0, r0, lsl #1
1000676a:	f807 5023 	strb.w	r5, [r7, r3, lsl #2]
1000676e:	eb07 0783 	add.w	r7, r7, r3, lsl #2
10006772:	f240 1401 	movw	r4, #257	@ 0x101
10006776:	2300      	movs	r3, #0
10006778:	607a      	str	r2, [r7, #4]
1000677a:	4629      	mov	r1, r5
1000677c:	2201      	movs	r2, #1
1000677e:	707e      	strb	r6, [r7, #1]
10006780:	807c      	strh	r4, [r7, #2]
10006782:	723b      	strb	r3, [r7, #8]
10006784:	b003      	add	sp, #12
10006786:	e8bd 40f0 	ldmia.w	sp!, {r4, r5, r6, r7, lr}
1000678a:	f7fd bc5f 	b.w	1000404c <_ZN5QUEUE11triggerSendEhhb>
1000678e:	4b1a      	ldr	r3, [pc, #104]	@ (100067f8 <_ZN13NOTE_HANDLING8priorityEhh+0x100>)
10006790:	f04f 3cff 	mov.w	ip, #4294967295	@ 0xffffffff
10006794:	681b      	ldr	r3, [r3, #0]
10006796:	9301      	str	r3, [sp, #4]
10006798:	2300      	movs	r3, #0
1000679a:	9c01      	ldr	r4, [sp, #4]
1000679c:	9801      	ldr	r0, [sp, #4]
1000679e:	788a      	ldrb	r2, [r1, #2]
100067a0:	b9fa      	cbnz	r2, 100067e2 <_ZN13NOTE_HANDLING8priorityEhh+0xea>
100067a2:	684a      	ldr	r2, [r1, #4]
100067a4:	fa4f fe83 	sxtb.w	lr, r3
100067a8:	42a2      	cmp	r2, r4
100067aa:	d31c      	bcc.n	100067e6 <_ZN13NOTE_HANDLING8priorityEhh+0xee>
100067ac:	4282      	cmp	r2, r0
100067ae:	bf3c      	itt	cc
100067b0:	4610      	movcc	r0, r2
100067b2:	fa4f fc83 	sxtbcc.w	ip, r3
100067b6:	3301      	adds	r3, #1
100067b8:	2b08      	cmp	r3, #8
100067ba:	f101 010c 	add.w	r1, r1, #12
100067be:	d1ee      	bne.n	1000679e <_ZN13NOTE_HANDLING8priorityEhh+0xa6>
100067c0:	f89d 3003 	ldrb.w	r3, [sp, #3]
100067c4:	061b      	lsls	r3, r3, #24
100067c6:	d5b9      	bpl.n	1000673c <_ZN13NOTE_HANDLING8priorityEhh+0x44>
100067c8:	f88d c003 	strb.w	ip, [sp, #3]
100067cc:	f89d 3003 	ldrb.w	r3, [sp, #3]
100067d0:	2100      	movs	r1, #0
100067d2:	b25b      	sxtb	r3, r3
100067d4:	eb03 0343 	add.w	r3, r3, r3, lsl #1
100067d8:	f817 0023 	ldrb.w	r0, [r7, r3, lsl #2]
100067dc:	f7fd fd0a 	bl	100041f4 <_ZN4MIDI11sendNoteOffEhh>
100067e0:	e7ac      	b.n	1000673c <_ZN13NOTE_HANDLING8priorityEhh+0x44>
100067e2:	684a      	ldr	r2, [r1, #4]
100067e4:	e7e2      	b.n	100067ac <_ZN13NOTE_HANDLING8priorityEhh+0xb4>
100067e6:	4614      	mov	r4, r2
100067e8:	f88d e003 	strb.w	lr, [sp, #3]
100067ec:	e7e3      	b.n	100067b6 <_ZN13NOTE_HANDLING8priorityEhh+0xbe>
100067ee:	bf00      	nop
100067f0:	20003bf4 	.word	0x20003bf4
100067f4:	2003000e 	.word	0x2003000e
100067f8:	2002ffcc 	.word	0x2002ffcc

100067fc <_ZN13NOTE_HANDLING7releaseEhh>:
100067fc:	b5f8      	push	{r3, r4, r5, r6, r7, lr}
100067fe:	4b17      	ldr	r3, [pc, #92]	@ (1000685c <_ZN13NOTE_HANDLING7releaseEhh+0x60>)
10006800:	4606      	mov	r6, r0
10006802:	781c      	ldrb	r4, [r3, #0]
10006804:	b9e4      	cbnz	r4, 10006840 <_ZN13NOTE_HANDLING7releaseEhh+0x44>
10006806:	4627      	mov	r7, r4
10006808:	4d15      	ldr	r5, [pc, #84]	@ (10006860 <_ZN13NOTE_HANDLING7releaseEhh+0x64>)
1000680a:	e004      	b.n	10006816 <_ZN13NOTE_HANDLING7releaseEhh+0x1a>
1000680c:	3401      	adds	r4, #1
1000680e:	2c08      	cmp	r4, #8
10006810:	f105 050c 	add.w	r5, r5, #12
10006814:	d013      	beq.n	1000683e <_ZN13NOTE_HANDLING7releaseEhh+0x42>
10006816:	f815 3c02 	ldrb.w	r3, [r5, #-2]
1000681a:	42b3      	cmp	r3, r6
1000681c:	d1f6      	bne.n	1000680c <_ZN13NOTE_HANDLING7releaseEhh+0x10>
1000681e:	2100      	movs	r1, #0
10006820:	4630      	mov	r0, r6
10006822:	f7fd fce7 	bl	100041f4 <_ZN4MIDI11sendNoteOffEhh>
10006826:	f815 1c02 	ldrb.w	r1, [r5, #-2]
1000682a:	b2e0      	uxtb	r0, r4
1000682c:	2200      	movs	r2, #0
1000682e:	3401      	adds	r4, #1
10006830:	702f      	strb	r7, [r5, #0]
10006832:	f7fd fc0b 	bl	1000404c <_ZN5QUEUE11triggerSendEhhb>
10006836:	2c08      	cmp	r4, #8
10006838:	f105 050c 	add.w	r5, r5, #12
1000683c:	d1eb      	bne.n	10006816 <_ZN13NOTE_HANDLING7releaseEhh+0x1a>
1000683e:	bdf8      	pop	{r3, r4, r5, r6, r7, pc}
10006840:	2001      	movs	r0, #1
10006842:	4b08      	ldr	r3, [pc, #32]	@ (10006864 <_ZN13NOTE_HANDLING7releaseEhh+0x68>)
10006844:	f103 0160 	add.w	r1, r3, #96	@ 0x60
10006848:	781a      	ldrb	r2, [r3, #0]
1000684a:	330c      	adds	r3, #12
1000684c:	42b2      	cmp	r2, r6
1000684e:	bf08      	it	eq
10006850:	f803 0c04 	strbeq.w	r0, [r3, #-4]
10006854:	428b      	cmp	r3, r1
10006856:	d1f7      	bne.n	10006848 <_ZN13NOTE_HANDLING7releaseEhh+0x4c>
10006858:	bdf8      	pop	{r3, r4, r5, r6, r7, pc}
1000685a:	bf00      	nop
1000685c:	2003000e 	.word	0x2003000e
10006860:	20003bf6 	.word	0x20003bf6
10006864:	20003bf4 	.word	0x20003bf4

10006868 <_ZN13NOTE_HANDLING20checkReleaseMessagesEv>:
10006868:	b5f8      	push	{r3, r4, r5, r6, r7, lr}
1000686a:	f7fd fc21 	bl	100040b0 <_ZN5QUEUE17releaseCheckQueueEv>
1000686e:	b188      	cbz	r0, 10006894 <_ZN13NOTE_HANDLING20checkReleaseMessagesEv+0x2c>
10006870:	2500      	movs	r5, #0
10006872:	4607      	mov	r7, r0
10006874:	462c      	mov	r4, r5
10006876:	4e08      	ldr	r6, [pc, #32]	@ (10006898 <_ZN13NOTE_HANDLING20checkReleaseMessagesEv+0x30>)
10006878:	f7fd fc0c 	bl	10004094 <_ZN5QUEUE14releaseReceiveEv>
1000687c:	3501      	adds	r5, #1
1000687e:	eb00 0340 	add.w	r3, r0, r0, lsl #1
10006882:	eb06 0283 	add.w	r2, r6, r3, lsl #2
10006886:	42bd      	cmp	r5, r7
10006888:	f826 4023 	strh.w	r4, [r6, r3, lsl #2]
1000688c:	70d4      	strb	r4, [r2, #3]
1000688e:	6054      	str	r4, [r2, #4]
10006890:	7214      	strb	r4, [r2, #8]
10006892:	d1f1      	bne.n	10006878 <_ZN13NOTE_HANDLING20checkReleaseMessagesEv+0x10>
10006894:	bdf8      	pop	{r3, r4, r5, r6, r7, pc}
10006896:	bf00      	nop
10006898:	20003bf4 	.word	0x20003bf4

1000689c <_ZN13NOTE_HANDLING6updateEv>:
1000689c:	b570      	push	{r4, r5, r6, lr}
1000689e:	4e0e      	ldr	r6, [pc, #56]	@ (100068d8 <_ZN13NOTE_HANDLING6updateEv+0x3c>)
100068a0:	f7ff ffe2 	bl	10006868 <_ZN13NOTE_HANDLING20checkReleaseMessagesEv>
100068a4:	7833      	ldrb	r3, [r6, #0]
100068a6:	b193      	cbz	r3, 100068ce <_ZN13NOTE_HANDLING6updateEv+0x32>
100068a8:	4c0c      	ldr	r4, [pc, #48]	@ (100068dc <_ZN13NOTE_HANDLING6updateEv+0x40>)
100068aa:	f104 0560 	add.w	r5, r4, #96	@ 0x60
100068ae:	e002      	b.n	100068b6 <_ZN13NOTE_HANDLING6updateEv+0x1a>
100068b0:	340c      	adds	r4, #12
100068b2:	42ac      	cmp	r4, r5
100068b4:	d009      	beq.n	100068ca <_ZN13NOTE_HANDLING6updateEv+0x2e>
100068b6:	7a23      	ldrb	r3, [r4, #8]
100068b8:	2b00      	cmp	r3, #0
100068ba:	d0f9      	beq.n	100068b0 <_ZN13NOTE_HANDLING6updateEv+0x14>
100068bc:	7820      	ldrb	r0, [r4, #0]
100068be:	2100      	movs	r1, #0
100068c0:	340c      	adds	r4, #12
100068c2:	f7ff ff9b 	bl	100067fc <_ZN13NOTE_HANDLING7releaseEhh>
100068c6:	42ac      	cmp	r4, r5
100068c8:	d1f5      	bne.n	100068b6 <_ZN13NOTE_HANDLING6updateEv+0x1a>
100068ca:	2300      	movs	r3, #0
100068cc:	7033      	strb	r3, [r6, #0]
100068ce:	e8bd 4070 	ldmia.w	sp!, {r4, r5, r6, lr}
100068d2:	f7fe be19 	b.w	10005508 <_ZN3ARP6updateEv>
100068d6:	bf00      	nop
100068d8:	2003000f 	.word	0x2003000f
100068dc:	20003bf4 	.word	0x20003bf4

100068e0 <_ZN13NOTE_HANDLING6noteOnEhh>:
100068e0:	b538      	push	{r3, r4, r5, lr}
100068e2:	4604      	mov	r4, r0
100068e4:	460d      	mov	r5, r1
100068e6:	f7fe fb79 	bl	10004fdc <_ZN3ARP8getStateEv>
100068ea:	b928      	cbnz	r0, 100068f8 <_ZN13NOTE_HANDLING6noteOnEhh+0x18>
100068ec:	4629      	mov	r1, r5
100068ee:	4620      	mov	r0, r4
100068f0:	e8bd 4038 	ldmia.w	sp!, {r3, r4, r5, lr}
100068f4:	f7ff bf00 	b.w	100066f8 <_ZN13NOTE_HANDLING8priorityEhh>
100068f8:	4620      	mov	r0, r4
100068fa:	e8bd 4038 	ldmia.w	sp!, {r3, r4, r5, lr}
100068fe:	217f      	movs	r1, #127	@ 0x7f
10006900:	f7fe be88 	b.w	10005614 <_ZN3ARP7addNoteEhh>

10006904 <_ZN13NOTE_HANDLING7noteOffEhh>:
10006904:	b538      	push	{r3, r4, r5, lr}
10006906:	4604      	mov	r4, r0
10006908:	460d      	mov	r5, r1
1000690a:	f7fe fb67 	bl	10004fdc <_ZN3ARP8getStateEv>
1000690e:	b928      	cbnz	r0, 1000691c <_ZN13NOTE_HANDLING7noteOffEhh+0x18>
10006910:	4629      	mov	r1, r5
10006912:	4620      	mov	r0, r4
10006914:	e8bd 4038 	ldmia.w	sp!, {r3, r4, r5, lr}
10006918:	f7ff bf70 	b.w	100067fc <_ZN13NOTE_HANDLING7releaseEhh>
1000691c:	4620      	mov	r0, r4
1000691e:	e8bd 4038 	ldmia.w	sp!, {r3, r4, r5, lr}
10006922:	f7fe bd17 	b.w	10005354 <_ZN3ARP10removeNoteEh>
10006926:	bf00      	nop

10006928 <_ZN13NOTE_HANDLING15setSustainPedalEt>:
10006928:	0a40      	lsrs	r0, r0, #9
1000692a:	bf14      	ite	ne
1000692c:	2301      	movne	r3, #1
1000692e:	2300      	moveq	r3, #0
10006930:	b510      	push	{r4, lr}
10006932:	4c09      	ldr	r4, [pc, #36]	@ (10006958 <_ZN13NOTE_HANDLING15setSustainPedalEt+0x30>)
10006934:	7822      	ldrb	r2, [r4, #0]
10006936:	429a      	cmp	r2, r3
10006938:	d009      	beq.n	1000694e <_ZN13NOTE_HANDLING15setSustainPedalEt+0x26>
1000693a:	7023      	strb	r3, [r4, #0]
1000693c:	b910      	cbnz	r0, 10006944 <_ZN13NOTE_HANDLING15setSustainPedalEt+0x1c>
1000693e:	2201      	movs	r2, #1
10006940:	4b06      	ldr	r3, [pc, #24]	@ (1000695c <_ZN13NOTE_HANDLING15setSustainPedalEt+0x34>)
10006942:	701a      	strb	r2, [r3, #0]
10006944:	f7fe fb4a 	bl	10004fdc <_ZN3ARP8getStateEv>
10006948:	b108      	cbz	r0, 1000694e <_ZN13NOTE_HANDLING15setSustainPedalEt+0x26>
1000694a:	7823      	ldrb	r3, [r4, #0]
1000694c:	b903      	cbnz	r3, 10006950 <_ZN13NOTE_HANDLING15setSustainPedalEt+0x28>
1000694e:	bd10      	pop	{r4, pc}
10006950:	e8bd 4010 	ldmia.w	sp!, {r4, lr}
10006954:	f7fe bf78 	b.w	10005848 <_ZN3ARP13toggleSustainEv>
10006958:	2003000e 	.word	0x2003000e
1000695c:	2003000f 	.word	0x2003000f

10006960 <_GLOBAL__sub_I__ZN13NOTE_HANDLING7voiceOnEhhh>:
10006960:	2200      	movs	r2, #0
10006962:	f46f 437e 	mvn.w	r3, #65024	@ 0xfe00
10006966:	492e      	ldr	r1, [pc, #184]	@ (10006a20 <_GLOBAL__sub_I__ZN13NOTE_HANDLING7voiceOnEhhh+0xc0>)
10006968:	482e      	ldr	r0, [pc, #184]	@ (10006a24 <_GLOBAL__sub_I__ZN13NOTE_HANDLING7voiceOnEhhh+0xc4>)
1000696a:	b570      	push	{r4, r5, r6, lr}
1000696c:	f04f 0c04 	mov.w	ip, #4
10006970:	f64a 4544 	movw	r5, #44100	@ 0xac44
10006974:	f64f 74ff 	movw	r4, #65535	@ 0xffff
10006978:	e9c1 2306 	strd	r2, r3, [r1, #24]
1000697c:	e9c1 2309 	strd	r2, r3, [r1, #36]	@ 0x24
10006980:	e9c1 230c 	strd	r2, r3, [r1, #48]	@ 0x30
10006984:	4603      	mov	r3, r0
10006986:	600d      	str	r5, [r1, #0]
10006988:	f8a1 4040 	strh.w	r4, [r1, #64]	@ 0x40
1000698c:	82ca      	strh	r2, [r1, #22]
1000698e:	844a      	strh	r2, [r1, #34]	@ 0x22
10006990:	85ca      	strh	r2, [r1, #46]	@ 0x2e
10006992:	870a      	strh	r2, [r1, #56]	@ 0x38
10006994:	eb01 060c 	add.w	r6, r1, ip
10006998:	f101 0508 	add.w	r5, r1, #8
1000699c:	f101 040c 	add.w	r4, r1, #12
100069a0:	f500 7ef0 	add.w	lr, r0, #480	@ 0x1e0
100069a4:	3110      	adds	r1, #16
100069a6:	f883 c020 	strb.w	ip, [r3, #32]
100069aa:	f883 2024 	strb.w	r2, [r3, #36]	@ 0x24
100069ae:	f883 2026 	strb.w	r2, [r3, #38]	@ 0x26
100069b2:	f883 2027 	strb.w	r2, [r3, #39]	@ 0x27
100069b6:	f883 2028 	strb.w	r2, [r3, #40]	@ 0x28
100069ba:	e9c3 6500 	strd	r6, r5, [r3]
100069be:	e9c3 4102 	strd	r4, r1, [r3, #8]
100069c2:	e9c3 2204 	strd	r2, r2, [r3, #16]
100069c6:	e9c3 2206 	strd	r2, r2, [r3, #24]
100069ca:	e9c3 220b 	strd	r2, r2, [r3, #44]	@ 0x2c
100069ce:	e9c3 220d 	strd	r2, r2, [r3, #52]	@ 0x34
100069d2:	333c      	adds	r3, #60	@ 0x3c
100069d4:	459e      	cmp	lr, r3
100069d6:	d1e6      	bne.n	100069a6 <_GLOBAL__sub_I__ZN13NOTE_HANDLING7voiceOnEhhh+0x46>
100069d8:	2403      	movs	r4, #3
100069da:	f8c0 21e0 	str.w	r2, [r0, #480]	@ 0x1e0
100069de:	f880 2024 	strb.w	r2, [r0, #36]	@ 0x24
100069e2:	2206      	movs	r2, #6
100069e4:	2301      	movs	r3, #1
100069e6:	2102      	movs	r1, #2
100069e8:	2505      	movs	r5, #5
100069ea:	f880 40d8 	strb.w	r4, [r0, #216]	@ 0xd8
100069ee:	2407      	movs	r4, #7
100069f0:	f880 218c 	strb.w	r2, [r0, #396]	@ 0x18c
100069f4:	2200      	movs	r2, #0
100069f6:	f880 3060 	strb.w	r3, [r0, #96]	@ 0x60
100069fa:	f880 109c 	strb.w	r1, [r0, #156]	@ 0x9c
100069fe:	4b0a      	ldr	r3, [pc, #40]	@ (10006a28 <_GLOBAL__sub_I__ZN13NOTE_HANDLING7voiceOnEhhh+0xc8>)
10006a00:	490a      	ldr	r1, [pc, #40]	@ (10006a2c <_GLOBAL__sub_I__ZN13NOTE_HANDLING7voiceOnEhhh+0xcc>)
10006a02:	f880 c114 	strb.w	ip, [r0, #276]	@ 0x114
10006a06:	f880 5150 	strb.w	r5, [r0, #336]	@ 0x150
10006a0a:	f880 41c8 	strb.w	r4, [r0, #456]	@ 0x1c8
10006a0e:	f883 2103 	strb.w	r2, [r3, #259]	@ 0x103
10006a12:	701a      	strb	r2, [r3, #0]
10006a14:	f203 1305 	addw	r3, r3, #261	@ 0x105
10006a18:	428b      	cmp	r3, r1
10006a1a:	d1f8      	bne.n	10006a0e <_GLOBAL__sub_I__ZN13NOTE_HANDLING7voiceOnEhhh+0xae>
10006a1c:	bd70      	pop	{r4, r5, r6, pc}
10006a1e:	bf00      	nop
10006a20:	2002d0b0 	.word	0x2002d0b0
10006a24:	2002e604 	.word	0x2002e604
10006a28:	20028a38 	.word	0x20028a38
10006a2c:	2002cb78 	.word	0x2002cb78

10006a30 <_Z12getFrequencyh>:
10006a30:	4b01      	ldr	r3, [pc, #4]	@ (10006a38 <_Z12getFrequencyh+0x8>)
10006a32:	f853 0020 	ldr.w	r0, [r3, r0, lsl #2]
10006a36:	4770      	bx	lr
10006a38:	100117fc 	.word	0x100117fc

10006a3c <_Z20exponentialFrequencyt>:
10006a3c:	4b01      	ldr	r3, [pc, #4]	@ (10006a44 <_Z20exponentialFrequencyt+0x8>)
10006a3e:	f833 0010 	ldrh.w	r0, [r3, r0, lsl #1]
10006a42:	4770      	bx	lr
10006a44:	1000fffc 	.word	0x1000fffc

10006a48 <_Z10filterDampt>:
10006a48:	4b01      	ldr	r3, [pc, #4]	@ (10006a50 <_Z10filterDampt+0x8>)
10006a4a:	f833 0010 	ldrh.w	r0, [r3, r0, lsl #1]
10006a4e:	4770      	bx	lr
10006a50:	100107fc 	.word	0x100107fc

10006a54 <_Z16logarithmicPitcht>:
10006a54:	4b01      	ldr	r3, [pc, #4]	@ (10006a5c <_Z16logarithmicPitcht+0x8>)
10006a56:	f833 0010 	ldrh.w	r0, [r3, r0, lsl #1]
10006a5a:	4770      	bx	lr
10006a5c:	10010ffc 	.word	0x10010ffc

10006a60 <_Z16logPotentiometert>:
10006a60:	4b01      	ldr	r3, [pc, #4]	@ (10006a68 <_Z16logPotentiometert+0x8>)
10006a62:	f833 0010 	ldrh.w	r0, [r3, r0, lsl #1]
10006a66:	4770      	bx	lr
10006a68:	1000f7fc 	.word	0x1000f7fc

10006a6c <_ZN5SYNTH7voiceOnEhh>:
10006a6c:	b5f8      	push	{r3, r4, r5, r6, r7, lr}
10006a6e:	4f16      	ldr	r7, [pc, #88]	@ (10006ac8 <_ZN5SYNTH7voiceOnEhh+0x5c>)
10006a70:	ebc0 1300 	rsb	r3, r0, r0, lsl #4
10006a74:	eb07 0383 	add.w	r3, r7, r3, lsl #2
10006a78:	f893 2027 	ldrb.w	r2, [r3, #39]	@ 0x27
10006a7c:	4604      	mov	r4, r0
10006a7e:	460e      	mov	r6, r1
10006a80:	0105      	lsls	r5, r0, #4
10006a82:	b112      	cbz	r2, 10006a8a <_ZN5SYNTH7voiceOnEhh+0x1e>
10006a84:	f893 3026 	ldrb.w	r3, [r3, #38]	@ 0x26
10006a88:	b90b      	cbnz	r3, 10006a8e <_ZN5SYNTH7voiceOnEhh+0x22>
10006a8a:	f7ff fcff 	bl	1000648c <_ZN3MOD14voicesIncreaseEv>
10006a8e:	4620      	mov	r0, r4
10006a90:	f7ff f9f0 	bl	10005e74 <_ZN6FILTER13triggerAttackEh>
10006a94:	f7ff fd26 	bl	100064e4 <_ZN3MOD13triggerAttackEv>
10006a98:	f240 1301 	movw	r3, #257	@ 0x101
10006a9c:	1b2d      	subs	r5, r5, r4
10006a9e:	eb07 0585 	add.w	r5, r7, r5, lsl #2
10006aa2:	84eb      	strh	r3, [r5, #38]	@ 0x26
10006aa4:	4630      	mov	r0, r6
10006aa6:	f885 6025 	strb.w	r6, [r5, #37]	@ 0x25
10006aaa:	f7ff ffc1 	bl	10006a30 <_Z12getFrequencyh>
10006aae:	2301      	movs	r3, #1
10006ab0:	4602      	mov	r2, r0
10006ab2:	ebc4 1404 	rsb	r4, r4, r4, lsl #4
10006ab6:	eb07 0084 	add.w	r0, r7, r4, lsl #2
10006aba:	62ea      	str	r2, [r5, #44]	@ 0x2c
10006abc:	f885 3028 	strb.w	r3, [r5, #40]	@ 0x28
10006ac0:	e8bd 40f8 	ldmia.w	sp!, {r3, r4, r5, r6, r7, lr}
10006ac4:	f7fe b9aa 	b.w	10004e1c <_ZN4ADSR8Envelope13triggerAttackEv>
10006ac8:	2002e7e8 	.word	0x2002e7e8

10006acc <_ZN5SYNTH8voiceOffEh>:
10006acc:	b570      	push	{r4, r5, r6, lr}
10006ace:	4e10      	ldr	r6, [pc, #64]	@ (10006b10 <_ZN5SYNTH8voiceOffEh+0x44>)
10006ad0:	ebc0 1300 	rsb	r3, r0, r0, lsl #4
10006ad4:	eb06 0383 	add.w	r3, r6, r3, lsl #2
10006ad8:	f893 3026 	ldrb.w	r3, [r3, #38]	@ 0x26
10006adc:	4604      	mov	r4, r0
10006ade:	0105      	lsls	r5, r0, #4
10006ae0:	b993      	cbnz	r3, 10006b08 <_ZN5SYNTH8voiceOffEh+0x3c>
10006ae2:	4620      	mov	r0, r4
10006ae4:	f7ff f9d4 	bl	10005e90 <_ZN6FILTER14triggerReleaseEh>
10006ae8:	f7ff fd10 	bl	1000650c <_ZN3MOD14triggerReleaseEv>
10006aec:	2300      	movs	r3, #0
10006aee:	1b2d      	subs	r5, r5, r4
10006af0:	eb06 0585 	add.w	r5, r6, r5, lsl #2
10006af4:	ebc4 1404 	rsb	r4, r4, r4, lsl #4
10006af8:	eb06 0084 	add.w	r0, r6, r4, lsl #2
10006afc:	f885 3026 	strb.w	r3, [r5, #38]	@ 0x26
10006b00:	e8bd 4070 	ldmia.w	sp!, {r4, r5, r6, lr}
10006b04:	f7fe b99a 	b.w	10004e3c <_ZN4ADSR8Envelope14triggerReleaseEv>
10006b08:	f7ff fcd6 	bl	100064b8 <_ZN3MOD14voicesDecreaseEv>
10006b0c:	e7e9      	b.n	10006ae2 <_ZN5SYNTH8voiceOffEh+0x16>
10006b0e:	bf00      	nop
10006b10:	2002e7e8 	.word	0x2002e7e8

10006b14 <_ZN5SYNTH4initEv>:
10006b14:	b508      	push	{r3, lr}
10006b16:	f7ff fc05 	bl	10006324 <_ZN3MOD4initEv>
10006b1a:	e8bd 4008 	ldmia.w	sp!, {r3, lr}
10006b1e:	f7ff b95f 	b.w	10005de0 <_ZN6FILTER4initEv>
10006b22:	bf00      	nop

10006b24 <_ZN5SYNTH7processEv>:
10006b24:	2300      	movs	r3, #0
10006b26:	e92d 4ff0 	stmdb	sp!, {r4, r5, r6, r7, r8, r9, sl, fp, lr}
10006b2a:	4f58      	ldr	r7, [pc, #352]	@ (10006c8c <_ZN5SYNTH7processEv+0x168>)
10006b2c:	4d58      	ldr	r5, [pc, #352]	@ (10006c90 <_ZN5SYNTH7processEv+0x16c>)
10006b2e:	463c      	mov	r4, r7
10006b30:	b083      	sub	sp, #12
10006b32:	f8c7 31e0 	str.w	r3, [r7, #480]	@ 0x1e0
10006b36:	f7ff fc11 	bl	1000635c <_ZN3MOD6updateEv>
10006b3a:	8fea      	ldrh	r2, [r5, #62]	@ 0x3e
10006b3c:	8b2b      	ldrh	r3, [r5, #24]
10006b3e:	f8df 915c 	ldr.w	r9, [pc, #348]	@ 10006c9c <_ZN5SYNTH7processEv+0x178>
10006b42:	4413      	add	r3, r2
10006b44:	8aea      	ldrh	r2, [r5, #22]
10006b46:	b29b      	uxth	r3, r3
10006b48:	441a      	add	r2, r3
10006b4a:	82aa      	strh	r2, [r5, #20]
10006b4c:	8c6a      	ldrh	r2, [r5, #34]	@ 0x22
10006b4e:	4e51      	ldr	r6, [pc, #324]	@ (10006c94 <_ZN5SYNTH7processEv+0x170>)
10006b50:	4413      	add	r3, r2
10006b52:	f8df 814c 	ldr.w	r8, [pc, #332]	@ 10006ca0 <_ZN5SYNTH7processEv+0x17c>
10006b56:	f507 7af0 	add.w	sl, r7, #480	@ 0x1e0
10006b5a:	842b      	strh	r3, [r5, #32]
10006b5c:	f894 0024 	ldrb.w	r0, [r4, #36]	@ 0x24
10006b60:	f899 3000 	ldrb.w	r3, [r9]
10006b64:	f7ff f99e 	bl	10005ea4 <_ZN6FILTER6updateEh>
10006b68:	4620      	mov	r0, r4
10006b6a:	f7fe f983 	bl	10004e74 <_ZN4ADSR8Envelope6updateEv>
10006b6e:	e9d4 320c 	ldrd	r3, r2, [r4, #48]	@ 0x30
10006b72:	f9b5 003a 	ldrsh.w	r0, [r5, #58]	@ 0x3a
10006b76:	4413      	add	r3, r2
10006b78:	f894 1027 	ldrb.w	r1, [r4, #39]	@ 0x27
10006b7c:	4403      	add	r3, r0
10006b7e:	6363      	str	r3, [r4, #52]	@ 0x34
10006b80:	b119      	cbz	r1, 10006b8a <_ZN5SYNTH7processEv+0x66>
10006b82:	f894 2020 	ldrb.w	r2, [r4, #32]
10006b86:	2a04      	cmp	r2, #4
10006b88:	d06f      	beq.n	10006c6a <_ZN5SYNTH7processEv+0x146>
10006b8a:	f8b5 c014 	ldrh.w	ip, [r5, #20]
10006b8e:	f3c3 3207 	ubfx	r2, r3, #12, #8
10006b92:	1c51      	adds	r1, r2, #1
10006b94:	eb02 000c 	add.w	r0, r2, ip
10006b98:	4461      	add	r1, ip
10006b9a:	f3c0 020c 	ubfx	r2, r0, #0, #13
10006b9e:	f3c1 010c 	ubfx	r1, r1, #0, #13
10006ba2:	f936 2012 	ldrsh.w	r2, [r6, r2, lsl #1]
10006ba6:	f936 1011 	ldrsh.w	r1, [r6, r1, lsl #1]
10006baa:	f3c3 000b 	ubfx	r0, r3, #0, #12
10006bae:	1a89      	subs	r1, r1, r2
10006bb0:	fb01 f000 	mul.w	r0, r1, r0
10006bb4:	f8b5 c038 	ldrh.w	ip, [r5, #56]	@ 0x38
10006bb8:	eb02 3210 	add.w	r2, r2, r0, lsr #12
10006bbc:	0859      	lsrs	r1, r3, #1
10006bbe:	b212      	sxth	r2, r2
10006bc0:	f1bc 0f00 	cmp.w	ip, #0
10006bc4:	d002      	beq.n	10006bcc <_ZN5SYNTH7processEv+0xa8>
10006bc6:	fbb3 f1fc 	udiv	r1, r3, ip
10006bca:	4419      	add	r1, r3
10006bcc:	8c2b      	ldrh	r3, [r5, #32]
10006bce:	f3c1 3107 	ubfx	r1, r1, #12, #8
10006bd2:	4419      	add	r1, r3
10006bd4:	f936 0011 	ldrsh.w	r0, [r6, r1, lsl #1]
10006bd8:	8d6b      	ldrh	r3, [r5, #42]	@ 0x2a
10006bda:	fb03 f000 	mul.w	r0, r3, r0
10006bde:	eb02 4220 	add.w	r2, r2, r0, asr #16
10006be2:	63a2      	str	r2, [r4, #56]	@ 0x38
10006be4:	f7f9 fc2e 	bl	10000444 <_ZN6RANDOM9getSignalEv>
10006be8:	4621      	mov	r1, r4
10006bea:	6ba3      	ldr	r3, [r4, #56]	@ 0x38
10006bec:	f8b5 e036 	ldrh.w	lr, [r5, #54]	@ 0x36
10006bf0:	f340 008f 	sbfx	r0, r0, #2, #16
10006bf4:	fb0e f000 	mul.w	r0, lr, r0
10006bf8:	9301      	str	r3, [sp, #4]
10006bfa:	69a3      	ldr	r3, [r4, #24]
10006bfc:	f8b5 2040 	ldrh.w	r2, [r5, #64]	@ 0x40
10006c00:	ea4f 2c13 	mov.w	ip, r3, lsr #8
10006c04:	9b01      	ldr	r3, [sp, #4]
10006c06:	f8b5 b03c 	ldrh.w	fp, [r5, #60]	@ 0x3c
10006c0a:	eb03 4020 	add.w	r0, r3, r0, asr #16
10006c0e:	fb88 e300 	smull	lr, r3, r8, r0
10006c12:	eba3 73e0 	sub.w	r3, r3, r0, asr #31
10006c16:	fb0c f303 	mul.w	r3, ip, r3
10006c1a:	eba2 020b 	sub.w	r2, r2, fp
10006c1e:	141b      	asrs	r3, r3, #16
10006c20:	fb02 f303 	mul.w	r3, r2, r3
10006c24:	141b      	asrs	r3, r3, #16
10006c26:	343c      	adds	r4, #60	@ 0x3c
10006c28:	f841 3f38 	str.w	r3, [r1, #56]!
10006c2c:	f814 0c18 	ldrb.w	r0, [r4, #-24]
10006c30:	f7ff f942 	bl	10005eb8 <_ZN6FILTER7processEhRl>
10006c34:	f854 2c04 	ldr.w	r2, [r4, #-4]
10006c38:	f8d7 31e0 	ldr.w	r3, [r7, #480]	@ 0x1e0
10006c3c:	45a2      	cmp	sl, r4
10006c3e:	4413      	add	r3, r2
10006c40:	f8c7 31e0 	str.w	r3, [r7, #480]	@ 0x1e0
10006c44:	d18a      	bne.n	10006b5c <_ZN5SYNTH7processEv+0x38>
10006c46:	109b      	asrs	r3, r3, #2
10006c48:	4813      	ldr	r0, [pc, #76]	@ (10006c98 <_ZN5SYNTH7processEv+0x174>)
10006c4a:	f8c7 31e0 	str.w	r3, [r7, #480]	@ 0x1e0
10006c4e:	f7ff fa5b 	bl	10006108 <_ZN2FX8SOFTCLIP7processERl>
10006c52:	4811      	ldr	r0, [pc, #68]	@ (10006c98 <_ZN5SYNTH7processEv+0x174>)
10006c54:	f7ff fa8e 	bl	10006174 <_ZN2FX8HARDCLIP9process16ERl>
10006c58:	f8d7 01e0 	ldr.w	r0, [r7, #480]	@ 0x1e0
10006c5c:	f500 4000 	add.w	r0, r0, #32768	@ 0x8000
10006c60:	f3c0 100f 	ubfx	r0, r0, #4, #16
10006c64:	b003      	add	sp, #12
10006c66:	e8bd 8ff0 	ldmia.w	sp!, {r4, r5, r6, r7, r8, r9, sl, fp, pc}
10006c6a:	f04f 0300 	mov.w	r3, #0
10006c6e:	f884 3027 	strb.w	r3, [r4, #39]	@ 0x27
10006c72:	f884 3025 	strb.w	r3, [r4, #37]	@ 0x25
10006c76:	2300      	movs	r3, #0
10006c78:	f894 0024 	ldrb.w	r0, [r4, #36]	@ 0x24
10006c7c:	e9c4 330b 	strd	r3, r3, [r4, #44]	@ 0x2c
10006c80:	6363      	str	r3, [r4, #52]	@ 0x34
10006c82:	f7fd f9f7 	bl	10004074 <_ZN5QUEUE11releaseSendEh>
10006c86:	6b63      	ldr	r3, [r4, #52]	@ 0x34
10006c88:	e77f      	b.n	10006b8a <_ZN5SYNTH7processEv+0x66>
10006c8a:	bf00      	nop
10006c8c:	2002e7e8 	.word	0x2002e7e8
10006c90:	2002d0f4 	.word	0x2002d0f4
10006c94:	100119fc 	.word	0x100119fc
10006c98:	2002e9c8 	.word	0x2002e9c8
10006c9c:	20030031 	.word	0x20030031
10006ca0:	55555556 	.word	0x55555556

10006ca4 <_ZN5SYNTH19calculateIncrementsEv>:
10006ca4:	b5f0      	push	{r4, r5, r6, r7, lr}
10006ca6:	4c22      	ldr	r4, [pc, #136]	@ (10006d30 <_ZN5SYNTH19calculateIncrementsEv+0x8c>)
10006ca8:	7823      	ldrb	r3, [r4, #0]
10006caa:	b313      	cbz	r3, 10006cf2 <_ZN5SYNTH19calculateIncrementsEv+0x4e>
10006cac:	2001      	movs	r0, #1
10006cae:	f04f 0c00 	mov.w	ip, #0
10006cb2:	4a20      	ldr	r2, [pc, #128]	@ (10006d34 <_ZN5SYNTH19calculateIncrementsEv+0x90>)
10006cb4:	4b20      	ldr	r3, [pc, #128]	@ (10006d38 <_ZN5SYNTH19calculateIncrementsEv+0x94>)
10006cb6:	8b96      	ldrh	r6, [r2, #28]
10006cb8:	f8b2 e01a 	ldrh.w	lr, [r2, #26]
10006cbc:	4d1f      	ldr	r5, [pc, #124]	@ (10006d3c <_ZN5SYNTH19calculateIncrementsEv+0x98>)
10006cbe:	f503 71f0 	add.w	r1, r3, #480	@ 0x1e0
10006cc2:	f893 2027 	ldrb.w	r2, [r3, #39]	@ 0x27
10006cc6:	f883 0028 	strb.w	r0, [r3, #40]	@ 0x28
10006cca:	b162      	cbz	r2, 10006ce6 <_ZN5SYNTH19calculateIncrementsEv+0x42>
10006ccc:	6ada      	ldr	r2, [r3, #44]	@ 0x2c
10006cce:	f883 c028 	strb.w	ip, [r3, #40]	@ 0x28
10006cd2:	fb06 f202 	mul.w	r2, r6, r2
10006cd6:	0a92      	lsrs	r2, r2, #10
10006cd8:	fa02 f20e 	lsl.w	r2, r2, lr
10006cdc:	0312      	lsls	r2, r2, #12
10006cde:	fba5 7202 	umull	r7, r2, r5, r2
10006ce2:	0bd2      	lsrs	r2, r2, #15
10006ce4:	631a      	str	r2, [r3, #48]	@ 0x30
10006ce6:	333c      	adds	r3, #60	@ 0x3c
10006ce8:	428b      	cmp	r3, r1
10006cea:	d1ea      	bne.n	10006cc2 <_ZN5SYNTH19calculateIncrementsEv+0x1e>
10006cec:	2300      	movs	r3, #0
10006cee:	7023      	strb	r3, [r4, #0]
10006cf0:	bdf0      	pop	{r4, r5, r6, r7, pc}
10006cf2:	4a10      	ldr	r2, [pc, #64]	@ (10006d34 <_ZN5SYNTH19calculateIncrementsEv+0x90>)
10006cf4:	f003 00ff 	and.w	r0, r3, #255	@ 0xff
10006cf8:	4b0f      	ldr	r3, [pc, #60]	@ (10006d38 <_ZN5SYNTH19calculateIncrementsEv+0x94>)
10006cfa:	8b96      	ldrh	r6, [r2, #28]
10006cfc:	8b55      	ldrh	r5, [r2, #26]
10006cfe:	4c0f      	ldr	r4, [pc, #60]	@ (10006d3c <_ZN5SYNTH19calculateIncrementsEv+0x98>)
10006d00:	f503 71f0 	add.w	r1, r3, #480	@ 0x1e0
10006d04:	f893 2027 	ldrb.w	r2, [r3, #39]	@ 0x27
10006d08:	b172      	cbz	r2, 10006d28 <_ZN5SYNTH19calculateIncrementsEv+0x84>
10006d0a:	f893 2028 	ldrb.w	r2, [r3, #40]	@ 0x28
10006d0e:	b15a      	cbz	r2, 10006d28 <_ZN5SYNTH19calculateIncrementsEv+0x84>
10006d10:	6ada      	ldr	r2, [r3, #44]	@ 0x2c
10006d12:	f883 0028 	strb.w	r0, [r3, #40]	@ 0x28
10006d16:	fb06 f202 	mul.w	r2, r6, r2
10006d1a:	0a92      	lsrs	r2, r2, #10
10006d1c:	40aa      	lsls	r2, r5
10006d1e:	0312      	lsls	r2, r2, #12
10006d20:	fba4 7202 	umull	r7, r2, r4, r2
10006d24:	0bd2      	lsrs	r2, r2, #15
10006d26:	631a      	str	r2, [r3, #48]	@ 0x30
10006d28:	333c      	adds	r3, #60	@ 0x3c
10006d2a:	428b      	cmp	r3, r1
10006d2c:	d1ea      	bne.n	10006d04 <_ZN5SYNTH19calculateIncrementsEv+0x60>
10006d2e:	bdf0      	pop	{r4, r5, r6, r7, pc}
10006d30:	20030032 	.word	0x20030032
10006d34:	2002d0f4 	.word	0x2002d0f4
10006d38:	2002e7e8 	.word	0x2002e7e8
10006d3c:	be37c63b 	.word	0xbe37c63b

10006d40 <_ZN5SYNTH12setWaveShapeEt>:
10006d40:	4b02      	ldr	r3, [pc, #8]	@ (10006d4c <_ZN5SYNTH12setWaveShapeEt+0xc>)
10006d42:	0980      	lsrs	r0, r0, #6
10006d44:	0200      	lsls	r0, r0, #8
10006d46:	82d8      	strh	r0, [r3, #22]
10006d48:	4770      	bx	lr
10006d4a:	bf00      	nop
10006d4c:	2002d0f4 	.word	0x2002d0f4

10006d50 <_ZN5SYNTH13setWaveVectorEt>:
10006d50:	4b01      	ldr	r3, [pc, #4]	@ (10006d58 <_ZN5SYNTH13setWaveVectorEt+0x8>)
10006d52:	8318      	strh	r0, [r3, #24]
10006d54:	4770      	bx	lr
10006d56:	bf00      	nop
10006d58:	2002d0f4 	.word	0x2002d0f4

10006d5c <_ZN5SYNTH9setOctaveEt>:
10006d5c:	4b01      	ldr	r3, [pc, #4]	@ (10006d64 <_ZN5SYNTH9setOctaveEt+0x8>)
10006d5e:	0a00      	lsrs	r0, r0, #8
10006d60:	8358      	strh	r0, [r3, #26]
10006d62:	4770      	bx	lr
10006d64:	2002d0f4 	.word	0x2002d0f4

10006d68 <_ZN5SYNTH12setPitchBendEt>:
10006d68:	b508      	push	{r3, lr}
10006d6a:	f7ff fe73 	bl	10006a54 <_Z16logarithmicPitcht>
10006d6e:	2201      	movs	r2, #1
10006d70:	4902      	ldr	r1, [pc, #8]	@ (10006d7c <_ZN5SYNTH12setPitchBendEt+0x14>)
10006d72:	4b03      	ldr	r3, [pc, #12]	@ (10006d80 <_ZN5SYNTH12setPitchBendEt+0x18>)
10006d74:	8388      	strh	r0, [r1, #28]
10006d76:	701a      	strb	r2, [r3, #0]
10006d78:	bd08      	pop	{r3, pc}
10006d7a:	bf00      	nop
10006d7c:	2002d0f4 	.word	0x2002d0f4
10006d80:	20030032 	.word	0x20030032

10006d84 <_ZN5SYNTH9setAttackEt>:
10006d84:	4a05      	ldr	r2, [pc, #20]	@ (10006d9c <_ZN5SYNTH9setAttackEt+0x18>)
10006d86:	0080      	lsls	r0, r0, #2
10006d88:	6813      	ldr	r3, [r2, #0]
10006d8a:	4905      	ldr	r1, [pc, #20]	@ (10006da0 <_ZN5SYNTH9setAttackEt+0x1c>)
10006d8c:	fb00 3303 	mla	r3, r0, r3, r3
10006d90:	fba1 1303 	umull	r1, r3, r1, r3
10006d94:	099b      	lsrs	r3, r3, #6
10006d96:	6053      	str	r3, [r2, #4]
10006d98:	4770      	bx	lr
10006d9a:	bf00      	nop
10006d9c:	2002d0f4 	.word	0x2002d0f4
10006da0:	10624dd3 	.word	0x10624dd3

10006da4 <_ZN5SYNTH8setDecayEt>:
10006da4:	4a05      	ldr	r2, [pc, #20]	@ (10006dbc <_ZN5SYNTH8setDecayEt+0x18>)
10006da6:	0080      	lsls	r0, r0, #2
10006da8:	6813      	ldr	r3, [r2, #0]
10006daa:	4905      	ldr	r1, [pc, #20]	@ (10006dc0 <_ZN5SYNTH8setDecayEt+0x1c>)
10006dac:	fb00 3303 	mla	r3, r0, r3, r3
10006db0:	fba1 1303 	umull	r1, r3, r1, r3
10006db4:	099b      	lsrs	r3, r3, #6
10006db6:	6093      	str	r3, [r2, #8]
10006db8:	4770      	bx	lr
10006dba:	bf00      	nop
10006dbc:	2002d0f4 	.word	0x2002d0f4
10006dc0:	10624dd3 	.word	0x10624dd3

10006dc4 <_ZN5SYNTH10setSustainEt>:
10006dc4:	4b01      	ldr	r3, [pc, #4]	@ (10006dcc <_ZN5SYNTH10setSustainEt+0x8>)
10006dc6:	0180      	lsls	r0, r0, #6
10006dc8:	60d8      	str	r0, [r3, #12]
10006dca:	4770      	bx	lr
10006dcc:	2002d0f4 	.word	0x2002d0f4

10006dd0 <_ZN5SYNTH10setReleaseEt>:
10006dd0:	4a05      	ldr	r2, [pc, #20]	@ (10006de8 <_ZN5SYNTH10setReleaseEt+0x18>)
10006dd2:	0080      	lsls	r0, r0, #2
10006dd4:	6813      	ldr	r3, [r2, #0]
10006dd6:	4905      	ldr	r1, [pc, #20]	@ (10006dec <_ZN5SYNTH10setReleaseEt+0x1c>)
10006dd8:	fb00 3303 	mla	r3, r0, r3, r3
10006ddc:	fba1 1303 	umull	r1, r3, r1, r3
10006de0:	099b      	lsrs	r3, r3, #6
10006de2:	6113      	str	r3, [r2, #16]
10006de4:	4770      	bx	lr
10006de6:	bf00      	nop
10006de8:	2002d0f4 	.word	0x2002d0f4
10006dec:	10624dd3 	.word	0x10624dd3

10006df0 <_ZN5SYNTH15modulateVibratoEt>:
10006df0:	b082      	sub	sp, #8
10006df2:	9001      	str	r0, [sp, #4]
10006df4:	9b01      	ldr	r3, [sp, #4]
10006df6:	4a05      	ldr	r2, [pc, #20]	@ (10006e0c <_ZN5SYNTH15modulateVibratoEt+0x1c>)
10006df8:	f5a3 43ff 	sub.w	r3, r3, #32640	@ 0x7f80
10006dfc:	3b7f      	subs	r3, #127	@ 0x7f
10006dfe:	9301      	str	r3, [sp, #4]
10006e00:	9b01      	ldr	r3, [sp, #4]
10006e02:	115b      	asrs	r3, r3, #5
10006e04:	8753      	strh	r3, [r2, #58]	@ 0x3a
10006e06:	b002      	add	sp, #8
10006e08:	4770      	bx	lr
10006e0a:	bf00      	nop
10006e0c:	2002d0f4 	.word	0x2002d0f4

10006e10 <_ZN5SYNTH15modulateTremeloEt>:
10006e10:	4b01      	ldr	r3, [pc, #4]	@ (10006e18 <_ZN5SYNTH15modulateTremeloEt+0x8>)
10006e12:	8798      	strh	r0, [r3, #60]	@ 0x3c
10006e14:	4770      	bx	lr
10006e16:	bf00      	nop
10006e18:	2002d0f4 	.word	0x2002d0f4

10006e1c <_ZN5SYNTH14modulateVectorEt>:
10006e1c:	4b01      	ldr	r3, [pc, #4]	@ (10006e24 <_ZN5SYNTH14modulateVectorEt+0x8>)
10006e1e:	0980      	lsrs	r0, r0, #6
10006e20:	87d8      	strh	r0, [r3, #62]	@ 0x3e
10006e22:	4770      	bx	lr
10006e24:	2002d0f4 	.word	0x2002d0f4

10006e28 <_ZN5SYNTH8setNoiseEt>:
10006e28:	4b01      	ldr	r3, [pc, #4]	@ (10006e30 <_ZN5SYNTH8setNoiseEt+0x8>)
10006e2a:	0180      	lsls	r0, r0, #6
10006e2c:	86d8      	strh	r0, [r3, #54]	@ 0x36
10006e2e:	4770      	bx	lr
10006e30:	2002d0f4 	.word	0x2002d0f4

10006e34 <_ZN5SYNTH9setDetuneEt>:
10006e34:	b508      	push	{r3, lr}
10006e36:	f7ff fe13 	bl	10006a60 <_Z16logPotentiometert>
10006e3a:	b110      	cbz	r0, 10006e42 <_ZN5SYNTH9setDetuneEt+0xe>
10006e3c:	f5c0 6080 	rsb	r0, r0, #1024	@ 0x400
10006e40:	b280      	uxth	r0, r0
10006e42:	4b01      	ldr	r3, [pc, #4]	@ (10006e48 <_ZN5SYNTH9setDetuneEt+0x14>)
10006e44:	8718      	strh	r0, [r3, #56]	@ 0x38
10006e46:	bd08      	pop	{r3, pc}
10006e48:	2002d0f4 	.word	0x2002d0f4

10006e4c <_ZN5SYNTH11setOsc2WaveEt>:
10006e4c:	4b02      	ldr	r3, [pc, #8]	@ (10006e58 <_ZN5SYNTH11setOsc2WaveEt+0xc>)
10006e4e:	0980      	lsrs	r0, r0, #6
10006e50:	0200      	lsls	r0, r0, #8
10006e52:	8458      	strh	r0, [r3, #34]	@ 0x22
10006e54:	4770      	bx	lr
10006e56:	bf00      	nop
10006e58:	2002d0f4 	.word	0x2002d0f4

10006e5c <_GLOBAL__sub_I__ZN5SYNTH7voiceOnEhh>:
10006e5c:	2200      	movs	r2, #0
10006e5e:	f46f 437e 	mvn.w	r3, #65024	@ 0xfe00
10006e62:	4929      	ldr	r1, [pc, #164]	@ (10006f08 <_GLOBAL__sub_I__ZN5SYNTH7voiceOnEhh+0xac>)
10006e64:	4829      	ldr	r0, [pc, #164]	@ (10006f0c <_GLOBAL__sub_I__ZN5SYNTH7voiceOnEhh+0xb0>)
10006e66:	b570      	push	{r4, r5, r6, lr}
10006e68:	f04f 0c04 	mov.w	ip, #4
10006e6c:	f64a 4544 	movw	r5, #44100	@ 0xac44
10006e70:	f64f 74ff 	movw	r4, #65535	@ 0xffff
10006e74:	e9c1 2306 	strd	r2, r3, [r1, #24]
10006e78:	e9c1 2309 	strd	r2, r3, [r1, #36]	@ 0x24
10006e7c:	e9c1 230c 	strd	r2, r3, [r1, #48]	@ 0x30
10006e80:	4603      	mov	r3, r0
10006e82:	600d      	str	r5, [r1, #0]
10006e84:	f8a1 4040 	strh.w	r4, [r1, #64]	@ 0x40
10006e88:	82ca      	strh	r2, [r1, #22]
10006e8a:	844a      	strh	r2, [r1, #34]	@ 0x22
10006e8c:	85ca      	strh	r2, [r1, #46]	@ 0x2e
10006e8e:	870a      	strh	r2, [r1, #56]	@ 0x38
10006e90:	eb01 060c 	add.w	r6, r1, ip
10006e94:	f101 0508 	add.w	r5, r1, #8
10006e98:	f101 040c 	add.w	r4, r1, #12
10006e9c:	f500 7ef0 	add.w	lr, r0, #480	@ 0x1e0
10006ea0:	3110      	adds	r1, #16
10006ea2:	f883 c020 	strb.w	ip, [r3, #32]
10006ea6:	f883 2024 	strb.w	r2, [r3, #36]	@ 0x24
10006eaa:	f883 2026 	strb.w	r2, [r3, #38]	@ 0x26
10006eae:	f883 2027 	strb.w	r2, [r3, #39]	@ 0x27
10006eb2:	f883 2028 	strb.w	r2, [r3, #40]	@ 0x28
10006eb6:	e9c3 6500 	strd	r6, r5, [r3]
10006eba:	e9c3 4102 	strd	r4, r1, [r3, #8]
10006ebe:	e9c3 2204 	strd	r2, r2, [r3, #16]
10006ec2:	e9c3 2206 	strd	r2, r2, [r3, #24]
10006ec6:	e9c3 220b 	strd	r2, r2, [r3, #44]	@ 0x2c
10006eca:	e9c3 220d 	strd	r2, r2, [r3, #52]	@ 0x34
10006ece:	333c      	adds	r3, #60	@ 0x3c
10006ed0:	459e      	cmp	lr, r3
10006ed2:	d1e6      	bne.n	10006ea2 <_GLOBAL__sub_I__ZN5SYNTH7voiceOnEhh+0x46>
10006ed4:	2301      	movs	r3, #1
10006ed6:	2102      	movs	r1, #2
10006ed8:	2505      	movs	r5, #5
10006eda:	2403      	movs	r4, #3
10006edc:	f8c0 21e0 	str.w	r2, [r0, #480]	@ 0x1e0
10006ee0:	f880 2024 	strb.w	r2, [r0, #36]	@ 0x24
10006ee4:	f880 3060 	strb.w	r3, [r0, #96]	@ 0x60
10006ee8:	2206      	movs	r2, #6
10006eea:	2307      	movs	r3, #7
10006eec:	f880 c114 	strb.w	ip, [r0, #276]	@ 0x114
10006ef0:	f880 5150 	strb.w	r5, [r0, #336]	@ 0x150
10006ef4:	f880 40d8 	strb.w	r4, [r0, #216]	@ 0xd8
10006ef8:	f880 109c 	strb.w	r1, [r0, #156]	@ 0x9c
10006efc:	f880 218c 	strb.w	r2, [r0, #396]	@ 0x18c
10006f00:	f880 31c8 	strb.w	r3, [r0, #456]	@ 0x1c8
10006f04:	bd70      	pop	{r4, r5, r6, pc}
10006f06:	bf00      	nop
10006f08:	2002d0f4 	.word	0x2002d0f4
10006f0c:	2002e7e8 	.word	0x2002e7e8

10006f10 <tud_msc_inquiry_cb>:
10006f10:	e92d 47f0 	stmdb	sp!, {r4, r5, r6, r7, r8, r9, sl, lr}
10006f14:	b08a      	sub	sp, #40	@ 0x28
10006f16:	ad06      	add	r5, sp, #24
10006f18:	4696      	mov	lr, r2
10006f1a:	460f      	mov	r7, r1
10006f1c:	462c      	mov	r4, r5
10006f1e:	4a16      	ldr	r2, [pc, #88]	@ (10006f78 <tud_msc_inquiry_cb+0x68>)
10006f20:	f10d 0c0c 	add.w	ip, sp, #12
10006f24:	ca07      	ldmia	r2, {r0, r1, r2}
10006f26:	e8ac 0003 	stmia.w	ip!, {r0, r1}
10006f2a:	469c      	mov	ip, r3
10006f2c:	f8df a04c 	ldr.w	sl, [pc, #76]	@ 10006f7c <tud_msc_inquiry_cb+0x6c>
10006f30:	f8df 904c 	ldr.w	r9, [pc, #76]	@ 10006f80 <tud_msc_inquiry_cb+0x70>
10006f34:	e89a 000f 	ldmia.w	sl, {r0, r1, r2, r3}
10006f38:	ae01      	add	r6, sp, #4
10006f3a:	c507      	stmia	r5!, {r0, r1, r2}
10006f3c:	e899 0003 	ldmia.w	r9, {r0, r1}
10006f40:	e886 0003 	stmia.w	r6, {r0, r1}
10006f44:	f10d 080c 	add.w	r8, sp, #12
10006f48:	e8b8 0003 	ldmia.w	r8!, {r0, r1}
10006f4c:	88b5      	ldrh	r5, [r6, #4]
10006f4e:	6038      	str	r0, [r7, #0]
10006f50:	6079      	str	r1, [r7, #4]
10006f52:	79b3      	ldrb	r3, [r6, #6]
10006f54:	cc07      	ldmia	r4!, {r0, r1, r2}
10006f56:	f8ce 0000 	str.w	r0, [lr]
10006f5a:	9801      	ldr	r0, [sp, #4]
10006f5c:	f8ce 1004 	str.w	r1, [lr, #4]
10006f60:	f8ce 2008 	str.w	r2, [lr, #8]
10006f64:	f8ac 5004 	strh.w	r5, [ip, #4]
10006f68:	f8cc 0000 	str.w	r0, [ip]
10006f6c:	f88c 3006 	strb.w	r3, [ip, #6]
10006f70:	b00a      	add	sp, #40	@ 0x28
10006f72:	e8bd 87f0 	ldmia.w	sp!, {r4, r5, r6, r7, r8, r9, sl, pc}
10006f76:	bf00      	nop
10006f78:	100159fc 	.word	0x100159fc
10006f7c:	10015a08 	.word	0x10015a08
10006f80:	10015a18 	.word	0x10015a18

10006f84 <tud_msc_test_unit_ready_cb>:
10006f84:	b508      	push	{r3, lr}
10006f86:	4b06      	ldr	r3, [pc, #24]	@ (10006fa0 <tud_msc_test_unit_ready_cb+0x1c>)
10006f88:	781b      	ldrb	r3, [r3, #0]
10006f8a:	b90b      	cbnz	r3, 10006f90 <tud_msc_test_unit_ready_cb+0xc>
10006f8c:	2001      	movs	r0, #1
10006f8e:	bd08      	pop	{r3, pc}
10006f90:	2300      	movs	r3, #0
10006f92:	223a      	movs	r2, #58	@ 0x3a
10006f94:	2102      	movs	r1, #2
10006f96:	f005 f9c5 	bl	1000c324 <tud_msc_set_sense>
10006f9a:	2000      	movs	r0, #0
10006f9c:	bd08      	pop	{r3, pc}
10006f9e:	bf00      	nop
10006fa0:	2003000d 	.word	0x2003000d

10006fa4 <tud_msc_capacity_cb>:
10006fa4:	2010      	movs	r0, #16
10006fa6:	f44f 7300 	mov.w	r3, #512	@ 0x200
10006faa:	6008      	str	r0, [r1, #0]
10006fac:	8013      	strh	r3, [r2, #0]
10006fae:	4770      	bx	lr

10006fb0 <tud_msc_start_stop_cb>:
10006fb0:	b103      	cbz	r3, 10006fb4 <tud_msc_start_stop_cb+0x4>
10006fb2:	b10a      	cbz	r2, 10006fb8 <tud_msc_start_stop_cb+0x8>
10006fb4:	2001      	movs	r0, #1
10006fb6:	4770      	bx	lr
10006fb8:	2201      	movs	r2, #1
10006fba:	4b02      	ldr	r3, [pc, #8]	@ (10006fc4 <tud_msc_start_stop_cb+0x14>)
10006fbc:	2001      	movs	r0, #1
10006fbe:	701a      	strb	r2, [r3, #0]
10006fc0:	4770      	bx	lr
10006fc2:	bf00      	nop
10006fc4:	2003000d 	.word	0x2003000d

10006fc8 <tud_msc_read10_cb>:
10006fc8:	290f      	cmp	r1, #15
10006fca:	d80a      	bhi.n	10006fe2 <tud_msc_read10_cb+0x1a>
10006fcc:	b508      	push	{r3, lr}
10006fce:	4618      	mov	r0, r3
10006fd0:	4b05      	ldr	r3, [pc, #20]	@ (10006fe8 <tud_msc_read10_cb+0x20>)
10006fd2:	eb02 2141 	add.w	r1, r2, r1, lsl #9
10006fd6:	4419      	add	r1, r3
10006fd8:	9a02      	ldr	r2, [sp, #8]
10006fda:	f006 fb51 	bl	1000d680 <memcpy>
10006fde:	9802      	ldr	r0, [sp, #8]
10006fe0:	bd08      	pop	{r3, pc}
10006fe2:	f04f 30ff 	mov.w	r0, #4294967295	@ 0xffffffff
10006fe6:	4770      	bx	lr
10006fe8:	200010ec 	.word	0x200010ec

10006fec <tud_msc_is_writable_cb>:
10006fec:	2001      	movs	r0, #1
10006fee:	4770      	bx	lr

10006ff0 <tud_msc_write10_cb>:
10006ff0:	290f      	cmp	r1, #15
10006ff2:	4608      	mov	r0, r1
10006ff4:	d80a      	bhi.n	1000700c <tud_msc_write10_cb+0x1c>
10006ff6:	b508      	push	{r3, lr}
10006ff8:	4619      	mov	r1, r3
10006ffa:	4b06      	ldr	r3, [pc, #24]	@ (10007014 <tud_msc_write10_cb+0x24>)
10006ffc:	eb02 2040 	add.w	r0, r2, r0, lsl #9
10007000:	4418      	add	r0, r3
10007002:	9a02      	ldr	r2, [sp, #8]
10007004:	f006 fb3c 	bl	1000d680 <memcpy>
10007008:	9802      	ldr	r0, [sp, #8]
1000700a:	bd08      	pop	{r3, pc}
1000700c:	f04f 30ff 	mov.w	r0, #4294967295	@ 0xffffffff
10007010:	4770      	bx	lr
10007012:	bf00      	nop
10007014:	200010ec 	.word	0x200010ec

10007018 <tud_msc_scsi_cb>:
10007018:	b508      	push	{r3, lr}
1000701a:	2220      	movs	r2, #32
1000701c:	2300      	movs	r3, #0
1000701e:	2105      	movs	r1, #5
10007020:	f005 f980 	bl	1000c324 <tud_msc_set_sense>
10007024:	f04f 30ff 	mov.w	r0, #4294967295	@ 0xffffffff
10007028:	bd08      	pop	{r3, pc}
1000702a:	bf00      	nop

1000702c <gpio_set_function>:
1000702c:	b410      	push	{r4}
1000702e:	f44f 7480 	mov.w	r4, #256	@ 0x100
10007032:	4b0c      	ldr	r3, [pc, #48]	@ (10007064 <gpio_set_function+0x38>)
10007034:	f853 2020 	ldr.w	r2, [r3, r0, lsl #2]
10007038:	eb03 0380 	add.w	r3, r3, r0, lsl #2
1000703c:	00c0      	lsls	r0, r0, #3
1000703e:	f082 0240 	eor.w	r2, r2, #64	@ 0x40
10007042:	f100 4080 	add.w	r0, r0, #1073741824	@ 0x40000000
10007046:	f503 5c80 	add.w	ip, r3, #4096	@ 0x1000
1000704a:	f002 02c0 	and.w	r2, r2, #192	@ 0xc0
1000704e:	f500 3020 	add.w	r0, r0, #163840	@ 0x28000
10007052:	f503 5340 	add.w	r3, r3, #12288	@ 0x3000
10007056:	f8cc 2000 	str.w	r2, [ip]
1000705a:	6041      	str	r1, [r0, #4]
1000705c:	601c      	str	r4, [r3, #0]
1000705e:	f85d 4b04 	ldr.w	r4, [sp], #4
10007062:	4770      	bx	lr
10007064:	40038004 	.word	0x40038004

10007068 <gpio_set_pulls>:
10007068:	4b0a      	ldr	r3, [pc, #40]	@ (10007094 <gpio_set_pulls+0x2c>)
1000706a:	2900      	cmp	r1, #0
1000706c:	bf14      	ite	ne
1000706e:	f04f 0c08 	movne.w	ip, #8
10007072:	f04f 0c00 	moveq.w	ip, #0
10007076:	eb03 0180 	add.w	r1, r3, r0, lsl #2
1000707a:	b10a      	cbz	r2, 10007080 <gpio_set_pulls+0x18>
1000707c:	f04c 0c04 	orr.w	ip, ip, #4
10007080:	f853 3020 	ldr.w	r3, [r3, r0, lsl #2]
10007084:	f501 5180 	add.w	r1, r1, #4096	@ 0x1000
10007088:	ea83 030c 	eor.w	r3, r3, ip
1000708c:	f003 030c 	and.w	r3, r3, #12
10007090:	600b      	str	r3, [r1, #0]
10007092:	4770      	bx	lr
10007094:	40038004 	.word	0x40038004

10007098 <gpio_set_slew_rate>:
10007098:	4b05      	ldr	r3, [pc, #20]	@ (100070b0 <gpio_set_slew_rate+0x18>)
1000709a:	f853 2020 	ldr.w	r2, [r3, r0, lsl #2]
1000709e:	eb03 0380 	add.w	r3, r3, r0, lsl #2
100070a2:	4051      	eors	r1, r2
100070a4:	f001 0101 	and.w	r1, r1, #1
100070a8:	f503 5380 	add.w	r3, r3, #4096	@ 0x1000
100070ac:	6019      	str	r1, [r3, #0]
100070ae:	4770      	bx	lr
100070b0:	40038004 	.word	0x40038004

100070b4 <gpio_set_drive_strength>:
100070b4:	4b06      	ldr	r3, [pc, #24]	@ (100070d0 <gpio_set_drive_strength+0x1c>)
100070b6:	f853 2020 	ldr.w	r2, [r3, r0, lsl #2]
100070ba:	eb03 0380 	add.w	r3, r3, r0, lsl #2
100070be:	ea82 1101 	eor.w	r1, r2, r1, lsl #4
100070c2:	f001 0130 	and.w	r1, r1, #48	@ 0x30
100070c6:	f503 5380 	add.w	r3, r3, #4096	@ 0x1000
100070ca:	6019      	str	r1, [r3, #0]
100070cc:	4770      	bx	lr
100070ce:	bf00      	nop
100070d0:	40038004 	.word	0x40038004

100070d4 <gpio_set_input_enabled>:
100070d4:	2240      	movs	r2, #64	@ 0x40
100070d6:	b121      	cbz	r1, 100070e2 <gpio_set_input_enabled+0xe>
100070d8:	4b04      	ldr	r3, [pc, #16]	@ (100070ec <gpio_set_input_enabled+0x18>)
100070da:	0080      	lsls	r0, r0, #2
100070dc:	4403      	add	r3, r0
100070de:	601a      	str	r2, [r3, #0]
100070e0:	4770      	bx	lr
100070e2:	4b03      	ldr	r3, [pc, #12]	@ (100070f0 <gpio_set_input_enabled+0x1c>)
100070e4:	0080      	lsls	r0, r0, #2
100070e6:	4403      	add	r3, r0
100070e8:	601a      	str	r2, [r3, #0]
100070ea:	4770      	bx	lr
100070ec:	4003a004 	.word	0x4003a004
100070f0:	4003b004 	.word	0x4003b004

100070f4 <gpio_init>:
100070f4:	b430      	push	{r4, r5}
100070f6:	2300      	movs	r3, #0
100070f8:	ec43 0044 	gpioc_bit_oe_put r0, r3
100070fc:	ec43 0040 	gpioc_bit_out_put r0, r3
10007100:	2505      	movs	r5, #5
10007102:	f44f 7480 	mov.w	r4, #256	@ 0x100
10007106:	4b0b      	ldr	r3, [pc, #44]	@ (10007134 <gpio_init+0x40>)
10007108:	00c2      	lsls	r2, r0, #3
1000710a:	f853 1020 	ldr.w	r1, [r3, r0, lsl #2]
1000710e:	eb03 0080 	add.w	r0, r3, r0, lsl #2
10007112:	f081 0140 	eor.w	r1, r1, #64	@ 0x40
10007116:	f102 4380 	add.w	r3, r2, #1073741824	@ 0x40000000
1000711a:	f503 3320 	add.w	r3, r3, #163840	@ 0x28000
1000711e:	f001 02c0 	and.w	r2, r1, #192	@ 0xc0
10007122:	f500 5180 	add.w	r1, r0, #4096	@ 0x1000
10007126:	f500 5040 	add.w	r0, r0, #12288	@ 0x3000
1000712a:	600a      	str	r2, [r1, #0]
1000712c:	605d      	str	r5, [r3, #4]
1000712e:	6004      	str	r4, [r0, #0]
10007130:	bc30      	pop	{r4, r5}
10007132:	4770      	bx	lr
10007134:	40038004 	.word	0x40038004

10007138 <panic>:
10007138:	b40f      	push	{r0, r1, r2, r3}
1000713a:	b500      	push	{lr}
1000713c:	b083      	sub	sp, #12
1000713e:	9c04      	ldr	r4, [sp, #16]
10007140:	4807      	ldr	r0, [pc, #28]	@ (10007160 <panic+0x28>)
10007142:	f002 ff15 	bl	10009f70 <__wrap_puts>
10007146:	b13c      	cbz	r4, 10007158 <panic+0x20>
10007148:	a905      	add	r1, sp, #20
1000714a:	4620      	mov	r0, r4
1000714c:	9101      	str	r1, [sp, #4]
1000714e:	f002 fda3 	bl	10009c98 <weak_raw_vprintf>
10007152:	4804      	ldr	r0, [pc, #16]	@ (10007164 <panic+0x2c>)
10007154:	f002 ff0c 	bl	10009f70 <__wrap_puts>
10007158:	2001      	movs	r0, #1
1000715a:	f002 fdb5 	bl	10009cc8 <_exit>
1000715e:	bf00      	nop
10007160:	10015a20 	.word	0x10015a20
10007164:	1000e364 	.word	0x1000e364

10007168 <hw_claim_lock>:
10007168:	f3ef 8010 	mrs	r0, PRIMASK
1000716c:	b672      	cpsid	i
1000716e:	4b06      	ldr	r3, [pc, #24]	@ (10007188 <hw_claim_lock+0x20>)
10007170:	e8d3 1fcf 	ldaexb	r1, [r3]
10007174:	2201      	movs	r2, #1
10007176:	2900      	cmp	r1, #0
10007178:	d1fa      	bne.n	10007170 <hw_claim_lock+0x8>
1000717a:	e8c3 2f41 	strexb	r1, r2, [r3]
1000717e:	2900      	cmp	r1, #0
10007180:	d1f6      	bne.n	10007170 <hw_claim_lock+0x8>
10007182:	f3bf 8f5f 	dmb	sy
10007186:	4770      	bx	lr
10007188:	2002f7c7 	.word	0x2002f7c7

1000718c <hw_claim_unlock>:
1000718c:	2300      	movs	r3, #0
1000718e:	4a03      	ldr	r2, [pc, #12]	@ (1000719c <hw_claim_unlock+0x10>)
10007190:	e8c2 3f8f 	stlb	r3, [r2]
10007194:	f380 8810 	msr	PRIMASK, r0
10007198:	4770      	bx	lr
1000719a:	bf00      	nop
1000719c:	2002f7c7 	.word	0x2002f7c7

100071a0 <hw_claim_or_assert>:
100071a0:	b570      	push	{r4, r5, r6, lr}
100071a2:	f3ef 8510 	mrs	r5, PRIMASK
100071a6:	b672      	cpsid	i
100071a8:	4c13      	ldr	r4, [pc, #76]	@ (100071f8 <hw_claim_or_assert+0x58>)
100071aa:	e8d4 cfcf 	ldaexb	ip, [r4]
100071ae:	2601      	movs	r6, #1
100071b0:	f1bc 0f00 	cmp.w	ip, #0
100071b4:	d1f9      	bne.n	100071aa <hw_claim_or_assert+0xa>
100071b6:	e8c4 6f4c 	strexb	ip, r6, [r4]
100071ba:	f1bc 0f00 	cmp.w	ip, #0
100071be:	d1f4      	bne.n	100071aa <hw_claim_or_assert+0xa>
100071c0:	f3bf 8f5f 	dmb	sy
100071c4:	f04f 0c01 	mov.w	ip, #1
100071c8:	ea4f 0ed1 	mov.w	lr, r1, lsr #3
100071cc:	f001 0307 	and.w	r3, r1, #7
100071d0:	fa0c f303 	lsl.w	r3, ip, r3
100071d4:	f810 c00e 	ldrb.w	ip, [r0, lr]
100071d8:	ea1c 0603 	ands.w	r6, ip, r3
100071dc:	d108      	bne.n	100071f0 <hw_claim_or_assert+0x50>
100071de:	ea4c 0303 	orr.w	r3, ip, r3
100071e2:	f800 300e 	strb.w	r3, [r0, lr]
100071e6:	e8c4 6f8f 	stlb	r6, [r4]
100071ea:	f385 8810 	msr	PRIMASK, r5
100071ee:	bd70      	pop	{r4, r5, r6, pc}
100071f0:	4610      	mov	r0, r2
100071f2:	f7ff ffa1 	bl	10007138 <panic>
100071f6:	bf00      	nop
100071f8:	2002f7c7 	.word	0x2002f7c7

100071fc <hw_claim_unused_from_range>:
100071fc:	b5f8      	push	{r3, r4, r5, r6, r7, lr}
100071fe:	f3ef 8510 	mrs	r5, PRIMASK
10007202:	b672      	cpsid	i
10007204:	4c23      	ldr	r4, [pc, #140]	@ (10007294 <hw_claim_unused_from_range+0x98>)
10007206:	e8d4 7fcf 	ldaexb	r7, [r4]
1000720a:	2601      	movs	r6, #1
1000720c:	2f00      	cmp	r7, #0
1000720e:	d1fa      	bne.n	10007206 <hw_claim_unused_from_range+0xa>
10007210:	e8c4 6f47 	strexb	r7, r6, [r4]
10007214:	2f00      	cmp	r7, #0
10007216:	d1f6      	bne.n	10007206 <hw_claim_unused_from_range+0xa>
10007218:	f3bf 8f5f 	dmb	sy
1000721c:	429a      	cmp	r2, r3
1000721e:	d827      	bhi.n	10007270 <hw_claim_unused_from_range+0x74>
10007220:	2601      	movs	r6, #1
10007222:	08d7      	lsrs	r7, r2, #3
10007224:	f810 e007 	ldrb.w	lr, [r0, r7]
10007228:	f002 0c07 	and.w	ip, r2, #7
1000722c:	fa06 fc0c 	lsl.w	ip, r6, ip
10007230:	ea1e 0f0c 	tst.w	lr, ip
10007234:	eb00 07d2 	add.w	r7, r0, r2, lsr #3
10007238:	d10d      	bne.n	10007256 <hw_claim_unused_from_range+0x5a>
1000723a:	e025      	b.n	10007288 <hw_claim_unused_from_range+0x8c>
1000723c:	ea4f 0ed2 	mov.w	lr, r2, lsr #3
10007240:	f810 e00e 	ldrb.w	lr, [r0, lr]
10007244:	f002 0c07 	and.w	ip, r2, #7
10007248:	fa06 fc0c 	lsl.w	ip, r6, ip
1000724c:	ea1e 0f0c 	tst.w	lr, ip
10007250:	eb00 07d2 	add.w	r7, r0, r2, lsr #3
10007254:	d018      	beq.n	10007288 <hw_claim_unused_from_range+0x8c>
10007256:	3201      	adds	r2, #1
10007258:	4293      	cmp	r3, r2
1000725a:	d2ef      	bcs.n	1000723c <hw_claim_unused_from_range+0x40>
1000725c:	f04f 30ff 	mov.w	r0, #4294967295	@ 0xffffffff
10007260:	2300      	movs	r3, #0
10007262:	e8c4 3f8f 	stlb	r3, [r4]
10007266:	f385 8810 	msr	PRIMASK, r5
1000726a:	4298      	cmp	r0, r3
1000726c:	db07      	blt.n	1000727e <hw_claim_unused_from_range+0x82>
1000726e:	bdf8      	pop	{r3, r4, r5, r6, r7, pc}
10007270:	2300      	movs	r3, #0
10007272:	e8c4 3f8f 	stlb	r3, [r4]
10007276:	f385 8810 	msr	PRIMASK, r5
1000727a:	f04f 30ff 	mov.w	r0, #4294967295	@ 0xffffffff
1000727e:	2900      	cmp	r1, #0
10007280:	d0f5      	beq.n	1000726e <hw_claim_unused_from_range+0x72>
10007282:	9806      	ldr	r0, [sp, #24]
10007284:	f7ff ff58 	bl	10007138 <panic>
10007288:	ea4e 0c0c 	orr.w	ip, lr, ip
1000728c:	4610      	mov	r0, r2
1000728e:	f887 c000 	strb.w	ip, [r7]
10007292:	e7e5      	b.n	10007260 <hw_claim_unused_from_range+0x64>
10007294:	2002f7c7 	.word	0x2002f7c7

10007298 <next_striped_spin_lock_num>:
10007298:	4a04      	ldr	r2, [pc, #16]	@ (100072ac <next_striped_spin_lock_num+0x14>)
1000729a:	7810      	ldrb	r0, [r2, #0]
1000729c:	1c43      	adds	r3, r0, #1
1000729e:	b2db      	uxtb	r3, r3
100072a0:	2b17      	cmp	r3, #23
100072a2:	bf88      	it	hi
100072a4:	2310      	movhi	r3, #16
100072a6:	7013      	strb	r3, [r2, #0]
100072a8:	4770      	bx	lr
100072aa:	bf00      	nop
100072ac:	200030ec 	.word	0x200030ec

100072b0 <spin_lock_claim_unused>:
100072b0:	b510      	push	{r4, lr}
100072b2:	4c05      	ldr	r4, [pc, #20]	@ (100072c8 <spin_lock_claim_unused+0x18>)
100072b4:	b082      	sub	sp, #8
100072b6:	4601      	mov	r1, r0
100072b8:	231f      	movs	r3, #31
100072ba:	2218      	movs	r2, #24
100072bc:	9400      	str	r4, [sp, #0]
100072be:	4803      	ldr	r0, [pc, #12]	@ (100072cc <spin_lock_claim_unused+0x1c>)
100072c0:	f7ff ff9c 	bl	100071fc <hw_claim_unused_from_range>
100072c4:	b002      	add	sp, #8
100072c6:	bd10      	pop	{r4, pc}
100072c8:	10015a30 	.word	0x10015a30
100072cc:	2002f954 	.word	0x2002f954

100072d0 <spinlock_set_extexclall>:
100072d0:	f04f 22e0 	mov.w	r2, #3758153728	@ 0xe000e000
100072d4:	6893      	ldr	r3, [r2, #8]
100072d6:	f043 5300 	orr.w	r3, r3, #536870912	@ 0x20000000
100072da:	6093      	str	r3, [r2, #8]
100072dc:	4770      	bx	lr
100072de:	bf00      	nop

100072e0 <spin_locks_reset>:
100072e0:	2100      	movs	r1, #0
100072e2:	4b04      	ldr	r3, [pc, #16]	@ (100072f4 <spin_locks_reset+0x14>)
100072e4:	f103 0220 	add.w	r2, r3, #32
100072e8:	e8c3 1f8f 	stlb	r1, [r3]
100072ec:	3301      	adds	r3, #1
100072ee:	4293      	cmp	r3, r2
100072f0:	d1fa      	bne.n	100072e8 <spin_locks_reset+0x8>
100072f2:	4770      	bx	lr
100072f4:	2002f7bc 	.word	0x2002f7bc

100072f8 <runtime_init_per_core_irq_priorities>:
100072f8:	f04f 3080 	mov.w	r0, #2155905152	@ 0x80808080
100072fc:	4b03      	ldr	r3, [pc, #12]	@ (1000730c <runtime_init_per_core_irq_priorities+0x14>)
100072fe:	4904      	ldr	r1, [pc, #16]	@ (10007310 <runtime_init_per_core_irq_priorities+0x18>)
10007300:	461a      	mov	r2, r3
10007302:	3304      	adds	r3, #4
10007304:	428b      	cmp	r3, r1
10007306:	6010      	str	r0, [r2, #0]
10007308:	d1fa      	bne.n	10007300 <runtime_init_per_core_irq_priorities+0x8>
1000730a:	4770      	bx	lr
1000730c:	e000e400 	.word	0xe000e400
10007310:	e000e434 	.word	0xe000e434

10007314 <irq_set_enabled>:
10007314:	2301      	movs	r3, #1
10007316:	f000 021f 	and.w	r2, r0, #31
1000731a:	4093      	lsls	r3, r2
1000731c:	0940      	lsrs	r0, r0, #5
1000731e:	b141      	cbz	r1, 10007332 <irq_set_enabled+0x1e>
10007320:	0080      	lsls	r0, r0, #2
10007322:	f100 4060 	add.w	r0, r0, #3758096384	@ 0xe0000000
10007326:	f500 4061 	add.w	r0, r0, #57600	@ 0xe100
1000732a:	f8c0 3180 	str.w	r3, [r0, #384]	@ 0x180
1000732e:	6003      	str	r3, [r0, #0]
10007330:	4770      	bx	lr
10007332:	4a02      	ldr	r2, [pc, #8]	@ (1000733c <irq_set_enabled+0x28>)
10007334:	3020      	adds	r0, #32
10007336:	f842 3020 	str.w	r3, [r2, r0, lsl #2]
1000733a:	4770      	bx	lr
1000733c:	e000e100 	.word	0xe000e100

10007340 <irq_is_enabled>:
10007340:	2301      	movs	r3, #1
10007342:	4a06      	ldr	r2, [pc, #24]	@ (1000735c <irq_is_enabled+0x1c>)
10007344:	0941      	lsrs	r1, r0, #5
10007346:	f852 2021 	ldr.w	r2, [r2, r1, lsl #2]
1000734a:	f000 001f 	and.w	r0, r0, #31
1000734e:	fa03 f000 	lsl.w	r0, r3, r0
10007352:	4210      	tst	r0, r2
10007354:	bf14      	ite	ne
10007356:	4618      	movne	r0, r3
10007358:	2000      	moveq	r0, #0
1000735a:	4770      	bx	lr
1000735c:	e000e100 	.word	0xe000e100

10007360 <irq_set_exclusive_handler>:
10007360:	b5f8      	push	{r3, r4, r5, r6, r7, lr}
10007362:	460d      	mov	r5, r1
10007364:	f3ef 8710 	mrs	r7, PRIMASK
10007368:	b672      	cpsid	i
1000736a:	4e12      	ldr	r6, [pc, #72]	@ (100073b4 <irq_set_exclusive_handler+0x54>)
1000736c:	e8d6 2fcf 	ldaexb	r2, [r6]
10007370:	2301      	movs	r3, #1
10007372:	2a00      	cmp	r2, #0
10007374:	d1fa      	bne.n	1000736c <irq_set_exclusive_handler+0xc>
10007376:	e8c6 3f42 	strexb	r2, r3, [r6]
1000737a:	2a00      	cmp	r2, #0
1000737c:	d1f6      	bne.n	1000736c <irq_set_exclusive_handler+0xc>
1000737e:	f3bf 8f5f 	dmb	sy
10007382:	4b0d      	ldr	r3, [pc, #52]	@ (100073b8 <irq_set_exclusive_handler+0x58>)
10007384:	f100 0410 	add.w	r4, r0, #16
10007388:	689b      	ldr	r3, [r3, #8]
1000738a:	4a0c      	ldr	r2, [pc, #48]	@ (100073bc <irq_set_exclusive_handler+0x5c>)
1000738c:	f853 3024 	ldr.w	r3, [r3, r4, lsl #2]
10007390:	4293      	cmp	r3, r2
10007392:	d003      	beq.n	1000739c <irq_set_exclusive_handler+0x3c>
10007394:	4299      	cmp	r1, r3
10007396:	d001      	beq.n	1000739c <irq_set_exclusive_handler+0x3c>
10007398:	f001 f89e 	bl	100084d8 <hard_assertion_failure>
1000739c:	4b06      	ldr	r3, [pc, #24]	@ (100073b8 <irq_set_exclusive_handler+0x58>)
1000739e:	689b      	ldr	r3, [r3, #8]
100073a0:	f843 5024 	str.w	r5, [r3, r4, lsl #2]
100073a4:	f3bf 8f5f 	dmb	sy
100073a8:	2300      	movs	r3, #0
100073aa:	e8c6 3f8f 	stlb	r3, [r6]
100073ae:	f387 8810 	msr	PRIMASK, r7
100073b2:	bdf8      	pop	{r3, r4, r5, r6, r7, pc}
100073b4:	2002f7c5 	.word	0x2002f7c5
100073b8:	e000ed00 	.word	0xe000ed00
100073bc:	1000011d 	.word	0x1000011d

100073c0 <irq_add_shared_handler>:
100073c0:	e92d 4ff0 	stmdb	sp!, {r4, r5, r6, r7, r8, r9, sl, fp, lr}
100073c4:	4680      	mov	r8, r0
100073c6:	468b      	mov	fp, r1
100073c8:	4617      	mov	r7, r2
100073ca:	b083      	sub	sp, #12
100073cc:	f3ef 8310 	mrs	r3, PRIMASK
100073d0:	b672      	cpsid	i
100073d2:	f8df a1d0 	ldr.w	sl, [pc, #464]	@ 100075a4 <irq_add_shared_handler+0x1e4>
100073d6:	9300      	str	r3, [sp, #0]
100073d8:	e8da 1fcf 	ldaexb	r1, [sl]
100073dc:	2301      	movs	r3, #1
100073de:	2900      	cmp	r1, #0
100073e0:	d1fa      	bne.n	100073d8 <irq_add_shared_handler+0x18>
100073e2:	e8ca 3f41 	strexb	r1, r3, [sl]
100073e6:	2900      	cmp	r1, #0
100073e8:	d1f6      	bne.n	100073d8 <irq_add_shared_handler+0x18>
100073ea:	f3bf 8f5f 	dmb	sy
100073ee:	4e66      	ldr	r6, [pc, #408]	@ (10007588 <irq_add_shared_handler+0x1c8>)
100073f0:	f996 5000 	ldrsb.w	r5, [r6]
100073f4:	2d00      	cmp	r5, #0
100073f6:	f2c0 80a0 	blt.w	1000753a <irq_add_shared_handler+0x17a>
100073fa:	4c64      	ldr	r4, [pc, #400]	@ (1000758c <irq_add_shared_handler+0x1cc>)
100073fc:	eb05 0345 	add.w	r3, r5, r5, lsl #1
10007400:	eb04 0083 	add.w	r0, r4, r3, lsl #2
10007404:	7981      	ldrb	r1, [r0, #6]
10007406:	f108 0810 	add.w	r8, r8, #16
1000740a:	7031      	strb	r1, [r6, #0]
1000740c:	4960      	ldr	r1, [pc, #384]	@ (10007590 <irq_add_shared_handler+0x1d0>)
1000740e:	009b      	lsls	r3, r3, #2
10007410:	6889      	ldr	r1, [r1, #8]
10007412:	4699      	mov	r9, r3
10007414:	f851 e028 	ldr.w	lr, [r1, r8, lsl #2]
10007418:	4606      	mov	r6, r0
1000741a:	ebae 0104 	sub.w	r1, lr, r4
1000741e:	292f      	cmp	r1, #47	@ 0x2f
10007420:	ea4f 0245 	mov.w	r2, r5, lsl #1
10007424:	d931      	bls.n	1000748a <irq_add_shared_handler+0xca>
10007426:	4b5b      	ldr	r3, [pc, #364]	@ (10007594 <irq_add_shared_handler+0x1d4>)
10007428:	459e      	cmp	lr, r3
1000742a:	f040 80a2 	bne.w	10007572 <irq_add_shared_handler+0x1b2>
1000742e:	4b5a      	ldr	r3, [pc, #360]	@ (10007598 <irq_add_shared_handler+0x1d8>)
10007430:	f109 0902 	add.w	r9, r9, #2
10007434:	44a1      	add	r9, r4
10007436:	3b04      	subs	r3, #4
10007438:	eba3 0309 	sub.w	r3, r3, r9
1000743c:	f3c3 034a 	ubfx	r3, r3, #1, #11
10007440:	ea6f 43c3 	mvn.w	r3, r3, lsl #19
10007444:	f44f 4121 	mov.w	r1, #41216	@ 0xa100
10007448:	ea6f 43d3 	mvn.w	r3, r3, lsr #19
1000744c:	4415      	add	r5, r2
1000744e:	f824 1025 	strh.w	r1, [r4, r5, lsl #2]
10007452:	eb04 0585 	add.w	r5, r4, r5, lsl #2
10007456:	806b      	strh	r3, [r5, #2]
10007458:	f64b 5301 	movw	r3, #48385	@ 0xbd01
1000745c:	80ab      	strh	r3, [r5, #4]
1000745e:	23ff      	movs	r3, #255	@ 0xff
10007460:	f046 0e01 	orr.w	lr, r6, #1
10007464:	71ef      	strb	r7, [r5, #7]
10007466:	f8c5 b008 	str.w	fp, [r5, #8]
1000746a:	71ab      	strb	r3, [r5, #6]
1000746c:	4b48      	ldr	r3, [pc, #288]	@ (10007590 <irq_add_shared_handler+0x1d0>)
1000746e:	689b      	ldr	r3, [r3, #8]
10007470:	f843 e028 	str.w	lr, [r3, r8, lsl #2]
10007474:	f3bf 8f5f 	dmb	sy
10007478:	2300      	movs	r3, #0
1000747a:	e8ca 3f8f 	stlb	r3, [sl]
1000747e:	9b00      	ldr	r3, [sp, #0]
10007480:	f383 8810 	msr	PRIMASK, r3
10007484:	b003      	add	sp, #12
10007486:	e8bd 8ff0 	ldmia.w	sp!, {r4, r5, r6, r7, r8, r9, sl, fp, pc}
1000748a:	f02e 0101 	bic.w	r1, lr, #1
1000748e:	f891 c007 	ldrb.w	ip, [r1, #7]
10007492:	45bc      	cmp	ip, r7
10007494:	d82b      	bhi.n	100074ee <irq_add_shared_handler+0x12e>
10007496:	f44f 4621 	mov.w	r6, #41216	@ 0xa100
1000749a:	52e6      	strh	r6, [r4, r3]
1000749c:	4b3e      	ldr	r3, [pc, #248]	@ (10007598 <irq_add_shared_handler+0x1d8>)
1000749e:	f109 0602 	add.w	r6, r9, #2
100074a2:	4426      	add	r6, r4
100074a4:	3b04      	subs	r3, #4
100074a6:	f109 0904 	add.w	r9, r9, #4
100074aa:	1b9b      	subs	r3, r3, r6
100074ac:	44a1      	add	r9, r4
100074ae:	1f0e      	subs	r6, r1, #4
100074b0:	71c7      	strb	r7, [r0, #7]
100074b2:	eba6 0609 	sub.w	r6, r6, r9
100074b6:	4f39      	ldr	r7, [pc, #228]	@ (1000759c <irq_add_shared_handler+0x1dc>)
100074b8:	f3c6 064a 	ubfx	r6, r6, #1, #11
100074bc:	433e      	orrs	r6, r7
100074be:	8086      	strh	r6, [r0, #4]
100074c0:	f3c3 034a 	ubfx	r3, r3, #1, #11
100074c4:	4e36      	ldr	r6, [pc, #216]	@ (100075a0 <irq_add_shared_handler+0x1e0>)
100074c6:	433b      	orrs	r3, r7
100074c8:	8043      	strh	r3, [r0, #2]
100074ca:	f64a 25aa 	movw	r5, #43690	@ 0xaaaa
100074ce:	460b      	mov	r3, r1
100074d0:	1b1b      	subs	r3, r3, r4
100074d2:	415b      	adcs	r3, r3
100074d4:	435d      	muls	r5, r3
100074d6:	0d2d      	lsrs	r5, r5, #20
100074d8:	f8c0 b008 	str.w	fp, [r0, #8]
100074dc:	7185      	strb	r5, [r0, #6]
100074de:	f040 0e01 	orr.w	lr, r0, #1
100074e2:	600e      	str	r6, [r1, #0]
100074e4:	e7c2      	b.n	1000746c <irq_add_shared_handler+0xac>
100074e6:	79c0      	ldrb	r0, [r0, #7]
100074e8:	42b8      	cmp	r0, r7
100074ea:	d92b      	bls.n	10007544 <irq_add_shared_handler+0x184>
100074ec:	4661      	mov	r1, ip
100074ee:	f991 3006 	ldrsb.w	r3, [r1, #6]
100074f2:	eb03 0043 	add.w	r0, r3, r3, lsl #1
100074f6:	eb04 0080 	add.w	r0, r4, r0, lsl #2
100074fa:	2b00      	cmp	r3, #0
100074fc:	4684      	mov	ip, r0
100074fe:	daf2      	bge.n	100074e6 <irq_add_shared_handler+0x126>
10007500:	f64b 5001 	movw	r0, #48385	@ 0xbd01
10007504:	9301      	str	r3, [sp, #4]
10007506:	1d0b      	adds	r3, r1, #4
10007508:	3e04      	subs	r6, #4
1000750a:	1af6      	subs	r6, r6, r3
1000750c:	f3c6 064a 	ubfx	r6, r6, #1, #11
10007510:	ea6f 46c6 	mvn.w	r6, r6, lsl #19
10007514:	ea6f 46d6 	mvn.w	r6, r6, lsr #19
10007518:	eb02 0c05 	add.w	ip, r2, r5
1000751c:	f8df 9080 	ldr.w	r9, [pc, #128]	@ 100075a0 <irq_add_shared_handler+0x1e0>
10007520:	9b01      	ldr	r3, [sp, #4]
10007522:	718d      	strb	r5, [r1, #6]
10007524:	eb04 058c 	add.w	r5, r4, ip, lsl #2
10007528:	808e      	strh	r6, [r1, #4]
1000752a:	f844 902c 	str.w	r9, [r4, ip, lsl #2]
1000752e:	80a8      	strh	r0, [r5, #4]
10007530:	71ab      	strb	r3, [r5, #6]
10007532:	71ef      	strb	r7, [r5, #7]
10007534:	f8c5 b008 	str.w	fp, [r5, #8]
10007538:	e798      	b.n	1000746c <irq_add_shared_handler+0xac>
1000753a:	f000 ffcd 	bl	100084d8 <hard_assertion_failure>
1000753e:	f996 5000 	ldrsb.w	r5, [r6]
10007542:	e75a      	b.n	100073fa <irq_add_shared_handler+0x3a>
10007544:	8888      	ldrh	r0, [r1, #4]
10007546:	9301      	str	r3, [sp, #4]
10007548:	0540      	lsls	r0, r0, #21
1000754a:	f101 0304 	add.w	r3, r1, #4
1000754e:	d415      	bmi.n	1000757c <irq_add_shared_handler+0x1bc>
10007550:	ea4f 5c60 	mov.w	ip, r0, asr #21
10007554:	f06f 0007 	mvn.w	r0, #7
10007558:	f10c 0c02 	add.w	ip, ip, #2
1000755c:	eba0 0009 	sub.w	r0, r0, r9
10007560:	eb03 0c4c 	add.w	ip, r3, ip, lsl #1
10007564:	1b00      	subs	r0, r0, r4
10007566:	4460      	add	r0, ip
10007568:	f3c0 004a 	ubfx	r0, r0, #1, #11
1000756c:	f440 4060 	orr.w	r0, r0, #57344	@ 0xe000
10007570:	e7ca      	b.n	10007508 <irq_add_shared_handler+0x148>
10007572:	9201      	str	r2, [sp, #4]
10007574:	f000 ffb0 	bl	100084d8 <hard_assertion_failure>
10007578:	9a01      	ldr	r2, [sp, #4]
1000757a:	e758      	b.n	1000742e <irq_add_shared_handler+0x6e>
1000757c:	f500 10ff 	add.w	r0, r0, #2088960	@ 0x1fe000
10007580:	f500 50ff 	add.w	r0, r0, #8160	@ 0x1fe0
10007584:	301f      	adds	r0, #31
10007586:	e7e3      	b.n	10007550 <irq_add_shared_handler+0x190>
10007588:	2003003e 	.word	0x2003003e
1000758c:	200030f0 	.word	0x200030f0
10007590:	e000ed00 	.word	0xe000ed00
10007594:	1000011d 	.word	0x1000011d
10007598:	20003120 	.word	0x20003120
1000759c:	ffffe000 	.word	0xffffe000
100075a0:	47804801 	.word	0x47804801
100075a4:	2002f7c5 	.word	0x2002f7c5

100075a8 <irq_remove_handler>:
100075a8:	e92d 4ff0 	stmdb	sp!, {r4, r5, r6, r7, r8, r9, sl, fp, lr}
100075ac:	b083      	sub	sp, #12
100075ae:	f3ef 8910 	mrs	r9, PRIMASK
100075b2:	b672      	cpsid	i
100075b4:	4e70      	ldr	r6, [pc, #448]	@ (10007778 <irq_remove_handler+0x1d0>)
100075b6:	e8d6 2fcf 	ldaexb	r2, [r6]
100075ba:	2301      	movs	r3, #1
100075bc:	2a00      	cmp	r2, #0
100075be:	d1fa      	bne.n	100075b6 <irq_remove_handler+0xe>
100075c0:	e8c6 3f42 	strexb	r2, r3, [r6]
100075c4:	2a00      	cmp	r2, #0
100075c6:	d1f6      	bne.n	100075b6 <irq_remove_handler+0xe>
100075c8:	f3bf 8f5f 	dmb	sy
100075cc:	4b6b      	ldr	r3, [pc, #428]	@ (1000777c <irq_remove_handler+0x1d4>)
100075ce:	f100 0710 	add.w	r7, r0, #16
100075d2:	689b      	ldr	r3, [r3, #8]
100075d4:	f853 5027 	ldr.w	r5, [r3, r7, lsl #2]
100075d8:	4b69      	ldr	r3, [pc, #420]	@ (10007780 <irq_remove_handler+0x1d8>)
100075da:	429d      	cmp	r5, r3
100075dc:	d042      	beq.n	10007664 <irq_remove_handler+0xbc>
100075de:	428d      	cmp	r5, r1
100075e0:	d04e      	beq.n	10007680 <irq_remove_handler+0xd8>
100075e2:	4c68      	ldr	r4, [pc, #416]	@ (10007784 <irq_remove_handler+0x1dc>)
100075e4:	1b2b      	subs	r3, r5, r4
100075e6:	2b2f      	cmp	r3, #47	@ 0x2f
100075e8:	d83c      	bhi.n	10007664 <irq_remove_handler+0xbc>
100075ea:	f04f 0a01 	mov.w	sl, #1
100075ee:	ea4f 1850 	mov.w	r8, r0, lsr #5
100075f2:	ea4f 0888 	mov.w	r8, r8, lsl #2
100075f6:	f108 4860 	add.w	r8, r8, #3758096384	@ 0xe0000000
100075fa:	f508 4861 	add.w	r8, r8, #57600	@ 0xe100
100075fe:	f8d8 3000 	ldr.w	r3, [r8]
10007602:	f000 001f 	and.w	r0, r0, #31
10007606:	fa0a fa00 	lsl.w	sl, sl, r0
1000760a:	ea0a 0303 	and.w	r3, sl, r3
1000760e:	f8c8 a080 	str.w	sl, [r8, #128]	@ 0x80
10007612:	9300      	str	r3, [sp, #0]
10007614:	f3bf 8f5f 	dmb	sy
10007618:	f3ef 8305 	mrs	r3, IPSR
1000761c:	b2db      	uxtb	r3, r3
1000761e:	469b      	mov	fp, r3
10007620:	bb83      	cbnz	r3, 10007684 <irq_remove_handler+0xdc>
10007622:	f025 0e01 	bic.w	lr, r5, #1
10007626:	f8de c008 	ldr.w	ip, [lr, #8]
1000762a:	4561      	cmp	r1, ip
1000762c:	f000 8099 	beq.w	10007762 <irq_remove_handler+0x1ba>
10007630:	460b      	mov	r3, r1
10007632:	4661      	mov	r1, ip
10007634:	469c      	mov	ip, r3
10007636:	e003      	b.n	10007640 <irq_remove_handler+0x98>
10007638:	6881      	ldr	r1, [r0, #8]
1000763a:	458c      	cmp	ip, r1
1000763c:	d02c      	beq.n	10007698 <irq_remove_handler+0xf0>
1000763e:	4696      	mov	lr, r2
10007640:	f99e 3006 	ldrsb.w	r3, [lr, #6]
10007644:	eb03 0043 	add.w	r0, r3, r3, lsl #1
10007648:	eb04 0080 	add.w	r0, r4, r0, lsl #2
1000764c:	2b00      	cmp	r3, #0
1000764e:	4602      	mov	r2, r0
10007650:	daf2      	bge.n	10007638 <irq_remove_handler+0x90>
10007652:	4663      	mov	r3, ip
10007654:	428b      	cmp	r3, r1
10007656:	d059      	beq.n	1000770c <irq_remove_handler+0x164>
10007658:	9b00      	ldr	r3, [sp, #0]
1000765a:	b1d3      	cbz	r3, 10007692 <irq_remove_handler+0xea>
1000765c:	f8c8 a180 	str.w	sl, [r8, #384]	@ 0x180
10007660:	f8c8 a000 	str.w	sl, [r8]
10007664:	4b45      	ldr	r3, [pc, #276]	@ (1000777c <irq_remove_handler+0x1d4>)
10007666:	689b      	ldr	r3, [r3, #8]
10007668:	f843 5027 	str.w	r5, [r3, r7, lsl #2]
1000766c:	f3bf 8f5f 	dmb	sy
10007670:	2300      	movs	r3, #0
10007672:	e8c6 3f8f 	stlb	r3, [r6]
10007676:	f389 8810 	msr	PRIMASK, r9
1000767a:	b003      	add	sp, #12
1000767c:	e8bd 8ff0 	ldmia.w	sp!, {r4, r5, r6, r7, r8, r9, sl, fp, pc}
10007680:	461d      	mov	r5, r3
10007682:	e7ef      	b.n	10007664 <irq_remove_handler+0xbc>
10007684:	429f      	cmp	r7, r3
10007686:	d0cc      	beq.n	10007622 <irq_remove_handler+0x7a>
10007688:	9101      	str	r1, [sp, #4]
1000768a:	f000 ff25 	bl	100084d8 <hard_assertion_failure>
1000768e:	9901      	ldr	r1, [sp, #4]
10007690:	e7c7      	b.n	10007622 <irq_remove_handler+0x7a>
10007692:	f8c8 a080 	str.w	sl, [r8, #128]	@ 0x80
10007696:	e7e5      	b.n	10007664 <irq_remove_handler+0xbc>
10007698:	f990 1006 	ldrsb.w	r1, [r0, #6]
1000769c:	2900      	cmp	r1, #0
1000769e:	db36      	blt.n	1000770e <irq_remove_handler+0x166>
100076a0:	eb01 0c41 	add.w	ip, r1, r1, lsl #1
100076a4:	eb04 0c8c 	add.w	ip, r4, ip, lsl #2
100076a8:	f8dc 3008 	ldr.w	r3, [ip, #8]
100076ac:	0048      	lsls	r0, r1, #1
100076ae:	6093      	str	r3, [r2, #8]
100076b0:	f89c 3007 	ldrb.w	r3, [ip, #7]
100076b4:	71d3      	strb	r3, [r2, #7]
100076b6:	f99c 3006 	ldrsb.w	r3, [ip, #6]
100076ba:	2b00      	cmp	r3, #0
100076bc:	7193      	strb	r3, [r2, #6]
100076be:	db3e      	blt.n	1000773e <irq_remove_handler+0x196>
100076c0:	f8bc 3004 	ldrh.w	r3, [ip, #4]
100076c4:	055b      	lsls	r3, r3, #21
100076c6:	d504      	bpl.n	100076d2 <irq_remove_handler+0x12a>
100076c8:	f503 13ff 	add.w	r3, r3, #2088960	@ 0x1fe000
100076cc:	f503 53ff 	add.w	r3, r3, #8160	@ 0x1fe0
100076d0:	331f      	adds	r3, #31
100076d2:	155b      	asrs	r3, r3, #21
100076d4:	f103 0c02 	add.w	ip, r3, #2
100076d8:	f04f 0e04 	mov.w	lr, #4
100076dc:	230c      	movs	r3, #12
100076de:	fb13 e301 	smlabb	r3, r3, r1, lr
100076e2:	eb03 034c 	add.w	r3, r3, ip, lsl #1
100076e6:	f06f 0c07 	mvn.w	ip, #7
100076ea:	4423      	add	r3, r4
100076ec:	ebac 0c02 	sub.w	ip, ip, r2
100076f0:	4463      	add	r3, ip
100076f2:	f3c3 034a 	ubfx	r3, r3, #1, #11
100076f6:	f443 4360 	orr.w	r3, r3, #57344	@ 0xe000
100076fa:	8093      	strh	r3, [r2, #4]
100076fc:	4b22      	ldr	r3, [pc, #136]	@ (10007788 <irq_remove_handler+0x1e0>)
100076fe:	4408      	add	r0, r1
10007700:	781a      	ldrb	r2, [r3, #0]
10007702:	eb04 0480 	add.w	r4, r4, r0, lsl #2
10007706:	7019      	strb	r1, [r3, #0]
10007708:	71a2      	strb	r2, [r4, #6]
1000770a:	e7a5      	b.n	10007658 <irq_remove_handler+0xb0>
1000770c:	4672      	mov	r2, lr
1000770e:	f1bb 0f00 	cmp.w	fp, #0
10007712:	d117      	bne.n	10007744 <irq_remove_handler+0x19c>
10007714:	23ff      	movs	r3, #255	@ 0xff
10007716:	f88e 3006 	strb.w	r3, [lr, #6]
1000771a:	f64b 5301 	movw	r3, #48385	@ 0xbd01
1000771e:	f8ae 3004 	strh.w	r3, [lr, #4]
10007722:	4819      	ldr	r0, [pc, #100]	@ (10007788 <irq_remove_handler+0x1e0>)
10007724:	f64a 23aa 	movw	r3, #43690	@ 0xaaaa
10007728:	f890 c000 	ldrb.w	ip, [r0]
1000772c:	4611      	mov	r1, r2
1000772e:	1b09      	subs	r1, r1, r4
10007730:	4149      	adcs	r1, r1
10007732:	434b      	muls	r3, r1
10007734:	0d1b      	lsrs	r3, r3, #20
10007736:	f882 c006 	strb.w	ip, [r2, #6]
1000773a:	7003      	strb	r3, [r0, #0]
1000773c:	e78c      	b.n	10007658 <irq_remove_handler+0xb0>
1000773e:	f64b 5301 	movw	r3, #48385	@ 0xbd01
10007742:	e7da      	b.n	100076fa <irq_remove_handler+0x152>
10007744:	4b11      	ldr	r3, [pc, #68]	@ (1000778c <irq_remove_handler+0x1e4>)
10007746:	4812      	ldr	r0, [pc, #72]	@ (10007790 <irq_remove_handler+0x1e8>)
10007748:	1a9b      	subs	r3, r3, r2
1000774a:	3b08      	subs	r3, #8
1000774c:	f3c3 310a 	ubfx	r1, r3, #12, #11
10007750:	ea6f 5101 	mvn.w	r1, r1, lsl #20
10007754:	ea6f 5111 	mvn.w	r1, r1, lsr #20
10007758:	ea40 0353 	orr.w	r3, r0, r3, lsr #1
1000775c:	80d3      	strh	r3, [r2, #6]
1000775e:	8091      	strh	r1, [r2, #4]
10007760:	e77a      	b.n	10007658 <irq_remove_handler+0xb0>
10007762:	f99e 1006 	ldrsb.w	r1, [lr, #6]
10007766:	4672      	mov	r2, lr
10007768:	2900      	cmp	r1, #0
1000776a:	da99      	bge.n	100076a0 <irq_remove_handler+0xf8>
1000776c:	f1bb 0f00 	cmp.w	fp, #0
10007770:	d1e8      	bne.n	10007744 <irq_remove_handler+0x19c>
10007772:	4d03      	ldr	r5, [pc, #12]	@ (10007780 <irq_remove_handler+0x1d8>)
10007774:	e7d5      	b.n	10007722 <irq_remove_handler+0x17a>
10007776:	bf00      	nop
10007778:	2002f7c5 	.word	0x2002f7c5
1000777c:	e000ed00 	.word	0xe000ed00
10007780:	1000011d 	.word	0x1000011d
10007784:	200030f0 	.word	0x200030f0
10007788:	2003003e 	.word	0x2003003e
1000778c:	2000312a 	.word	0x2000312a
10007790:	fffff800 	.word	0xfffff800

10007794 <irq_add_tail_to_free_list>:
10007794:	e92d 41f0 	stmdb	sp!, {r4, r5, r6, r7, r8, lr}
10007798:	f3ef 8605 	mrs	r6, IPSR
1000779c:	b2f6      	uxtb	r6, r6
1000779e:	f3ef 8e10 	mrs	lr, PRIMASK
100077a2:	b672      	cpsid	i
100077a4:	4d20      	ldr	r5, [pc, #128]	@ (10007828 <irq_add_tail_to_free_list+0x94>)
100077a6:	e8d5 2fcf 	ldaexb	r2, [r5]
100077aa:	2301      	movs	r3, #1
100077ac:	2a00      	cmp	r2, #0
100077ae:	d1fa      	bne.n	100077a6 <irq_add_tail_to_free_list+0x12>
100077b0:	e8c5 3f42 	strexb	r2, r3, [r5]
100077b4:	2a00      	cmp	r2, #0
100077b6:	d1f6      	bne.n	100077a6 <irq_add_tail_to_free_list+0x12>
100077b8:	f3bf 8f5f 	dmb	sy
100077bc:	4f1b      	ldr	r7, [pc, #108]	@ (1000782c <irq_add_tail_to_free_list+0x98>)
100077be:	f040 0c01 	orr.w	ip, r0, #1
100077c2:	68ba      	ldr	r2, [r7, #8]
100077c4:	f64a 23aa 	movw	r3, #43690	@ 0xaaaa
100077c8:	f852 8026 	ldr.w	r8, [r2, r6, lsl #2]
100077cc:	4c18      	ldr	r4, [pc, #96]	@ (10007830 <irq_add_tail_to_free_list+0x9c>)
100077ce:	4602      	mov	r2, r0
100077d0:	1b12      	subs	r2, r2, r4
100077d2:	4152      	adcs	r2, r2
100077d4:	4353      	muls	r3, r2
100077d6:	0d1b      	lsrs	r3, r3, #20
100077d8:	45e0      	cmp	r8, ip
100077da:	b259      	sxtb	r1, r3
100077dc:	d014      	beq.n	10007808 <irq_add_tail_to_free_list+0x74>
100077de:	4622      	mov	r2, r4
100077e0:	2300      	movs	r3, #0
100077e2:	f992 c006 	ldrsb.w	ip, [r2, #6]
100077e6:	320c      	adds	r2, #12
100077e8:	458c      	cmp	ip, r1
100077ea:	d012      	beq.n	10007812 <irq_add_tail_to_free_list+0x7e>
100077ec:	3301      	adds	r3, #1
100077ee:	2b04      	cmp	r3, #4
100077f0:	d1f7      	bne.n	100077e2 <irq_add_tail_to_free_list+0x4e>
100077f2:	4b10      	ldr	r3, [pc, #64]	@ (10007834 <irq_add_tail_to_free_list+0xa0>)
100077f4:	2200      	movs	r2, #0
100077f6:	781c      	ldrb	r4, [r3, #0]
100077f8:	7019      	strb	r1, [r3, #0]
100077fa:	7184      	strb	r4, [r0, #6]
100077fc:	e8c5 2f8f 	stlb	r2, [r5]
10007800:	f38e 8810 	msr	PRIMASK, lr
10007804:	e8bd 81f0 	ldmia.w	sp!, {r4, r5, r6, r7, r8, pc}
10007808:	68bb      	ldr	r3, [r7, #8]
1000780a:	4a0b      	ldr	r2, [pc, #44]	@ (10007838 <irq_add_tail_to_free_list+0xa4>)
1000780c:	f843 2026 	str.w	r2, [r3, r6, lsl #2]
10007810:	e7ef      	b.n	100077f2 <irq_add_tail_to_free_list+0x5e>
10007812:	22ff      	movs	r2, #255	@ 0xff
10007814:	eb03 0343 	add.w	r3, r3, r3, lsl #1
10007818:	eb04 0383 	add.w	r3, r4, r3, lsl #2
1000781c:	719a      	strb	r2, [r3, #6]
1000781e:	f64b 5201 	movw	r2, #48385	@ 0xbd01
10007822:	809a      	strh	r2, [r3, #4]
10007824:	e7e5      	b.n	100077f2 <irq_add_tail_to_free_list+0x5e>
10007826:	bf00      	nop
10007828:	2002f7c5 	.word	0x2002f7c5
1000782c:	e000ed00 	.word	0xe000ed00
10007830:	200030f0 	.word	0x200030f0
10007834:	2003003e 	.word	0x2003003e
10007838:	1000011d 	.word	0x1000011d

1000783c <lock_init>:
1000783c:	4b01      	ldr	r3, [pc, #4]	@ (10007844 <lock_init+0x8>)
1000783e:	4419      	add	r1, r3
10007840:	6001      	str	r1, [r0, #0]
10007842:	4770      	bx	lr
10007844:	2002f7bc 	.word	0x2002f7bc

10007848 <runtime_init_mutex>:
10007848:	b5f8      	push	{r3, r4, r5, r6, r7, lr}
1000784a:	4d12      	ldr	r5, [pc, #72]	@ (10007894 <runtime_init_mutex+0x4c>)
1000784c:	4e12      	ldr	r6, [pc, #72]	@ (10007898 <runtime_init_mutex+0x50>)
1000784e:	42b5      	cmp	r5, r6
10007850:	d21e      	bcs.n	10007890 <runtime_init_mutex+0x48>
10007852:	27ff      	movs	r7, #255	@ 0xff
10007854:	462c      	mov	r4, r5
10007856:	e00c      	b.n	10007872 <runtime_init_mutex+0x2a>
10007858:	f7ff fd1e 	bl	10007298 <next_striped_spin_lock_num>
1000785c:	4601      	mov	r1, r0
1000785e:	4628      	mov	r0, r5
10007860:	f7ff ffec 	bl	1000783c <lock_init>
10007864:	80a7      	strh	r7, [r4, #4]
10007866:	f3bf 8f5f 	dmb	sy
1000786a:	3408      	adds	r4, #8
1000786c:	42b4      	cmp	r4, r6
1000786e:	d20f      	bcs.n	10007890 <runtime_init_mutex+0x48>
10007870:	4625      	mov	r5, r4
10007872:	6823      	ldr	r3, [r4, #0]
10007874:	2b00      	cmp	r3, #0
10007876:	d1ef      	bne.n	10007858 <runtime_init_mutex+0x10>
10007878:	f7ff fd0e 	bl	10007298 <next_striped_spin_lock_num>
1000787c:	4601      	mov	r1, r0
1000787e:	4628      	mov	r0, r5
10007880:	f7ff ffdc 	bl	1000783c <lock_init>
10007884:	7127      	strb	r7, [r4, #4]
10007886:	f3bf 8f5f 	dmb	sy
1000788a:	3408      	adds	r4, #8
1000788c:	42b4      	cmp	r4, r6
1000788e:	d3ef      	bcc.n	10007870 <runtime_init_mutex+0x28>
10007890:	bdf8      	pop	{r3, r4, r5, r6, r7, pc}
10007892:	bf00      	nop
10007894:	200039d8 	.word	0x200039d8
10007898:	200039e8 	.word	0x200039e8

1000789c <mutex_init>:
1000789c:	b510      	push	{r4, lr}
1000789e:	4604      	mov	r4, r0
100078a0:	f7ff fcfa 	bl	10007298 <next_striped_spin_lock_num>
100078a4:	4601      	mov	r1, r0
100078a6:	4620      	mov	r0, r4
100078a8:	f7ff ffc8 	bl	1000783c <lock_init>
100078ac:	23ff      	movs	r3, #255	@ 0xff
100078ae:	7123      	strb	r3, [r4, #4]
100078b0:	f3bf 8f5f 	dmb	sy
100078b4:	bd10      	pop	{r4, pc}
100078b6:	bf00      	nop

100078b8 <critical_section_init>:
100078b8:	b510      	push	{r4, lr}
100078ba:	4604      	mov	r4, r0
100078bc:	2001      	movs	r0, #1
100078be:	f7ff fcf7 	bl	100072b0 <spin_lock_claim_unused>
100078c2:	4b03      	ldr	r3, [pc, #12]	@ (100078d0 <critical_section_init+0x18>)
100078c4:	4418      	add	r0, r3
100078c6:	6020      	str	r0, [r4, #0]
100078c8:	f3bf 8f5f 	dmb	sy
100078cc:	bd10      	pop	{r4, pc}
100078ce:	bf00      	nop
100078d0:	2002f7bc 	.word	0x2002f7bc

100078d4 <sleep_until_callback>:
100078d4:	4b0d      	ldr	r3, [pc, #52]	@ (1000790c <sleep_until_callback+0x38>)
100078d6:	681a      	ldr	r2, [r3, #0]
100078d8:	f3ef 8110 	mrs	r1, PRIMASK
100078dc:	b672      	cpsid	i
100078de:	e8d2 cfcf 	ldaexb	ip, [r2]
100078e2:	2001      	movs	r0, #1
100078e4:	f1bc 0f00 	cmp.w	ip, #0
100078e8:	d1f9      	bne.n	100078de <sleep_until_callback+0xa>
100078ea:	e8c2 0f4c 	strexb	ip, r0, [r2]
100078ee:	f1bc 0f00 	cmp.w	ip, #0
100078f2:	d1f4      	bne.n	100078de <sleep_until_callback+0xa>
100078f4:	f3bf 8f5f 	dmb	sy
100078f8:	2200      	movs	r2, #0
100078fa:	681b      	ldr	r3, [r3, #0]
100078fc:	e8c3 2f8f 	stlb	r2, [r3]
10007900:	f381 8810 	msr	PRIMASK, r1
10007904:	bf40      	sev
10007906:	2000      	movs	r0, #0
10007908:	2100      	movs	r1, #0
1000790a:	4770      	bx	lr
1000790c:	2002ffe4 	.word	0x2002ffe4

10007910 <alarm_pool_irq_handler>:
10007910:	e92d 4ff0 	stmdb	sp!, {r4, r5, r6, r7, r8, r9, sl, fp, lr}
10007914:	ed2d 8b02 	vpush	{d8}
10007918:	b085      	sub	sp, #20
1000791a:	f3ef 8305 	mrs	r3, IPSR
1000791e:	b2db      	uxtb	r3, r3
10007920:	3b10      	subs	r3, #16
10007922:	089a      	lsrs	r2, r3, #2
10007924:	bf16      	itet	ne
10007926:	2201      	movne	r2, #1
10007928:	4fa7      	ldreq	r7, [pc, #668]	@ (10007bc8 <alarm_pool_irq_handler+0x2b8>)
1000792a:	4fa8      	ldrne	r7, [pc, #672]	@ (10007bcc <alarm_pool_irq_handler+0x2bc>)
1000792c:	f003 0503 	and.w	r5, r3, #3
10007930:	4ba7      	ldr	r3, [pc, #668]	@ (10007bd0 <alarm_pool_irq_handler+0x2c0>)
10007932:	eb05 0282 	add.w	r2, r5, r2, lsl #2
10007936:	4638      	mov	r0, r7
10007938:	f853 6022 	ldr.w	r6, [r3, r2, lsl #2]
1000793c:	9501      	str	r5, [sp, #4]
1000793e:	f000 fb1b 	bl	10007f78 <timer_time_us_64>
10007942:	2201      	movs	r2, #1
10007944:	ed9f 8b9e 	vldr	d8, [pc, #632]	@ 10007bc0 <alarm_pool_irq_handler+0x2b0>
10007948:	46b0      	mov	r8, r6
1000794a:	40aa      	lsls	r2, r5
1000794c:	f507 5341 	add.w	r3, r7, #12352	@ 0x3040
10007950:	f9b6 4008 	ldrsh.w	r4, [r6, #8]
10007954:	9200      	str	r2, [sp, #0]
10007956:	605a      	str	r2, [r3, #4]
10007958:	9b00      	ldr	r3, [sp, #0]
1000795a:	2c00      	cmp	r4, #0
1000795c:	63fb      	str	r3, [r7, #60]	@ 0x3c
1000795e:	db3c      	blt.n	100079da <alarm_pool_irq_handler+0xca>
10007960:	f8d8 a014 	ldr.w	sl, [r8, #20]
10007964:	eb04 0b44 	add.w	fp, r4, r4, lsl #1
10007968:	eb0a 06cb 	add.w	r6, sl, fp, lsl #3
1000796c:	68b5      	ldr	r5, [r6, #8]
1000796e:	f8d6 900c 	ldr.w	r9, [r6, #12]
10007972:	1b40      	subs	r0, r0, r5
10007974:	eb61 0109 	sbc.w	r1, r1, r9
10007978:	2900      	cmp	r1, #0
1000797a:	db2e      	blt.n	100079da <alarm_pool_irq_handler+0xca>
1000797c:	f1b9 0f00 	cmp.w	r9, #0
10007980:	f2c0 80d0 	blt.w	10007b24 <alarm_pool_irq_handler+0x214>
10007984:	6933      	ldr	r3, [r6, #16]
10007986:	4a93      	ldr	r2, [pc, #588]	@ (10007bd4 <alarm_pool_irq_handler+0x2c4>)
10007988:	4293      	cmp	r3, r2
1000798a:	f000 80c4 	beq.w	10007b16 <alarm_pool_irq_handler+0x206>
1000798e:	8870      	ldrh	r0, [r6, #2]
10007990:	6971      	ldr	r1, [r6, #20]
10007992:	b280      	uxth	r0, r0
10007994:	ea40 4004 	orr.w	r0, r0, r4, lsl #16
10007998:	4798      	blx	r3
1000799a:	4602      	mov	r2, r0
1000799c:	460b      	mov	r3, r1
1000799e:	ea52 0103 	orrs.w	r1, r2, r3
100079a2:	f000 80bf 	beq.w	10007b24 <alarm_pool_irq_handler+0x214>
100079a6:	2b00      	cmp	r3, #0
100079a8:	f280 80de 	bge.w	10007b68 <alarm_pool_irq_handler+0x258>
100079ac:	1aaa      	subs	r2, r5, r2
100079ae:	eb69 0303 	sbc.w	r3, r9, r3
100079b2:	f93a 503b 	ldrsh.w	r5, [sl, fp, lsl #3]
100079b6:	e9c6 2302 	strd	r2, r3, [r6, #8]
100079ba:	2d00      	cmp	r5, #0
100079bc:	db0d      	blt.n	100079da <alarm_pool_irq_handler+0xca>
100079be:	f8d8 e014 	ldr.w	lr, [r8, #20]
100079c2:	eb05 0145 	add.w	r1, r5, r5, lsl #1
100079c6:	eb0e 01c1 	add.w	r1, lr, r1, lsl #3
100079ca:	6888      	ldr	r0, [r1, #8]
100079cc:	1a10      	subs	r0, r2, r0
100079ce:	68c8      	ldr	r0, [r1, #12]
100079d0:	eb63 0000 	sbc.w	r0, r3, r0
100079d4:	2800      	cmp	r0, #0
100079d6:	f280 80d6 	bge.w	10007b86 <alarm_pool_irq_handler+0x276>
100079da:	f8b8 3004 	ldrh.w	r3, [r8, #4]
100079de:	041e      	lsls	r6, r3, #16
100079e0:	d522      	bpl.n	10007a28 <alarm_pool_irq_handler+0x118>
100079e2:	f898 3006 	ldrb.w	r3, [r8, #6]
100079e6:	2b00      	cmp	r3, #0
100079e8:	d16e      	bne.n	10007ac8 <alarm_pool_irq_handler+0x1b8>
100079ea:	4638      	mov	r0, r7
100079ec:	f000 fac4 	bl	10007f78 <timer_time_us_64>
100079f0:	f9b8 4008 	ldrsh.w	r4, [r8, #8]
100079f4:	2c00      	cmp	r4, #0
100079f6:	db12      	blt.n	10007a1e <alarm_pool_irq_handler+0x10e>
100079f8:	f8d8 2014 	ldr.w	r2, [r8, #20]
100079fc:	9d01      	ldr	r5, [sp, #4]
100079fe:	eb04 0344 	add.w	r3, r4, r4, lsl #1
10007a02:	eb02 02c3 	add.w	r2, r2, r3, lsl #3
10007a06:	3504      	adds	r5, #4
10007a08:	e9d2 3202 	ldrd	r3, r2, [r2, #8]
10007a0c:	f847 3025 	str.w	r3, [r7, r5, lsl #2]
10007a10:	1a1b      	subs	r3, r3, r0
10007a12:	eb62 0201 	sbc.w	r2, r2, r1
10007a16:	2b01      	cmp	r3, #1
10007a18:	f172 0300 	sbcs.w	r3, r2, #0
10007a1c:	db9c      	blt.n	10007958 <alarm_pool_irq_handler+0x48>
10007a1e:	b005      	add	sp, #20
10007a20:	ecbd 8b02 	vpop	{d8}
10007a24:	e8bd 8ff0 	ldmia.w	sp!, {r4, r5, r6, r7, r8, r9, sl, fp, pc}
10007a28:	f8d8 3010 	ldr.w	r3, [r8, #16]
10007a2c:	f3ef 8210 	mrs	r2, PRIMASK
10007a30:	b672      	cpsid	i
10007a32:	e8d3 0fcf 	ldaexb	r0, [r3]
10007a36:	2101      	movs	r1, #1
10007a38:	2800      	cmp	r0, #0
10007a3a:	d1fa      	bne.n	10007a32 <alarm_pool_irq_handler+0x122>
10007a3c:	e8c3 1f40 	strexb	r0, r1, [r3]
10007a40:	2800      	cmp	r0, #0
10007a42:	d1f6      	bne.n	10007a32 <alarm_pool_irq_handler+0x122>
10007a44:	f3bf 8f5f 	dmb	sy
10007a48:	f64f 70ff 	movw	r0, #65535	@ 0xffff
10007a4c:	f8b8 9004 	ldrh.w	r9, [r8, #4]
10007a50:	2300      	movs	r3, #0
10007a52:	f8d8 1010 	ldr.w	r1, [r8, #16]
10007a56:	fa0f f989 	sxth.w	r9, r9
10007a5a:	f8a8 0004 	strh.w	r0, [r8, #4]
10007a5e:	e8c1 3f8f 	stlb	r3, [r1]
10007a62:	f382 8810 	msr	PRIMASK, r2
10007a66:	4599      	cmp	r9, r3
10007a68:	dbbb      	blt.n	100079e2 <alarm_pool_irq_handler+0xd2>
10007a6a:	46ba      	mov	sl, r7
10007a6c:	f8d8 5014 	ldr.w	r5, [r8, #20]
10007a70:	f108 0b08 	add.w	fp, r8, #8
10007a74:	eb09 0e49 	add.w	lr, r9, r9, lsl #1
10007a78:	eb05 03ce 	add.w	r3, r5, lr, lsl #3
10007a7c:	e9d3 6702 	ldrd	r6, r7, [r3, #8]
10007a80:	f9b8 3008 	ldrsh.w	r3, [r8, #8]
10007a84:	46dc      	mov	ip, fp
10007a86:	2b00      	cmp	r3, #0
10007a88:	da05      	bge.n	10007a96 <alarm_pool_irq_handler+0x186>
10007a8a:	e00f      	b.n	10007aac <alarm_pool_irq_handler+0x19c>
10007a8c:	f935 3034 	ldrsh.w	r3, [r5, r4, lsl #3]
10007a90:	4684      	mov	ip, r0
10007a92:	2b00      	cmp	r3, #0
10007a94:	db0a      	blt.n	10007aac <alarm_pool_irq_handler+0x19c>
10007a96:	eb03 0443 	add.w	r4, r3, r3, lsl #1
10007a9a:	eb05 00c4 	add.w	r0, r5, r4, lsl #3
10007a9e:	e9d0 1202 	ldrd	r1, r2, [r0, #8]
10007aa2:	1a71      	subs	r1, r6, r1
10007aa4:	eb67 0202 	sbc.w	r2, r7, r2
10007aa8:	2a00      	cmp	r2, #0
10007aaa:	daef      	bge.n	10007a8c <alarm_pool_irq_handler+0x17c>
10007aac:	f8ac 9000 	strh.w	r9, [ip]
10007ab0:	f935 903e 	ldrsh.w	r9, [r5, lr, lsl #3]
10007ab4:	f825 303e 	strh.w	r3, [r5, lr, lsl #3]
10007ab8:	f1b9 0f00 	cmp.w	r9, #0
10007abc:	dada      	bge.n	10007a74 <alarm_pool_irq_handler+0x164>
10007abe:	f898 3006 	ldrb.w	r3, [r8, #6]
10007ac2:	4657      	mov	r7, sl
10007ac4:	2b00      	cmp	r3, #0
10007ac6:	d090      	beq.n	100079ea <alarm_pool_irq_handler+0xda>
10007ac8:	2300      	movs	r3, #0
10007aca:	f888 3006 	strb.w	r3, [r8, #6]
10007ace:	f9b8 3008 	ldrsh.w	r3, [r8, #8]
10007ad2:	f108 0608 	add.w	r6, r8, #8
10007ad6:	1c5d      	adds	r5, r3, #1
10007ad8:	d087      	beq.n	100079ea <alarm_pool_irq_handler+0xda>
10007ada:	f8d8 0014 	ldr.w	r0, [r8, #20]
10007ade:	e002      	b.n	10007ae6 <alarm_pool_irq_handler+0x1d6>
10007ae0:	460e      	mov	r6, r1
10007ae2:	1c5a      	adds	r2, r3, #1
10007ae4:	d081      	beq.n	100079ea <alarm_pool_irq_handler+0xda>
10007ae6:	eb03 0243 	add.w	r2, r3, r3, lsl #1
10007aea:	eb00 01c2 	add.w	r1, r0, r2, lsl #3
10007aee:	884c      	ldrh	r4, [r1, #2]
10007af0:	461d      	mov	r5, r3
10007af2:	0424      	lsls	r4, r4, #16
10007af4:	f930 3032 	ldrsh.w	r3, [r0, r2, lsl #3]
10007af8:	d5f2      	bpl.n	10007ae0 <alarm_pool_irq_handler+0x1d0>
10007afa:	f9b8 4008 	ldrsh.w	r4, [r8, #8]
10007afe:	ed81 8b02 	vstr	d8, [r1, #8]
10007b02:	42ac      	cmp	r4, r5
10007b04:	d0ed      	beq.n	10007ae2 <alarm_pool_irq_handler+0x1d2>
10007b06:	8033      	strh	r3, [r6, #0]
10007b08:	f8b8 1008 	ldrh.w	r1, [r8, #8]
10007b0c:	f820 1032 	strh.w	r1, [r0, r2, lsl #3]
10007b10:	f8a8 5008 	strh.w	r5, [r8, #8]
10007b14:	e7e5      	b.n	10007ae2 <alarm_pool_irq_handler+0x1d2>
10007b16:	6971      	ldr	r1, [r6, #20]
10007b18:	4608      	mov	r0, r1
10007b1a:	690b      	ldr	r3, [r1, #16]
10007b1c:	9102      	str	r1, [sp, #8]
10007b1e:	4798      	blx	r3
10007b20:	2800      	cmp	r0, #0
10007b22:	d12c      	bne.n	10007b7e <alarm_pool_irq_handler+0x26e>
10007b24:	f83a 303b 	ldrh.w	r3, [sl, fp, lsl #3]
10007b28:	f8a8 3008 	strh.w	r3, [r8, #8]
10007b2c:	f8d8 3010 	ldr.w	r3, [r8, #16]
10007b30:	f3ef 8210 	mrs	r2, PRIMASK
10007b34:	b672      	cpsid	i
10007b36:	e8d3 0fcf 	ldaexb	r0, [r3]
10007b3a:	2101      	movs	r1, #1
10007b3c:	2800      	cmp	r0, #0
10007b3e:	d1fa      	bne.n	10007b36 <alarm_pool_irq_handler+0x226>
10007b40:	e8c3 1f40 	strexb	r0, r1, [r3]
10007b44:	2800      	cmp	r0, #0
10007b46:	d1f6      	bne.n	10007b36 <alarm_pool_irq_handler+0x226>
10007b48:	f3bf 8f5f 	dmb	sy
10007b4c:	f8b8 3002 	ldrh.w	r3, [r8, #2]
10007b50:	f8d8 1010 	ldr.w	r1, [r8, #16]
10007b54:	f82a 303b 	strh.w	r3, [sl, fp, lsl #3]
10007b58:	2300      	movs	r3, #0
10007b5a:	f8a8 4002 	strh.w	r4, [r8, #2]
10007b5e:	e8c1 3f8f 	stlb	r3, [r1]
10007b62:	f382 8810 	msr	PRIMASK, r2
10007b66:	e738      	b.n	100079da <alarm_pool_irq_handler+0xca>
10007b68:	4638      	mov	r0, r7
10007b6a:	e9cd 2302 	strd	r2, r3, [sp, #8]
10007b6e:	f000 fa03 	bl	10007f78 <timer_time_us_64>
10007b72:	9a02      	ldr	r2, [sp, #8]
10007b74:	9b03      	ldr	r3, [sp, #12]
10007b76:	1882      	adds	r2, r0, r2
10007b78:	eb43 0301 	adc.w	r3, r3, r1
10007b7c:	e719      	b.n	100079b2 <alarm_pool_irq_handler+0xa2>
10007b7e:	9902      	ldr	r1, [sp, #8]
10007b80:	e9d1 2300 	ldrd	r2, r3, [r1]
10007b84:	e70b      	b.n	1000799e <alarm_pool_irq_handler+0x8e>
10007b86:	46a1      	mov	r9, r4
10007b88:	f8a8 5008 	strh.w	r5, [r8, #8]
10007b8c:	e008      	b.n	10007ba0 <alarm_pool_irq_handler+0x290>
10007b8e:	e9d0 4602 	ldrd	r4, r6, [r0, #8]
10007b92:	ebb2 0c04 	subs.w	ip, r2, r4
10007b96:	eb63 0606 	sbc.w	r6, r3, r6
10007b9a:	2e00      	cmp	r6, #0
10007b9c:	db08      	blt.n	10007bb0 <alarm_pool_irq_handler+0x2a0>
10007b9e:	4601      	mov	r1, r0
10007ba0:	f9b1 5000 	ldrsh.w	r5, [r1]
10007ba4:	eb05 0045 	add.w	r0, r5, r5, lsl #1
10007ba8:	2d00      	cmp	r5, #0
10007baa:	eb0e 00c0 	add.w	r0, lr, r0, lsl #3
10007bae:	daee      	bge.n	10007b8e <alarm_pool_irq_handler+0x27e>
10007bb0:	f82a 503b 	strh.w	r5, [sl, fp, lsl #3]
10007bb4:	f8a1 9000 	strh.w	r9, [r1]
10007bb8:	e70f      	b.n	100079da <alarm_pool_irq_handler+0xca>
10007bba:	bf00      	nop
10007bbc:	f3af 8000 	nop.w
10007bc0:	ffffffff 	.word	0xffffffff
10007bc4:	ffffffff 	.word	0xffffffff
10007bc8:	400b0000 	.word	0x400b0000
10007bcc:	400b8000 	.word	0x400b8000
10007bd0:	2002ffa4 	.word	0x2002ffa4
10007bd4:	10007911 	.word	0x10007911

10007bd8 <runtime_init_default_alarm_pool>:
10007bd8:	b570      	push	{r4, r5, r6, lr}
10007bda:	4d1f      	ldr	r5, [pc, #124]	@ (10007c58 <runtime_init_default_alarm_pool+0x80>)
10007bdc:	692c      	ldr	r4, [r5, #16]
10007bde:	b12c      	cbz	r4, 10007bec <runtime_init_default_alarm_pool+0x14>
10007be0:	e8bd 4070 	ldmia.w	sp!, {r4, r5, r6, lr}
10007be4:	210a      	movs	r1, #10
10007be6:	481d      	ldr	r0, [pc, #116]	@ (10007c5c <runtime_init_default_alarm_pool+0x84>)
10007be8:	f7ff be28 	b.w	1000783c <lock_init>
10007bec:	4e1c      	ldr	r6, [pc, #112]	@ (10007c60 <runtime_init_default_alarm_pool+0x88>)
10007bee:	2103      	movs	r1, #3
10007bf0:	4630      	mov	r0, r6
10007bf2:	f000 f9af 	bl	10007f54 <timer_hardware_alarm_claim>
10007bf6:	60ee      	str	r6, [r5, #12]
10007bf8:	f7ff fb4e 	bl	10007298 <next_striped_spin_lock_num>
10007bfc:	4919      	ldr	r1, [pc, #100]	@ (10007c64 <runtime_init_default_alarm_pool+0x8c>)
10007bfe:	2603      	movs	r6, #3
10007c00:	4408      	add	r0, r1
10007c02:	6128      	str	r0, [r5, #16]
10007c04:	f04f 4050 	mov.w	r0, #3489660928	@ 0xd0000000
10007c08:	f64f 72ff 	movw	r2, #65535	@ 0xffff
10007c0c:	4623      	mov	r3, r4
10007c0e:	240f      	movs	r4, #15
10007c10:	4915      	ldr	r1, [pc, #84]	@ (10007c68 <runtime_init_default_alarm_pool+0x90>)
10007c12:	702e      	strb	r6, [r5, #0]
10007c14:	60a9      	str	r1, [r5, #8]
10007c16:	6800      	ldr	r0, [r0, #0]
10007c18:	6969      	ldr	r1, [r5, #20]
10007c1a:	80aa      	strh	r2, [r5, #4]
10007c1c:	806c      	strh	r4, [r5, #2]
10007c1e:	7068      	strb	r0, [r5, #1]
10007c20:	f821 2013 	strh.w	r2, [r1, r3, lsl #1]
10007c24:	330c      	adds	r3, #12
10007c26:	3201      	adds	r2, #1
10007c28:	2bc0      	cmp	r3, #192	@ 0xc0
10007c2a:	b292      	uxth	r2, r2
10007c2c:	d1f8      	bne.n	10007c20 <runtime_init_default_alarm_pool+0x48>
10007c2e:	2408      	movs	r4, #8
10007c30:	4b0b      	ldr	r3, [pc, #44]	@ (10007c60 <runtime_init_default_alarm_pool+0x88>)
10007c32:	4a0e      	ldr	r2, [pc, #56]	@ (10007c6c <runtime_init_default_alarm_pool+0x94>)
10007c34:	2003      	movs	r0, #3
10007c36:	60d5      	str	r5, [r2, #12]
10007c38:	490d      	ldr	r1, [pc, #52]	@ (10007c70 <runtime_init_default_alarm_pool+0x98>)
10007c3a:	621c      	str	r4, [r3, #32]
10007c3c:	f7ff fb90 	bl	10007360 <irq_set_exclusive_handler>
10007c40:	2101      	movs	r1, #1
10007c42:	2003      	movs	r0, #3
10007c44:	f7ff fb66 	bl	10007314 <irq_set_enabled>
10007c48:	4b0a      	ldr	r3, [pc, #40]	@ (10007c74 <runtime_init_default_alarm_pool+0x9c>)
10007c4a:	210a      	movs	r1, #10
10007c4c:	601c      	str	r4, [r3, #0]
10007c4e:	4803      	ldr	r0, [pc, #12]	@ (10007c5c <runtime_init_default_alarm_pool+0x84>)
10007c50:	e8bd 4070 	ldmia.w	sp!, {r4, r5, r6, lr}
10007c54:	f7ff bdf2 	b.w	1000783c <lock_init>
10007c58:	20003138 	.word	0x20003138
10007c5c:	2002ffe4 	.word	0x2002ffe4
10007c60:	400b0000 	.word	0x400b0000
10007c64:	2002f7bc 	.word	0x2002f7bc
10007c68:	0010ffff 	.word	0x0010ffff
10007c6c:	2002ffa4 	.word	0x2002ffa4
10007c70:	10007911 	.word	0x10007911
10007c74:	400b2040 	.word	0x400b2040

10007c78 <alarm_pool_add_alarm_at_force_in_context>:
10007c78:	4601      	mov	r1, r0
10007c7a:	b5f0      	push	{r4, r5, r6, r7, lr}
10007c7c:	6900      	ldr	r0, [r0, #16]
10007c7e:	f3ef 8710 	mrs	r7, PRIMASK
10007c82:	b672      	cpsid	i
10007c84:	e8d0 5fcf 	ldaexb	r5, [r0]
10007c88:	2401      	movs	r4, #1
10007c8a:	2d00      	cmp	r5, #0
10007c8c:	d1fa      	bne.n	10007c84 <alarm_pool_add_alarm_at_force_in_context+0xc>
10007c8e:	e8c0 4f45 	strexb	r5, r4, [r0]
10007c92:	2d00      	cmp	r5, #0
10007c94:	d1f6      	bne.n	10007c84 <alarm_pool_add_alarm_at_force_in_context+0xc>
10007c96:	f3bf 8f5f 	dmb	sy
10007c9a:	f9b1 e002 	ldrsh.w	lr, [r1, #2]
10007c9e:	694c      	ldr	r4, [r1, #20]
10007ca0:	eb0e 0c4e 	add.w	ip, lr, lr, lsl #1
10007ca4:	ea4f 06cc 	mov.w	r6, ip, lsl #3
10007ca8:	f1be 0f00 	cmp.w	lr, #0
10007cac:	bfa8      	it	ge
10007cae:	5ba0      	ldrhge	r0, [r4, r6]
10007cb0:	f04f 0500 	mov.w	r5, #0
10007cb4:	bfa8      	it	ge
10007cb6:	8048      	strhge	r0, [r1, #2]
10007cb8:	eb04 0ccc 	add.w	ip, r4, ip, lsl #3
10007cbc:	6908      	ldr	r0, [r1, #16]
10007cbe:	e8c0 5f8f 	stlb	r5, [r0]
10007cc2:	f387 8810 	msr	PRIMASK, r7
10007cc6:	45ae      	cmp	lr, r5
10007cc8:	db35      	blt.n	10007d36 <alarm_pool_add_alarm_at_force_in_context+0xbe>
10007cca:	f8bc 0002 	ldrh.w	r0, [ip, #2]
10007cce:	e9cc 2302 	strd	r2, r3, [ip, #8]
10007cd2:	3001      	adds	r0, #1
10007cd4:	f3c0 000e 	ubfx	r0, r0, #0, #15
10007cd8:	2801      	cmp	r0, #1
10007cda:	bf38      	it	cc
10007cdc:	2001      	movcc	r0, #1
10007cde:	9b05      	ldr	r3, [sp, #20]
10007ce0:	f8ac 0002 	strh.w	r0, [ip, #2]
10007ce4:	f8cc 3010 	str.w	r3, [ip, #16]
10007ce8:	9b06      	ldr	r3, [sp, #24]
10007cea:	ea40 400e 	orr.w	r0, r0, lr, lsl #16
10007cee:	f8cc 3014 	str.w	r3, [ip, #20]
10007cf2:	690b      	ldr	r3, [r1, #16]
10007cf4:	f3ef 8210 	mrs	r2, PRIMASK
10007cf8:	b672      	cpsid	i
10007cfa:	e8d3 cfcf 	ldaexb	ip, [r3]
10007cfe:	2701      	movs	r7, #1
10007d00:	f1bc 0f00 	cmp.w	ip, #0
10007d04:	d1f9      	bne.n	10007cfa <alarm_pool_add_alarm_at_force_in_context+0x82>
10007d06:	e8c3 7f4c 	strexb	ip, r7, [r3]
10007d0a:	f1bc 0f00 	cmp.w	ip, #0
10007d0e:	d1f4      	bne.n	10007cfa <alarm_pool_add_alarm_at_force_in_context+0x82>
10007d10:	f3bf 8f5f 	dmb	sy
10007d14:	888b      	ldrh	r3, [r1, #4]
10007d16:	53a3      	strh	r3, [r4, r6]
10007d18:	f8a1 e004 	strh.w	lr, [r1, #4]
10007d1c:	690b      	ldr	r3, [r1, #16]
10007d1e:	e8c3 5f8f 	stlb	r5, [r3]
10007d22:	f382 8810 	msr	PRIMASK, r2
10007d26:	2201      	movs	r2, #1
10007d28:	68cb      	ldr	r3, [r1, #12]
10007d2a:	7809      	ldrb	r1, [r1, #0]
10007d2c:	f503 5301 	add.w	r3, r3, #8256	@ 0x2040
10007d30:	408a      	lsls	r2, r1
10007d32:	605a      	str	r2, [r3, #4]
10007d34:	bdf0      	pop	{r4, r5, r6, r7, pc}
10007d36:	f04f 30ff 	mov.w	r0, #4294967295	@ 0xffffffff
10007d3a:	bdf0      	pop	{r4, r5, r6, r7, pc}

10007d3c <alarm_pool_cancel_alarm>:
10007d3c:	8942      	ldrh	r2, [r0, #10]
10007d3e:	ebb2 4f21 	cmp.w	r2, r1, asr #16
10007d42:	dd38      	ble.n	10007db6 <alarm_pool_cancel_alarm+0x7a>
10007d44:	6942      	ldr	r2, [r0, #20]
10007d46:	140b      	asrs	r3, r1, #16
10007d48:	eb03 0343 	add.w	r3, r3, r3, lsl #1
10007d4c:	b510      	push	{r4, lr}
10007d4e:	eb02 03c3 	add.w	r3, r2, r3, lsl #3
10007d52:	6904      	ldr	r4, [r0, #16]
10007d54:	f3ef 8c10 	mrs	ip, PRIMASK
10007d58:	b672      	cpsid	i
10007d5a:	e8d4 efcf 	ldaexb	lr, [r4]
10007d5e:	2201      	movs	r2, #1
10007d60:	f1be 0f00 	cmp.w	lr, #0
10007d64:	d1f9      	bne.n	10007d5a <alarm_pool_cancel_alarm+0x1e>
10007d66:	e8c4 2f4e 	strexb	lr, r2, [r4]
10007d6a:	f1be 0f00 	cmp.w	lr, #0
10007d6e:	d1f4      	bne.n	10007d5a <alarm_pool_cancel_alarm+0x1e>
10007d70:	f3bf 8f5f 	dmb	sy
10007d74:	885a      	ldrh	r2, [r3, #2]
10007d76:	b289      	uxth	r1, r1
10007d78:	b292      	uxth	r2, r2
10007d7a:	428a      	cmp	r2, r1
10007d7c:	d007      	beq.n	10007d8e <alarm_pool_cancel_alarm+0x52>
10007d7e:	2300      	movs	r3, #0
10007d80:	6902      	ldr	r2, [r0, #16]
10007d82:	e8c2 3f8f 	stlb	r3, [r2]
10007d86:	f38c 8810 	msr	PRIMASK, ip
10007d8a:	4618      	mov	r0, r3
10007d8c:	bd10      	pop	{r4, pc}
10007d8e:	f442 4200 	orr.w	r2, r2, #32768	@ 0x8000
10007d92:	805a      	strh	r2, [r3, #2]
10007d94:	2301      	movs	r3, #1
10007d96:	2200      	movs	r2, #0
10007d98:	6901      	ldr	r1, [r0, #16]
10007d9a:	7183      	strb	r3, [r0, #6]
10007d9c:	e8c1 2f8f 	stlb	r2, [r1]
10007da0:	f38c 8810 	msr	PRIMASK, ip
10007da4:	68c2      	ldr	r2, [r0, #12]
10007da6:	7801      	ldrb	r1, [r0, #0]
10007da8:	f502 5201 	add.w	r2, r2, #8256	@ 0x2040
10007dac:	fa03 f101 	lsl.w	r1, r3, r1
10007db0:	4618      	mov	r0, r3
10007db2:	6051      	str	r1, [r2, #4]
10007db4:	bd10      	pop	{r4, pc}
10007db6:	2000      	movs	r0, #0
10007db8:	4770      	bx	lr
10007dba:	bf00      	nop

10007dbc <sleep_until>:
10007dbc:	e92d 41f0 	stmdb	sp!, {r4, r5, r6, r7, r8, lr}
10007dc0:	1f86      	subs	r6, r0, #6
10007dc2:	f141 35ff 	adc.w	r5, r1, #4294967295	@ 0xffffffff
10007dc6:	42b0      	cmp	r0, r6
10007dc8:	eb71 0305 	sbcs.w	r3, r1, r5
10007dcc:	bf38      	it	cc
10007dce:	2600      	movcc	r6, #0
10007dd0:	b082      	sub	sp, #8
10007dd2:	bf38      	it	cc
10007dd4:	4635      	movcc	r5, r6
10007dd6:	4604      	mov	r4, r0
10007dd8:	460f      	mov	r7, r1
10007dda:	f000 f8d5 	bl	10007f88 <time_us_64>
10007dde:	1a30      	subs	r0, r6, r0
10007de0:	eb65 0101 	sbc.w	r1, r5, r1
10007de4:	2801      	cmp	r0, #1
10007de6:	f171 0300 	sbcs.w	r3, r1, #0
10007dea:	da06      	bge.n	10007dfa <sleep_until+0x3e>
10007dec:	4620      	mov	r0, r4
10007dee:	4639      	mov	r1, r7
10007df0:	b002      	add	sp, #8
10007df2:	e8bd 41f0 	ldmia.w	sp!, {r4, r5, r6, r7, r8, lr}
10007df6:	f000 b8f7 	b.w	10007fe8 <busy_wait_until>
10007dfa:	f000 f8c5 	bl	10007f88 <time_us_64>
10007dfe:	4286      	cmp	r6, r0
10007e00:	eb65 0101 	sbc.w	r1, r5, r1
10007e04:	2900      	cmp	r1, #0
10007e06:	db0a      	blt.n	10007e1e <sleep_until+0x62>
10007e08:	2100      	movs	r1, #0
10007e0a:	4b17      	ldr	r3, [pc, #92]	@ (10007e68 <sleep_until+0xac>)
10007e0c:	4632      	mov	r2, r6
10007e0e:	9300      	str	r3, [sp, #0]
10007e10:	4816      	ldr	r0, [pc, #88]	@ (10007e6c <sleep_until+0xb0>)
10007e12:	462b      	mov	r3, r5
10007e14:	9101      	str	r1, [sp, #4]
10007e16:	f7ff ff2f 	bl	10007c78 <alarm_pool_add_alarm_at_force_in_context>
10007e1a:	2800      	cmp	r0, #0
10007e1c:	dbe6      	blt.n	10007dec <sleep_until+0x30>
10007e1e:	f04f 0c00 	mov.w	ip, #0
10007e22:	4813      	ldr	r0, [pc, #76]	@ (10007e70 <sleep_until+0xb4>)
10007e24:	4a13      	ldr	r2, [pc, #76]	@ (10007e74 <sleep_until+0xb8>)
10007e26:	6a43      	ldr	r3, [r0, #36]	@ 0x24
10007e28:	429d      	cmp	r5, r3
10007e2a:	d804      	bhi.n	10007e36 <sleep_until+0x7a>
10007e2c:	6a81      	ldr	r1, [r0, #40]	@ 0x28
10007e2e:	42b1      	cmp	r1, r6
10007e30:	d2dc      	bcs.n	10007dec <sleep_until+0x30>
10007e32:	429d      	cmp	r5, r3
10007e34:	d1da      	bne.n	10007dec <sleep_until+0x30>
10007e36:	6813      	ldr	r3, [r2, #0]
10007e38:	f3ef 8110 	mrs	r1, PRIMASK
10007e3c:	b672      	cpsid	i
10007e3e:	e8d3 8fcf 	ldaexb	r8, [r3]
10007e42:	f05f 0e01 	movs.w	lr, #1
10007e46:	f1b8 0f00 	cmp.w	r8, #0
10007e4a:	d1f8      	bne.n	10007e3e <sleep_until+0x82>
10007e4c:	e8c3 ef48 	strexb	r8, lr, [r3]
10007e50:	f1b8 0f00 	cmp.w	r8, #0
10007e54:	d1f3      	bne.n	10007e3e <sleep_until+0x82>
10007e56:	f3bf 8f5f 	dmb	sy
10007e5a:	6813      	ldr	r3, [r2, #0]
10007e5c:	e8c3 cf8f 	stlb	ip, [r3]
10007e60:	f381 8810 	msr	PRIMASK, r1
10007e64:	bf20      	wfe
10007e66:	e7de      	b.n	10007e26 <sleep_until+0x6a>
10007e68:	100078d5 	.word	0x100078d5
10007e6c:	20003138 	.word	0x20003138
10007e70:	400b0000 	.word	0x400b0000
10007e74:	2002ffe4 	.word	0x2002ffe4

10007e78 <sleep_us>:
10007e78:	b538      	push	{r3, r4, r5, lr}
10007e7a:	4604      	mov	r4, r0
10007e7c:	460d      	mov	r5, r1
10007e7e:	f000 f883 	bl	10007f88 <time_us_64>
10007e82:	1820      	adds	r0, r4, r0
10007e84:	eb45 0101 	adc.w	r1, r5, r1
10007e88:	2900      	cmp	r1, #0
10007e8a:	bfb8      	it	lt
10007e8c:	f04f 30ff 	movlt.w	r0, #4294967295	@ 0xffffffff
10007e90:	e8bd 4038 	ldmia.w	sp!, {r3, r4, r5, lr}
10007e94:	bfb8      	it	lt
10007e96:	f06f 4100 	mvnlt.w	r1, #2147483648	@ 0x80000000
10007e9a:	f7ff bf8f 	b.w	10007dbc <sleep_until>
10007e9e:	bf00      	nop

10007ea0 <sleep_ms>:
10007ea0:	b510      	push	{r4, lr}
10007ea2:	4604      	mov	r4, r0
10007ea4:	f000 f870 	bl	10007f88 <time_us_64>
10007ea8:	f44f 737a 	mov.w	r3, #1000	@ 0x3e8
10007eac:	fbe4 0103 	umlal	r0, r1, r4, r3
10007eb0:	e8bd 4010 	ldmia.w	sp!, {r4, lr}
10007eb4:	2900      	cmp	r1, #0
10007eb6:	bfbc      	itt	lt
10007eb8:	f04f 30ff 	movlt.w	r0, #4294967295	@ 0xffffffff
10007ebc:	f06f 4100 	mvnlt.w	r1, #2147483648	@ 0x80000000
10007ec0:	f7ff bf7c 	b.w	10007dbc <sleep_until>

10007ec4 <best_effort_wfe_or_timeout>:
10007ec4:	b570      	push	{r4, r5, r6, lr}
10007ec6:	4606      	mov	r6, r0
10007ec8:	460c      	mov	r4, r1
10007eca:	b082      	sub	sp, #8
10007ecc:	f3ef 8505 	mrs	r5, IPSR
10007ed0:	b2ed      	uxtb	r5, r5
10007ed2:	b1c5      	cbz	r5, 10007f06 <best_effort_wfe_or_timeout+0x42>
10007ed4:	4a1c      	ldr	r2, [pc, #112]	@ (10007f48 <best_effort_wfe_or_timeout+0x84>)
10007ed6:	6a50      	ldr	r0, [r2, #36]	@ 0x24
10007ed8:	4284      	cmp	r4, r0
10007eda:	d902      	bls.n	10007ee2 <best_effort_wfe_or_timeout+0x1e>
10007edc:	2000      	movs	r0, #0
10007ede:	b002      	add	sp, #8
10007ee0:	bd70      	pop	{r4, r5, r6, pc}
10007ee2:	6a93      	ldr	r3, [r2, #40]	@ 0x28
10007ee4:	42b3      	cmp	r3, r6
10007ee6:	d309      	bcc.n	10007efc <best_effort_wfe_or_timeout+0x38>
10007ee8:	2001      	movs	r0, #1
10007eea:	b002      	add	sp, #8
10007eec:	bd70      	pop	{r4, r5, r6, pc}
10007eee:	4b16      	ldr	r3, [pc, #88]	@ (10007f48 <best_effort_wfe_or_timeout+0x84>)
10007ef0:	6a58      	ldr	r0, [r3, #36]	@ 0x24
10007ef2:	4284      	cmp	r4, r0
10007ef4:	d8f2      	bhi.n	10007edc <best_effort_wfe_or_timeout+0x18>
10007ef6:	6a9b      	ldr	r3, [r3, #40]	@ 0x28
10007ef8:	42b3      	cmp	r3, r6
10007efa:	d2f5      	bcs.n	10007ee8 <best_effort_wfe_or_timeout+0x24>
10007efc:	1a20      	subs	r0, r4, r0
10007efe:	bf18      	it	ne
10007f00:	2001      	movne	r0, #1
10007f02:	b002      	add	sp, #8
10007f04:	bd70      	pop	{r4, r5, r6, pc}
10007f06:	f000 f83f 	bl	10007f88 <time_us_64>
10007f0a:	4286      	cmp	r6, r0
10007f0c:	eb64 0101 	sbc.w	r1, r4, r1
10007f10:	2900      	cmp	r1, #0
10007f12:	dbec      	blt.n	10007eee <best_effort_wfe_or_timeout+0x2a>
10007f14:	4b0d      	ldr	r3, [pc, #52]	@ (10007f4c <best_effort_wfe_or_timeout+0x88>)
10007f16:	4632      	mov	r2, r6
10007f18:	e9cd 3500 	strd	r3, r5, [sp]
10007f1c:	480c      	ldr	r0, [pc, #48]	@ (10007f50 <best_effort_wfe_or_timeout+0x8c>)
10007f1e:	4623      	mov	r3, r4
10007f20:	f7ff feaa 	bl	10007c78 <alarm_pool_add_alarm_at_force_in_context>
10007f24:	1e01      	subs	r1, r0, #0
10007f26:	dde2      	ble.n	10007eee <best_effort_wfe_or_timeout+0x2a>
10007f28:	bf40      	sev
10007f2a:	bf20      	wfe
10007f2c:	4b06      	ldr	r3, [pc, #24]	@ (10007f48 <best_effort_wfe_or_timeout+0x84>)
10007f2e:	6a5a      	ldr	r2, [r3, #36]	@ 0x24
10007f30:	4294      	cmp	r4, r2
10007f32:	d804      	bhi.n	10007f3e <best_effort_wfe_or_timeout+0x7a>
10007f34:	6a9b      	ldr	r3, [r3, #40]	@ 0x28
10007f36:	42b3      	cmp	r3, r6
10007f38:	d202      	bcs.n	10007f40 <best_effort_wfe_or_timeout+0x7c>
10007f3a:	4294      	cmp	r4, r2
10007f3c:	d100      	bne.n	10007f40 <best_effort_wfe_or_timeout+0x7c>
10007f3e:	bf20      	wfe
10007f40:	4803      	ldr	r0, [pc, #12]	@ (10007f50 <best_effort_wfe_or_timeout+0x8c>)
10007f42:	f7ff fefb 	bl	10007d3c <alarm_pool_cancel_alarm>
10007f46:	e7c5      	b.n	10007ed4 <best_effort_wfe_or_timeout+0x10>
10007f48:	400b0000 	.word	0x400b0000
10007f4c:	100078d5 	.word	0x100078d5
10007f50:	20003138 	.word	0x20003138

10007f54 <timer_hardware_alarm_claim>:
10007f54:	b410      	push	{r4}
10007f56:	4b05      	ldr	r3, [pc, #20]	@ (10007f6c <timer_hardware_alarm_claim+0x18>)
10007f58:	4c05      	ldr	r4, [pc, #20]	@ (10007f70 <timer_hardware_alarm_claim+0x1c>)
10007f5a:	4a06      	ldr	r2, [pc, #24]	@ (10007f74 <timer_hardware_alarm_claim+0x20>)
10007f5c:	42a0      	cmp	r0, r4
10007f5e:	bf14      	ite	ne
10007f60:	4618      	movne	r0, r3
10007f62:	1c58      	addeq	r0, r3, #1
10007f64:	f85d 4b04 	ldr.w	r4, [sp], #4
10007f68:	f7ff b91a 	b.w	100071a0 <hw_claim_or_assert>
10007f6c:	2002f958 	.word	0x2002f958
10007f70:	400b8000 	.word	0x400b8000
10007f74:	10015a4c 	.word	0x10015a4c

10007f78 <timer_time_us_64>:
10007f78:	6a41      	ldr	r1, [r0, #36]	@ 0x24
10007f7a:	460b      	mov	r3, r1
10007f7c:	6a82      	ldr	r2, [r0, #40]	@ 0x28
10007f7e:	6a41      	ldr	r1, [r0, #36]	@ 0x24
10007f80:	428b      	cmp	r3, r1
10007f82:	d1fa      	bne.n	10007f7a <timer_time_us_64+0x2>
10007f84:	4610      	mov	r0, r2
10007f86:	4770      	bx	lr

10007f88 <time_us_64>:
10007f88:	4b03      	ldr	r3, [pc, #12]	@ (10007f98 <time_us_64+0x10>)
10007f8a:	6a59      	ldr	r1, [r3, #36]	@ 0x24
10007f8c:	460a      	mov	r2, r1
10007f8e:	6a98      	ldr	r0, [r3, #40]	@ 0x28
10007f90:	6a59      	ldr	r1, [r3, #36]	@ 0x24
10007f92:	4291      	cmp	r1, r2
10007f94:	d1fa      	bne.n	10007f8c <time_us_64+0x4>
10007f96:	4770      	bx	lr
10007f98:	400b0000 	.word	0x400b0000

10007f9c <busy_wait_us>:
10007f9c:	b410      	push	{r4}
10007f9e:	4a11      	ldr	r2, [pc, #68]	@ (10007fe4 <busy_wait_us+0x48>)
10007fa0:	6a53      	ldr	r3, [r2, #36]	@ 0x24
10007fa2:	469c      	mov	ip, r3
10007fa4:	6a94      	ldr	r4, [r2, #40]	@ 0x28
10007fa6:	6a53      	ldr	r3, [r2, #36]	@ 0x24
10007fa8:	4563      	cmp	r3, ip
10007faa:	d1fa      	bne.n	10007fa2 <busy_wait_us+0x6>
10007fac:	1900      	adds	r0, r0, r4
10007fae:	414b      	adcs	r3, r1
10007fb0:	f04f 0200 	mov.w	r2, #0
10007fb4:	bf28      	it	cs
10007fb6:	2201      	movcs	r2, #1
10007fb8:	b112      	cbz	r2, 10007fc0 <busy_wait_us+0x24>
10007fba:	f04f 33ff 	mov.w	r3, #4294967295	@ 0xffffffff
10007fbe:	4618      	mov	r0, r3
10007fc0:	4908      	ldr	r1, [pc, #32]	@ (10007fe4 <busy_wait_us+0x48>)
10007fc2:	6a4a      	ldr	r2, [r1, #36]	@ 0x24
10007fc4:	429a      	cmp	r2, r3
10007fc6:	d3fc      	bcc.n	10007fc2 <busy_wait_us+0x26>
10007fc8:	429a      	cmp	r2, r3
10007fca:	d107      	bne.n	10007fdc <busy_wait_us+0x40>
10007fcc:	4a05      	ldr	r2, [pc, #20]	@ (10007fe4 <busy_wait_us+0x48>)
10007fce:	e002      	b.n	10007fd6 <busy_wait_us+0x3a>
10007fd0:	6a51      	ldr	r1, [r2, #36]	@ 0x24
10007fd2:	4299      	cmp	r1, r3
10007fd4:	d102      	bne.n	10007fdc <busy_wait_us+0x40>
10007fd6:	6a91      	ldr	r1, [r2, #40]	@ 0x28
10007fd8:	4281      	cmp	r1, r0
10007fda:	d3f9      	bcc.n	10007fd0 <busy_wait_us+0x34>
10007fdc:	f85d 4b04 	ldr.w	r4, [sp], #4
10007fe0:	4770      	bx	lr
10007fe2:	bf00      	nop
10007fe4:	400b0000 	.word	0x400b0000

10007fe8 <busy_wait_until>:
10007fe8:	4a07      	ldr	r2, [pc, #28]	@ (10008008 <busy_wait_until+0x20>)
10007fea:	6a53      	ldr	r3, [r2, #36]	@ 0x24
10007fec:	4299      	cmp	r1, r3
10007fee:	d8fc      	bhi.n	10007fea <busy_wait_until+0x2>
10007ff0:	4299      	cmp	r1, r3
10007ff2:	d107      	bne.n	10008004 <busy_wait_until+0x1c>
10007ff4:	4b04      	ldr	r3, [pc, #16]	@ (10008008 <busy_wait_until+0x20>)
10007ff6:	e002      	b.n	10007ffe <busy_wait_until+0x16>
10007ff8:	6a5a      	ldr	r2, [r3, #36]	@ 0x24
10007ffa:	4291      	cmp	r1, r2
10007ffc:	d102      	bne.n	10008004 <busy_wait_until+0x1c>
10007ffe:	6a9a      	ldr	r2, [r3, #40]	@ 0x28
10008000:	4282      	cmp	r2, r0
10008002:	d3f9      	bcc.n	10007ff8 <busy_wait_until+0x10>
10008004:	4770      	bx	lr
10008006:	bf00      	nop
10008008:	400b0000 	.word	0x400b0000

1000800c <queue_add_internal>:
1000800c:	b570      	push	{r4, r5, r6, lr}
1000800e:	2600      	movs	r6, #0
10008010:	4604      	mov	r4, r0
10008012:	e007      	b.n	10008024 <queue_add_internal+0x18>
10008014:	6823      	ldr	r3, [r4, #0]
10008016:	2a00      	cmp	r2, #0
10008018:	d039      	beq.n	1000808e <queue_add_internal+0x82>
1000801a:	e8c3 6f8f 	stlb	r6, [r3]
1000801e:	f385 8810 	msr	PRIMASK, r5
10008022:	bf20      	wfe
10008024:	6823      	ldr	r3, [r4, #0]
10008026:	f3ef 8510 	mrs	r5, PRIMASK
1000802a:	b672      	cpsid	i
1000802c:	e8d3 cfcf 	ldaexb	ip, [r3]
10008030:	2001      	movs	r0, #1
10008032:	f1bc 0f00 	cmp.w	ip, #0
10008036:	d1f9      	bne.n	1000802c <queue_add_internal+0x20>
10008038:	e8c3 0f4c 	strexb	ip, r0, [r3]
1000803c:	f1bc 0f00 	cmp.w	ip, #0
10008040:	d1f4      	bne.n	1000802c <queue_add_internal+0x20>
10008042:	f3bf 8f5f 	dmb	sy
10008046:	f8b4 c008 	ldrh.w	ip, [r4, #8]
1000804a:	8963      	ldrh	r3, [r4, #10]
1000804c:	f8b4 e00e 	ldrh.w	lr, [r4, #14]
10008050:	ebbc 0303 	subs.w	r3, ip, r3
10008054:	bf44      	itt	mi
10008056:	f10e 0001 	addmi.w	r0, lr, #1
1000805a:	181b      	addmi	r3, r3, r0
1000805c:	459e      	cmp	lr, r3
1000805e:	d0d9      	beq.n	10008014 <queue_add_internal+0x8>
10008060:	89a2      	ldrh	r2, [r4, #12]
10008062:	6860      	ldr	r0, [r4, #4]
10008064:	fb02 000c 	mla	r0, r2, ip, r0
10008068:	f005 fb0a 	bl	1000d680 <memcpy>
1000806c:	8923      	ldrh	r3, [r4, #8]
1000806e:	89e2      	ldrh	r2, [r4, #14]
10008070:	3301      	adds	r3, #1
10008072:	b29b      	uxth	r3, r3
10008074:	429a      	cmp	r2, r3
10008076:	bf38      	it	cc
10008078:	2300      	movcc	r3, #0
1000807a:	6821      	ldr	r1, [r4, #0]
1000807c:	2200      	movs	r2, #0
1000807e:	8123      	strh	r3, [r4, #8]
10008080:	e8c1 2f8f 	stlb	r2, [r1]
10008084:	f385 8810 	msr	PRIMASK, r5
10008088:	bf40      	sev
1000808a:	2001      	movs	r0, #1
1000808c:	bd70      	pop	{r4, r5, r6, pc}
1000808e:	e8c3 2f8f 	stlb	r2, [r3]
10008092:	f385 8810 	msr	PRIMASK, r5
10008096:	4610      	mov	r0, r2
10008098:	bd70      	pop	{r4, r5, r6, pc}
1000809a:	bf00      	nop

1000809c <queue_remove_internal>:
1000809c:	b538      	push	{r3, r4, r5, lr}
1000809e:	4604      	mov	r4, r0
100080a0:	6823      	ldr	r3, [r4, #0]
100080a2:	f3ef 8510 	mrs	r5, PRIMASK
100080a6:	b672      	cpsid	i
100080a8:	e8d3 efcf 	ldaexb	lr, [r3]
100080ac:	f05f 0c01 	movs.w	ip, #1
100080b0:	f1be 0f00 	cmp.w	lr, #0
100080b4:	d1f8      	bne.n	100080a8 <queue_remove_internal+0xc>
100080b6:	e8c3 cf4e 	strexb	lr, ip, [r3]
100080ba:	f1be 0f00 	cmp.w	lr, #0
100080be:	d1f3      	bne.n	100080a8 <queue_remove_internal+0xc>
100080c0:	f3bf 8f5f 	dmb	sy
100080c4:	f8b4 c00a 	ldrh.w	ip, [r4, #10]
100080c8:	8923      	ldrh	r3, [r4, #8]
100080ca:	ebb3 030c 	subs.w	r3, r3, ip
100080ce:	d409      	bmi.n	100080e4 <queue_remove_internal+0x48>
100080d0:	b97b      	cbnz	r3, 100080f2 <queue_remove_internal+0x56>
100080d2:	2a00      	cmp	r2, #0
100080d4:	d02b      	beq.n	1000812e <queue_remove_internal+0x92>
100080d6:	6820      	ldr	r0, [r4, #0]
100080d8:	e8c0 3f8f 	stlb	r3, [r0]
100080dc:	f385 8810 	msr	PRIMASK, r5
100080e0:	bf20      	wfe
100080e2:	e7dd      	b.n	100080a0 <queue_remove_internal+0x4>
100080e4:	f8b4 e00e 	ldrh.w	lr, [r4, #14]
100080e8:	f10e 0e01 	add.w	lr, lr, #1
100080ec:	4473      	add	r3, lr
100080ee:	2b00      	cmp	r3, #0
100080f0:	d0ef      	beq.n	100080d2 <queue_remove_internal+0x36>
100080f2:	b141      	cbz	r1, 10008106 <queue_remove_internal+0x6a>
100080f4:	4608      	mov	r0, r1
100080f6:	89a2      	ldrh	r2, [r4, #12]
100080f8:	6861      	ldr	r1, [r4, #4]
100080fa:	fb02 110c 	mla	r1, r2, ip, r1
100080fe:	f005 fabf 	bl	1000d680 <memcpy>
10008102:	f8b4 c00a 	ldrh.w	ip, [r4, #10]
10008106:	89e3      	ldrh	r3, [r4, #14]
10008108:	f10c 0c01 	add.w	ip, ip, #1
1000810c:	fa1f fc8c 	uxth.w	ip, ip
10008110:	4563      	cmp	r3, ip
10008112:	bf38      	it	cc
10008114:	f04f 0c00 	movcc.w	ip, #0
10008118:	6822      	ldr	r2, [r4, #0]
1000811a:	2300      	movs	r3, #0
1000811c:	f8a4 c00a 	strh.w	ip, [r4, #10]
10008120:	e8c2 3f8f 	stlb	r3, [r2]
10008124:	f385 8810 	msr	PRIMASK, r5
10008128:	bf40      	sev
1000812a:	2001      	movs	r0, #1
1000812c:	bd38      	pop	{r3, r4, r5, pc}
1000812e:	6823      	ldr	r3, [r4, #0]
10008130:	e8c3 2f8f 	stlb	r2, [r3]
10008134:	f385 8810 	msr	PRIMASK, r5
10008138:	4610      	mov	r0, r2
1000813a:	bd38      	pop	{r3, r4, r5, pc}

1000813c <queue_init_with_spinlock>:
1000813c:	b570      	push	{r4, r5, r6, lr}
1000813e:	4616      	mov	r6, r2
10008140:	460d      	mov	r5, r1
10008142:	4619      	mov	r1, r3
10008144:	4604      	mov	r4, r0
10008146:	f7ff fb79 	bl	1000783c <lock_init>
1000814a:	4629      	mov	r1, r5
1000814c:	1c70      	adds	r0, r6, #1
1000814e:	f000 fc4f 	bl	100089f0 <__wrap_calloc>
10008152:	2300      	movs	r3, #0
10008154:	81e6      	strh	r6, [r4, #14]
10008156:	e9c4 0301 	strd	r0, r3, [r4, #4]
1000815a:	81a5      	strh	r5, [r4, #12]
1000815c:	bd70      	pop	{r4, r5, r6, pc}
1000815e:	bf00      	nop

10008160 <queue_try_add>:
10008160:	2200      	movs	r2, #0
10008162:	f7ff bf53 	b.w	1000800c <queue_add_internal>
10008166:	bf00      	nop

10008168 <queue_try_remove>:
10008168:	2200      	movs	r2, #0
1000816a:	f7ff bf97 	b.w	1000809c <queue_remove_internal>
1000816e:	bf00      	nop

10008170 <queue_add_blocking>:
10008170:	2201      	movs	r2, #1
10008172:	f7ff bf4b 	b.w	1000800c <queue_add_internal>
10008176:	bf00      	nop

10008178 <uart_set_baudrate>:
10008178:	b5f8      	push	{r3, r4, r5, r6, r7, lr}
1000817a:	4604      	mov	r4, r0
1000817c:	2006      	movs	r0, #6
1000817e:	460d      	mov	r5, r1
10008180:	f000 f93a 	bl	100083f8 <clock_get_hz>
10008184:	00c3      	lsls	r3, r0, #3
10008186:	fbb3 f1f5 	udiv	r1, r3, r5
1000818a:	3101      	adds	r1, #1
1000818c:	09cb      	lsrs	r3, r1, #7
1000818e:	d008      	beq.n	100081a2 <uart_set_baudrate+0x2a>
10008190:	f64f 72fe 	movw	r2, #65534	@ 0xfffe
10008194:	4293      	cmp	r3, r2
10008196:	d91a      	bls.n	100081ce <uart_set_baudrate+0x56>
10008198:	2300      	movs	r3, #0
1000819a:	f64f 72ff 	movw	r2, #65535	@ 0xffff
1000819e:	4d1b      	ldr	r5, [pc, #108]	@ (1000820c <uart_set_baudrate+0x94>)
100081a0:	e001      	b.n	100081a6 <uart_set_baudrate+0x2e>
100081a2:	2540      	movs	r5, #64	@ 0x40
100081a4:	2201      	movs	r2, #1
100081a6:	6262      	str	r2, [r4, #36]	@ 0x24
100081a8:	62a3      	str	r3, [r4, #40]	@ 0x28
100081aa:	6b26      	ldr	r6, [r4, #48]	@ 0x30
100081ac:	07f3      	lsls	r3, r6, #31
100081ae:	d415      	bmi.n	100081dc <uart_set_baudrate+0x64>
100081b0:	4623      	mov	r3, r4
100081b2:	2200      	movs	r2, #0
100081b4:	f853 1f2c 	ldr.w	r1, [r3, #44]!
100081b8:	2006      	movs	r0, #6
100081ba:	f503 5380 	add.w	r3, r3, #4096	@ 0x1000
100081be:	601a      	str	r2, [r3, #0]
100081c0:	6326      	str	r6, [r4, #48]	@ 0x30
100081c2:	f000 f919 	bl	100083f8 <clock_get_hz>
100081c6:	0080      	lsls	r0, r0, #2
100081c8:	fbb0 f0f5 	udiv	r0, r0, r5
100081cc:	bdf8      	pop	{r3, r4, r5, r6, r7, pc}
100081ce:	f3c1 0145 	ubfx	r1, r1, #1, #6
100081d2:	461a      	mov	r2, r3
100081d4:	eb01 1583 	add.w	r5, r1, r3, lsl #6
100081d8:	460b      	mov	r3, r1
100081da:	e7e4      	b.n	100081a6 <uart_set_baudrate+0x2e>
100081dc:	f240 3201 	movw	r2, #769	@ 0x301
100081e0:	f504 5340 	add.w	r3, r4, #12288	@ 0x3000
100081e4:	631a      	str	r2, [r3, #48]	@ 0x30
100081e6:	6a63      	ldr	r3, [r4, #36]	@ 0x24
100081e8:	6aa7      	ldr	r7, [r4, #40]	@ 0x28
100081ea:	2006      	movs	r0, #6
100081ec:	eb07 1783 	add.w	r7, r7, r3, lsl #6
100081f0:	f000 f902 	bl	100083f8 <clock_get_hz>
100081f4:	4b06      	ldr	r3, [pc, #24]	@ (10008210 <uart_set_baudrate+0x98>)
100081f6:	02bf      	lsls	r7, r7, #10
100081f8:	fba3 3000 	umull	r3, r0, r3, r0
100081fc:	0ac0      	lsrs	r0, r0, #11
100081fe:	2100      	movs	r1, #0
10008200:	fbb7 f0f0 	udiv	r0, r7, r0
10008204:	f7ff feca 	bl	10007f9c <busy_wait_us>
10008208:	e7d2      	b.n	100081b0 <uart_set_baudrate+0x38>
1000820a:	bf00      	nop
1000820c:	003fffc0 	.word	0x003fffc0
10008210:	8f2b7b75 	.word	0x8f2b7b75

10008214 <uart_init>:
10008214:	b538      	push	{r3, r4, r5, lr}
10008216:	4604      	mov	r4, r0
10008218:	2006      	movs	r0, #6
1000821a:	460d      	mov	r5, r1
1000821c:	f000 f8ec 	bl	100083f8 <clock_get_hz>
10008220:	b360      	cbz	r0, 1000827c <uart_init+0x68>
10008222:	4a17      	ldr	r2, [pc, #92]	@ (10008280 <uart_init+0x6c>)
10008224:	4917      	ldr	r1, [pc, #92]	@ (10008284 <uart_init+0x70>)
10008226:	4294      	cmp	r4, r2
10008228:	bf0c      	ite	eq
1000822a:	f04f 6200 	moveq.w	r2, #134217728	@ 0x8000000
1000822e:	f04f 6280 	movne.w	r2, #67108864	@ 0x4000000
10008232:	4b15      	ldr	r3, [pc, #84]	@ (10008288 <uart_init+0x74>)
10008234:	4815      	ldr	r0, [pc, #84]	@ (1000828c <uart_init+0x78>)
10008236:	600a      	str	r2, [r1, #0]
10008238:	601a      	str	r2, [r3, #0]
1000823a:	6883      	ldr	r3, [r0, #8]
1000823c:	ea32 0303 	bics.w	r3, r2, r3
10008240:	d1fb      	bne.n	1000823a <uart_init+0x26>
10008242:	4b0f      	ldr	r3, [pc, #60]	@ (10008280 <uart_init+0x6c>)
10008244:	f44f 7080 	mov.w	r0, #256	@ 0x100
10008248:	1ae3      	subs	r3, r4, r3
1000824a:	fab3 f383 	clz	r3, r3
1000824e:	4a10      	ldr	r2, [pc, #64]	@ (10008290 <uart_init+0x7c>)
10008250:	095b      	lsrs	r3, r3, #5
10008252:	f822 0013 	strh.w	r0, [r2, r3, lsl #1]
10008256:	4629      	mov	r1, r5
10008258:	4620      	mov	r0, r4
1000825a:	f7ff ff8d 	bl	10008178 <uart_set_baudrate>
1000825e:	4623      	mov	r3, r4
10008260:	f240 3501 	movw	r5, #769	@ 0x301
10008264:	2103      	movs	r1, #3
10008266:	f853 2f2c 	ldr.w	r2, [r3, #44]!
1000826a:	f082 0270 	eor.w	r2, r2, #112	@ 0x70
1000826e:	f002 027e 	and.w	r2, r2, #126	@ 0x7e
10008272:	f503 5380 	add.w	r3, r3, #4096	@ 0x1000
10008276:	601a      	str	r2, [r3, #0]
10008278:	6325      	str	r5, [r4, #48]	@ 0x30
1000827a:	64a1      	str	r1, [r4, #72]	@ 0x48
1000827c:	bd38      	pop	{r3, r4, r5, pc}
1000827e:	bf00      	nop
10008280:	40078000 	.word	0x40078000
10008284:	40022000 	.word	0x40022000
10008288:	40023000 	.word	0x40023000
1000828c:	40020000 	.word	0x40020000
10008290:	2002ffe8 	.word	0x2002ffe8

10008294 <uart_set_fifo_enabled>:
10008294:	b5f8      	push	{r3, r4, r5, r6, r7, lr}
10008296:	6b06      	ldr	r6, [r0, #48]	@ 0x30
10008298:	2900      	cmp	r1, #0
1000829a:	bf0c      	ite	eq
1000829c:	2500      	moveq	r5, #0
1000829e:	2510      	movne	r5, #16
100082a0:	07f3      	lsls	r3, r6, #31
100082a2:	4604      	mov	r4, r0
100082a4:	d40a      	bmi.n	100082bc <uart_set_fifo_enabled+0x28>
100082a6:	4623      	mov	r3, r4
100082a8:	f853 2f2c 	ldr.w	r2, [r3, #44]!
100082ac:	4055      	eors	r5, r2
100082ae:	f005 0510 	and.w	r5, r5, #16
100082b2:	f503 5380 	add.w	r3, r3, #4096	@ 0x1000
100082b6:	601d      	str	r5, [r3, #0]
100082b8:	6326      	str	r6, [r4, #48]	@ 0x30
100082ba:	bdf8      	pop	{r3, r4, r5, r6, r7, pc}
100082bc:	f240 3201 	movw	r2, #769	@ 0x301
100082c0:	f500 5340 	add.w	r3, r0, #12288	@ 0x3000
100082c4:	631a      	str	r2, [r3, #48]	@ 0x30
100082c6:	6a63      	ldr	r3, [r4, #36]	@ 0x24
100082c8:	6aa7      	ldr	r7, [r4, #40]	@ 0x28
100082ca:	2006      	movs	r0, #6
100082cc:	eb07 1783 	add.w	r7, r7, r3, lsl #6
100082d0:	f000 f892 	bl	100083f8 <clock_get_hz>
100082d4:	4b05      	ldr	r3, [pc, #20]	@ (100082ec <uart_set_fifo_enabled+0x58>)
100082d6:	02bf      	lsls	r7, r7, #10
100082d8:	fba3 3000 	umull	r3, r0, r3, r0
100082dc:	0ac0      	lsrs	r0, r0, #11
100082de:	2100      	movs	r1, #0
100082e0:	fbb7 f0f0 	udiv	r0, r7, r0
100082e4:	f7ff fe5a 	bl	10007f9c <busy_wait_us>
100082e8:	e7dd      	b.n	100082a6 <uart_set_fifo_enabled+0x12>
100082ea:	bf00      	nop
100082ec:	8f2b7b75 	.word	0x8f2b7b75

100082f0 <uart_set_translate_crlf>:
100082f0:	b410      	push	{r4}
100082f2:	4c08      	ldr	r4, [pc, #32]	@ (10008314 <uart_set_translate_crlf+0x24>)
100082f4:	2900      	cmp	r1, #0
100082f6:	eba0 0004 	sub.w	r0, r0, r4
100082fa:	fab0 f080 	clz	r0, r0
100082fe:	bf14      	ite	ne
10008300:	220a      	movne	r2, #10
10008302:	f44f 7280 	moveq.w	r2, #256	@ 0x100
10008306:	4b04      	ldr	r3, [pc, #16]	@ (10008318 <uart_set_translate_crlf+0x28>)
10008308:	0940      	lsrs	r0, r0, #5
1000830a:	f85d 4b04 	ldr.w	r4, [sp], #4
1000830e:	f823 2010 	strh.w	r2, [r3, r0, lsl #1]
10008312:	4770      	bx	lr
10008314:	40078000 	.word	0x40078000
10008318:	2002ffe8 	.word	0x2002ffe8

1000831c <clock_configure_internal>:
1000831c:	eb00 0c40 	add.w	ip, r0, r0, lsl #1
10008320:	ea4f 0c8c 	mov.w	ip, ip, lsl #2
10008324:	f10c 4c80 	add.w	ip, ip, #1073741824	@ 0x40000000
10008328:	b5f0      	push	{r4, r5, r6, r7, lr}
1000832a:	f50c 3c80 	add.w	ip, ip, #65536	@ 0x10000
1000832e:	9d05      	ldr	r5, [sp, #20]
10008330:	f8dc 4004 	ldr.w	r4, [ip, #4]
10008334:	f1a0 0e04 	sub.w	lr, r0, #4
10008338:	42ac      	cmp	r4, r5
1000833a:	fa5f fe8e 	uxtb.w	lr, lr
1000833e:	bf38      	it	cc
10008340:	f8cc 5004 	strcc.w	r5, [ip, #4]
10008344:	f1be 0f01 	cmp.w	lr, #1
10008348:	d927      	bls.n	1000839a <clock_configure_internal+0x7e>
1000834a:	f44f 6700 	mov.w	r7, #2048	@ 0x800
1000834e:	4e24      	ldr	r6, [pc, #144]	@ (100083e0 <clock_configure_internal+0xc4>)
10008350:	f50c 5440 	add.w	r4, ip, #12288	@ 0x3000
10008354:	6027      	str	r7, [r4, #0]
10008356:	f856 7020 	ldr.w	r7, [r6, r0, lsl #2]
1000835a:	b9af      	cbnz	r7, 10008388 <clock_configure_internal+0x6c>
1000835c:	f8dc 4000 	ldr.w	r4, [ip]
10008360:	f50c 5780 	add.w	r7, ip, #4096	@ 0x1000
10008364:	ea84 1242 	eor.w	r2, r4, r2, lsl #5
10008368:	f002 02e0 	and.w	r2, r2, #224	@ 0xe0
1000836c:	f1be 0f01 	cmp.w	lr, #1
10008370:	603a      	str	r2, [r7, #0]
10008372:	d926      	bls.n	100083c2 <clock_configure_internal+0xa6>
10008374:	f44f 6200 	mov.w	r2, #2048	@ 0x800
10008378:	f846 3020 	str.w	r3, [r6, r0, lsl #2]
1000837c:	f50c 5300 	add.w	r3, ip, #8192	@ 0x2000
10008380:	601a      	str	r2, [r3, #0]
10008382:	f8cc 5004 	str.w	r5, [ip, #4]
10008386:	bdf0      	pop	{r4, r5, r6, r7, pc}
10008388:	6974      	ldr	r4, [r6, #20]
1000838a:	fbb4 f4f7 	udiv	r4, r4, r7
1000838e:	3401      	adds	r4, #1
10008390:	eb04 0444 	add.w	r4, r4, r4, lsl #1
10008394:	3c03      	subs	r4, #3
10008396:	d2fd      	bcs.n	10008394 <clock_configure_internal+0x78>
10008398:	e7e0      	b.n	1000835c <clock_configure_internal+0x40>
1000839a:	2901      	cmp	r1, #1
1000839c:	d1d5      	bne.n	1000834a <clock_configure_internal+0x2e>
1000839e:	2603      	movs	r6, #3
100083a0:	f50c 5440 	add.w	r4, ip, #12288	@ 0x3000
100083a4:	6026      	str	r6, [r4, #0]
100083a6:	f8dc 4008 	ldr.w	r4, [ip, #8]
100083aa:	07e4      	lsls	r4, r4, #31
100083ac:	d5fb      	bpl.n	100083a6 <clock_configure_internal+0x8a>
100083ae:	f8dc 4000 	ldr.w	r4, [ip]
100083b2:	f50c 5780 	add.w	r7, ip, #4096	@ 0x1000
100083b6:	ea84 1242 	eor.w	r2, r4, r2, lsl #5
100083ba:	f002 02e0 	and.w	r2, r2, #224	@ 0xe0
100083be:	4e08      	ldr	r6, [pc, #32]	@ (100083e0 <clock_configure_internal+0xc4>)
100083c0:	603a      	str	r2, [r7, #0]
100083c2:	2201      	movs	r2, #1
100083c4:	f8dc 4000 	ldr.w	r4, [ip]
100083c8:	404c      	eors	r4, r1
100083ca:	f004 0403 	and.w	r4, r4, #3
100083ce:	603c      	str	r4, [r7, #0]
100083d0:	fa02 f101 	lsl.w	r1, r2, r1
100083d4:	f8dc 2008 	ldr.w	r2, [ip, #8]
100083d8:	420a      	tst	r2, r1
100083da:	d0fb      	beq.n	100083d4 <clock_configure_internal+0xb8>
100083dc:	e7ca      	b.n	10008374 <clock_configure_internal+0x58>
100083de:	bf00      	nop
100083e0:	2002f95c 	.word	0x2002f95c

100083e4 <clock_configure_undivided>:
100083e4:	b510      	push	{r4, lr}
100083e6:	f44f 3480 	mov.w	r4, #65536	@ 0x10000
100083ea:	b082      	sub	sp, #8
100083ec:	9400      	str	r4, [sp, #0]
100083ee:	f7ff ff95 	bl	1000831c <clock_configure_internal>
100083f2:	b002      	add	sp, #8
100083f4:	bd10      	pop	{r4, pc}
100083f6:	bf00      	nop

100083f8 <clock_get_hz>:
100083f8:	4b01      	ldr	r3, [pc, #4]	@ (10008400 <clock_get_hz+0x8>)
100083fa:	f853 0020 	ldr.w	r0, [r3, r0, lsl #2]
100083fe:	4770      	bx	lr
10008400:	2002f95c 	.word	0x2002f95c

10008404 <pll_init>:
10008404:	b470      	push	{r4, r5, r6}
10008406:	9c03      	ldr	r4, [sp, #12]
10008408:	6805      	ldr	r5, [r0, #0]
1000840a:	0324      	lsls	r4, r4, #12
1000840c:	ea44 4303 	orr.w	r3, r4, r3, lsl #16
10008410:	4c1b      	ldr	r4, [pc, #108]	@ (10008480 <pll_init+0x7c>)
10008412:	2d00      	cmp	r5, #0
10008414:	fbb4 f4f1 	udiv	r4, r4, r1
10008418:	fbb2 f2f4 	udiv	r2, r2, r4
1000841c:	db1f      	blt.n	1000845e <pll_init+0x5a>
1000841e:	4d19      	ldr	r5, [pc, #100]	@ (10008484 <pll_init+0x80>)
10008420:	4c19      	ldr	r4, [pc, #100]	@ (10008488 <pll_init+0x84>)
10008422:	42a8      	cmp	r0, r5
10008424:	bf0c      	ite	eq
10008426:	f44f 4500 	moveq.w	r5, #32768	@ 0x8000
1000842a:	f44f 4580 	movne.w	r5, #16384	@ 0x4000
1000842e:	4e17      	ldr	r6, [pc, #92]	@ (1000848c <pll_init+0x88>)
10008430:	6025      	str	r5, [r4, #0]
10008432:	f504 5480 	add.w	r4, r4, #4096	@ 0x1000
10008436:	6025      	str	r5, [r4, #0]
10008438:	68b4      	ldr	r4, [r6, #8]
1000843a:	ea35 0404 	bics.w	r4, r5, r4
1000843e:	d1fb      	bne.n	10008438 <pll_init+0x34>
10008440:	2521      	movs	r5, #33	@ 0x21
10008442:	f500 5440 	add.w	r4, r0, #12288	@ 0x3000
10008446:	3404      	adds	r4, #4
10008448:	6001      	str	r1, [r0, #0]
1000844a:	6082      	str	r2, [r0, #8]
1000844c:	6025      	str	r5, [r4, #0]
1000844e:	6802      	ldr	r2, [r0, #0]
10008450:	2a00      	cmp	r2, #0
10008452:	dafc      	bge.n	1000844e <pll_init+0x4a>
10008454:	2208      	movs	r2, #8
10008456:	60c3      	str	r3, [r0, #12]
10008458:	6022      	str	r2, [r4, #0]
1000845a:	bc70      	pop	{r4, r5, r6}
1000845c:	4770      	bx	lr
1000845e:	6804      	ldr	r4, [r0, #0]
10008460:	f004 043f 	and.w	r4, r4, #63	@ 0x3f
10008464:	428c      	cmp	r4, r1
10008466:	d1da      	bne.n	1000841e <pll_init+0x1a>
10008468:	6884      	ldr	r4, [r0, #8]
1000846a:	f3c4 040b 	ubfx	r4, r4, #0, #12
1000846e:	4294      	cmp	r4, r2
10008470:	d1d5      	bne.n	1000841e <pll_init+0x1a>
10008472:	68c4      	ldr	r4, [r0, #12]
10008474:	f404 24ee 	and.w	r4, r4, #487424	@ 0x77000
10008478:	429c      	cmp	r4, r3
1000847a:	d1d0      	bne.n	1000841e <pll_init+0x1a>
1000847c:	e7ed      	b.n	1000845a <pll_init+0x56>
1000847e:	bf00      	nop
10008480:	00b71b00 	.word	0x00b71b00
10008484:	40058000 	.word	0x40058000
10008488:	40022000 	.word	0x40022000
1000848c:	40020000 	.word	0x40020000

10008490 <tick_start>:
10008490:	2301      	movs	r3, #1
10008492:	eb00 0040 	add.w	r0, r0, r0, lsl #1
10008496:	0080      	lsls	r0, r0, #2
10008498:	f100 4080 	add.w	r0, r0, #1073741824	@ 0x40000000
1000849c:	f500 1084 	add.w	r0, r0, #1081344	@ 0x108000
100084a0:	6041      	str	r1, [r0, #4]
100084a2:	6003      	str	r3, [r0, #0]
100084a4:	4770      	bx	lr
100084a6:	bf00      	nop

100084a8 <xosc_init>:
100084a8:	b410      	push	{r4}
100084aa:	202f      	movs	r0, #47	@ 0x2f
100084ac:	f44f 642a 	mov.w	r4, #2720	@ 0xaa0
100084b0:	4a05      	ldr	r2, [pc, #20]	@ (100084c8 <xosc_init+0x20>)
100084b2:	4b06      	ldr	r3, [pc, #24]	@ (100084cc <xosc_init+0x24>)
100084b4:	4906      	ldr	r1, [pc, #24]	@ (100084d0 <xosc_init+0x28>)
100084b6:	6014      	str	r4, [r2, #0]
100084b8:	60d0      	str	r0, [r2, #12]
100084ba:	6019      	str	r1, [r3, #0]
100084bc:	6853      	ldr	r3, [r2, #4]
100084be:	2b00      	cmp	r3, #0
100084c0:	dafc      	bge.n	100084bc <xosc_init+0x14>
100084c2:	f85d 4b04 	ldr.w	r4, [sp], #4
100084c6:	4770      	bx	lr
100084c8:	40048000 	.word	0x40048000
100084cc:	4004a000 	.word	0x4004a000
100084d0:	00fab000 	.word	0x00fab000

100084d4 <first_per_core_initializer>:
100084d4:	4770      	bx	lr
100084d6:	bf00      	nop

100084d8 <hard_assertion_failure>:
100084d8:	b508      	push	{r3, lr}
100084da:	4801      	ldr	r0, [pc, #4]	@ (100084e0 <hard_assertion_failure+0x8>)
100084dc:	f7fe fe2c 	bl	10007138 <panic>
100084e0:	10015a70 	.word	0x10015a70

100084e4 <runtime_run_initializers>:
100084e4:	b538      	push	{r3, r4, r5, lr}
100084e6:	4c05      	ldr	r4, [pc, #20]	@ (100084fc <runtime_run_initializers+0x18>)
100084e8:	4d05      	ldr	r5, [pc, #20]	@ (10008500 <runtime_run_initializers+0x1c>)
100084ea:	42ac      	cmp	r4, r5
100084ec:	d204      	bcs.n	100084f8 <runtime_run_initializers+0x14>
100084ee:	f854 3b04 	ldr.w	r3, [r4], #4
100084f2:	4798      	blx	r3
100084f4:	42ac      	cmp	r4, r5
100084f6:	d3fa      	bcc.n	100084ee <runtime_run_initializers+0xa>
100084f8:	bd38      	pop	{r3, r4, r5, pc}
100084fa:	bf00      	nop
100084fc:	1000dd28 	.word	0x1000dd28
10008500:	1000dd68 	.word	0x1000dd68

10008504 <runtime_run_per_core_initializers>:
10008504:	b538      	push	{r3, r4, r5, lr}
10008506:	4c05      	ldr	r4, [pc, #20]	@ (1000851c <runtime_run_per_core_initializers+0x18>)
10008508:	4d05      	ldr	r5, [pc, #20]	@ (10008520 <runtime_run_per_core_initializers+0x1c>)
1000850a:	42ac      	cmp	r4, r5
1000850c:	d204      	bcs.n	10008518 <runtime_run_per_core_initializers+0x14>
1000850e:	f854 3b04 	ldr.w	r3, [r4], #4
10008512:	4798      	blx	r3
10008514:	42ac      	cmp	r4, r5
10008516:	d3fa      	bcc.n	1000850e <runtime_run_per_core_initializers+0xa>
10008518:	bd38      	pop	{r3, r4, r5, pc}
1000851a:	bf00      	nop
1000851c:	1000dd54 	.word	0x1000dd54
10008520:	1000dd68 	.word	0x1000dd68

10008524 <runtime_init_early_resets>:
10008524:	b410      	push	{r4}
10008526:	4807      	ldr	r0, [pc, #28]	@ (10008544 <runtime_init_early_resets+0x20>)
10008528:	4c07      	ldr	r4, [pc, #28]	@ (10008548 <runtime_init_early_resets+0x24>)
1000852a:	4b08      	ldr	r3, [pc, #32]	@ (1000854c <runtime_init_early_resets+0x28>)
1000852c:	4a08      	ldr	r2, [pc, #32]	@ (10008550 <runtime_init_early_resets+0x2c>)
1000852e:	4909      	ldr	r1, [pc, #36]	@ (10008554 <runtime_init_early_resets+0x30>)
10008530:	6004      	str	r4, [r0, #0]
10008532:	601a      	str	r2, [r3, #0]
10008534:	688b      	ldr	r3, [r1, #8]
10008536:	ea32 0303 	bics.w	r3, r2, r3
1000853a:	d1fb      	bne.n	10008534 <runtime_init_early_resets+0x10>
1000853c:	f85d 4b04 	ldr.w	r4, [sp], #4
10008540:	4770      	bx	lr
10008542:	bf00      	nop
10008544:	40022000 	.word	0x40022000
10008548:	efef3b7f 	.word	0xefef3b7f
1000854c:	40023000 	.word	0x40023000
10008550:	03f3fff6 	.word	0x03f3fff6
10008554:	40020000 	.word	0x40020000

10008558 <runtime_init_usb_power_down>:
10008558:	4b04      	ldr	r3, [pc, #16]	@ (1000856c <runtime_init_usb_power_down+0x14>)
1000855a:	6cdb      	ldr	r3, [r3, #76]	@ 0x4c
1000855c:	f5b3 4f00 	cmp.w	r3, #32768	@ 0x8000
10008560:	d103      	bne.n	1000856a <runtime_init_usb_power_down+0x12>
10008562:	f44f 2280 	mov.w	r2, #262144	@ 0x40000
10008566:	4b02      	ldr	r3, [pc, #8]	@ (10008570 <runtime_init_usb_power_down+0x18>)
10008568:	64da      	str	r2, [r3, #76]	@ 0x4c
1000856a:	4770      	bx	lr
1000856c:	50110000 	.word	0x50110000
10008570:	50112000 	.word	0x50112000

10008574 <runtime_init_per_core_enable_coprocessors>:
10008574:	f04f 22e0 	mov.w	r2, #3758153728	@ 0xe000e000
10008578:	4b04      	ldr	r3, [pc, #16]	@ (1000858c <runtime_init_per_core_enable_coprocessors+0x18>)
1000857a:	f8d2 1d88 	ldr.w	r1, [r2, #3464]	@ 0xd88
1000857e:	430b      	orrs	r3, r1
10008580:	f8c2 3d88 	str.w	r3, [r2, #3464]	@ 0xd88
10008584:	ee10 0430 	dcp_rcmp r0
10008588:	4770      	bx	lr
1000858a:	bf00      	nop
1000858c:	00300303 	.word	0x00300303

10008590 <runtime_init_post_clock_resets>:
10008590:	f06f 4160 	mvn.w	r1, #3758096384	@ 0xe0000000
10008594:	4b04      	ldr	r3, [pc, #16]	@ (100085a8 <runtime_init_post_clock_resets+0x18>)
10008596:	4a05      	ldr	r2, [pc, #20]	@ (100085ac <runtime_init_post_clock_resets+0x1c>)
10008598:	6019      	str	r1, [r3, #0]
1000859a:	6893      	ldr	r3, [r2, #8]
1000859c:	43db      	mvns	r3, r3
1000859e:	f033 4360 	bics.w	r3, r3, #3758096384	@ 0xe0000000
100085a2:	d1fa      	bne.n	1000859a <runtime_init_post_clock_resets+0xa>
100085a4:	4770      	bx	lr
100085a6:	bf00      	nop
100085a8:	40023000 	.word	0x40023000
100085ac:	40020000 	.word	0x40020000

100085b0 <runtime_init_bootrom_reset>:
100085b0:	b510      	push	{r4, lr}
100085b2:	f245 2053 	movw	r0, #21075	@ 0x5253
100085b6:	f000 f88f 	bl	100086d8 <rom_func_lookup>
100085ba:	e8bd 4010 	ldmia.w	sp!, {r4, lr}
100085be:	4603      	mov	r3, r0
100085c0:	2004      	movs	r0, #4
100085c2:	4718      	bx	r3

100085c4 <runtime_init_per_core_bootrom_reset>:
100085c4:	b510      	push	{r4, lr}
100085c6:	f245 2053 	movw	r0, #21075	@ 0x5253
100085ca:	f000 f885 	bl	100086d8 <rom_func_lookup>
100085ce:	e8bd 4010 	ldmia.w	sp!, {r4, lr}
100085d2:	4603      	mov	r3, r0
100085d4:	2001      	movs	r0, #1
100085d6:	4718      	bx	r3

100085d8 <runtime_init_spin_locks_reset>:
100085d8:	f7fe be82 	b.w	100072e0 <spin_locks_reset>

100085dc <runtime_init_install_ram_vector_table>:
100085dc:	b510      	push	{r4, lr}
100085de:	4b05      	ldr	r3, [pc, #20]	@ (100085f4 <runtime_init_install_ram_vector_table+0x18>)
100085e0:	4c05      	ldr	r4, [pc, #20]	@ (100085f8 <runtime_init_install_ram_vector_table+0x1c>)
100085e2:	f44f 7288 	mov.w	r2, #272	@ 0x110
100085e6:	4618      	mov	r0, r3
100085e8:	68a1      	ldr	r1, [r4, #8]
100085ea:	f005 f849 	bl	1000d680 <memcpy>
100085ee:	60a0      	str	r0, [r4, #8]
100085f0:	bd10      	pop	{r4, pc}
100085f2:	bf00      	nop
100085f4:	20000000 	.word	0x20000000
100085f8:	e000ed00 	.word	0xe000ed00

100085fc <runtime_init_clocks>:
100085fc:	2300      	movs	r3, #0
100085fe:	b5f0      	push	{r4, r5, r6, r7, lr}
10008600:	4c2b      	ldr	r4, [pc, #172]	@ (100086b0 <runtime_init_clocks+0xb4>)
10008602:	b083      	sub	sp, #12
10008604:	f8c4 3084 	str.w	r3, [r4, #132]	@ 0x84
10008608:	f7ff ff4e 	bl	100084a8 <xosc_init>
1000860c:	2201      	movs	r2, #1
1000860e:	4b29      	ldr	r3, [pc, #164]	@ (100086b4 <runtime_init_clocks+0xb8>)
10008610:	63da      	str	r2, [r3, #60]	@ 0x3c
10008612:	6c63      	ldr	r3, [r4, #68]	@ 0x44
10008614:	2b01      	cmp	r3, #1
10008616:	d1fc      	bne.n	10008612 <runtime_init_clocks+0x16>
10008618:	2103      	movs	r1, #3
1000861a:	4a26      	ldr	r2, [pc, #152]	@ (100086b4 <runtime_init_clocks+0xb8>)
1000861c:	4b24      	ldr	r3, [pc, #144]	@ (100086b0 <runtime_init_clocks+0xb4>)
1000861e:	6311      	str	r1, [r2, #48]	@ 0x30
10008620:	6b9d      	ldr	r5, [r3, #56]	@ 0x38
10008622:	2d01      	cmp	r5, #1
10008624:	d1fc      	bne.n	10008620 <runtime_init_clocks+0x24>
10008626:	2305      	movs	r3, #5
10008628:	2702      	movs	r7, #2
1000862a:	461e      	mov	r6, r3
1000862c:	2400      	movs	r4, #0
1000862e:	4629      	mov	r1, r5
10008630:	4a21      	ldr	r2, [pc, #132]	@ (100086b8 <runtime_init_clocks+0xbc>)
10008632:	4822      	ldr	r0, [pc, #136]	@ (100086bc <runtime_init_clocks+0xc0>)
10008634:	9700      	str	r7, [sp, #0]
10008636:	f7ff fee5 	bl	10008404 <pll_init>
1000863a:	4629      	mov	r1, r5
1000863c:	4633      	mov	r3, r6
1000863e:	4a20      	ldr	r2, [pc, #128]	@ (100086c0 <runtime_init_clocks+0xc4>)
10008640:	4820      	ldr	r0, [pc, #128]	@ (100086c4 <runtime_init_clocks+0xc8>)
10008642:	9600      	str	r6, [sp, #0]
10008644:	f7ff fede 	bl	10008404 <pll_init>
10008648:	4639      	mov	r1, r7
1000864a:	4622      	mov	r2, r4
1000864c:	2004      	movs	r0, #4
1000864e:	4b1e      	ldr	r3, [pc, #120]	@ (100086c8 <runtime_init_clocks+0xcc>)
10008650:	f7ff fec8 	bl	100083e4 <clock_configure_undivided>
10008654:	4629      	mov	r1, r5
10008656:	4622      	mov	r2, r4
10008658:	4630      	mov	r0, r6
1000865a:	4b1c      	ldr	r3, [pc, #112]	@ (100086cc <runtime_init_clocks+0xd0>)
1000865c:	f7ff fec2 	bl	100083e4 <clock_configure_undivided>
10008660:	4622      	mov	r2, r4
10008662:	2008      	movs	r0, #8
10008664:	4621      	mov	r1, r4
10008666:	4b1a      	ldr	r3, [pc, #104]	@ (100086d0 <runtime_init_clocks+0xd4>)
10008668:	f7ff febc 	bl	100083e4 <clock_configure_undivided>
1000866c:	4622      	mov	r2, r4
1000866e:	2009      	movs	r0, #9
10008670:	4621      	mov	r1, r4
10008672:	4b17      	ldr	r3, [pc, #92]	@ (100086d0 <runtime_init_clocks+0xd4>)
10008674:	f7ff feb6 	bl	100083e4 <clock_configure_undivided>
10008678:	4622      	mov	r2, r4
1000867a:	2006      	movs	r0, #6
1000867c:	4621      	mov	r1, r4
1000867e:	4b13      	ldr	r3, [pc, #76]	@ (100086cc <runtime_init_clocks+0xd0>)
10008680:	f7ff feb0 	bl	100083e4 <clock_configure_undivided>
10008684:	4b11      	ldr	r3, [pc, #68]	@ (100086cc <runtime_init_clocks+0xd0>)
10008686:	4622      	mov	r2, r4
10008688:	2007      	movs	r0, #7
1000868a:	4621      	mov	r1, r4
1000868c:	f7ff feaa 	bl	100083e4 <clock_configure_undivided>
10008690:	2004      	movs	r0, #4
10008692:	f7ff feb1 	bl	100083f8 <clock_get_hz>
10008696:	4d0f      	ldr	r5, [pc, #60]	@ (100086d4 <runtime_init_clocks+0xd8>)
10008698:	fba5 3500 	umull	r3, r5, r5, r0
1000869c:	0cad      	lsrs	r5, r5, #18
1000869e:	b2e0      	uxtb	r0, r4
100086a0:	4629      	mov	r1, r5
100086a2:	3401      	adds	r4, #1
100086a4:	f7ff fef4 	bl	10008490 <tick_start>
100086a8:	2c06      	cmp	r4, #6
100086aa:	d1f8      	bne.n	1000869e <runtime_init_clocks+0xa2>
100086ac:	b003      	add	sp, #12
100086ae:	bdf0      	pop	{r4, r5, r6, r7, pc}
100086b0:	40010000 	.word	0x40010000
100086b4:	40013000 	.word	0x40013000
100086b8:	59682f00 	.word	0x59682f00
100086bc:	40050000 	.word	0x40050000
100086c0:	47868c00 	.word	0x47868c00
100086c4:	40058000 	.word	0x40058000
100086c8:	00b71b00 	.word	0x00b71b00
100086cc:	08f0d180 	.word	0x08f0d180
100086d0:	02dc6c00 	.word	0x02dc6c00
100086d4:	431bde83 	.word	0x431bde83

100086d8 <rom_func_lookup>:
100086d8:	2300      	movs	r3, #0
100086da:	7cdb      	ldrb	r3, [r3, #19]
100086dc:	2b02      	cmp	r3, #2
100086de:	bf0c      	ite	eq
100086e0:	2316      	moveq	r3, #22
100086e2:	2318      	movne	r3, #24
100086e4:	881b      	ldrh	r3, [r3, #0]
100086e6:	2200      	movs	r2, #0
100086e8:	e842 f200 	tt	r2, r2
100086ec:	0252      	lsls	r2, r2, #9
100086ee:	d401      	bmi.n	100086f4 <rom_func_lookup+0x1c>
100086f0:	2110      	movs	r1, #16
100086f2:	4718      	bx	r3
100086f4:	2104      	movs	r1, #4
100086f6:	4718      	bx	r3

100086f8 <runtime_init_bootrom_locking_enable>:
100086f8:	4a03      	ldr	r2, [pc, #12]	@ (10008708 <runtime_init_bootrom_locking_enable+0x10>)
100086fa:	f8d2 3828 	ldr.w	r3, [r2, #2088]	@ 0x828
100086fe:	2b00      	cmp	r3, #0
10008700:	d0fb      	beq.n	100086fa <runtime_init_bootrom_locking_enable+0x2>
10008702:	f3bf 8f5f 	dmb	sy
10008706:	4770      	bx	lr
10008708:	400e0000 	.word	0x400e0000

1000870c <runtime_init_boot_locks_reset>:
1000870c:	2100      	movs	r1, #0
1000870e:	4b04      	ldr	r3, [pc, #16]	@ (10008720 <runtime_init_boot_locks_reset+0x14>)
10008710:	4a04      	ldr	r2, [pc, #16]	@ (10008724 <runtime_init_boot_locks_reset+0x18>)
10008712:	f3bf 8f5f 	dmb	sy
10008716:	f843 1b04 	str.w	r1, [r3], #4
1000871a:	4293      	cmp	r3, r2
1000871c:	d1f9      	bne.n	10008712 <runtime_init_boot_locks_reset+0x6>
1000871e:	4770      	bx	lr
10008720:	400e080c 	.word	0x400e080c
10008724:	400e082c 	.word	0x400e082c

10008728 <generic_save_state>:
10008728:	b086      	sub	sp, #24
1000872a:	b403      	push	{r0, r1}
1000872c:	fc51 0408 	dcp_pxmd r0, r1
10008730:	e9cd 0102 	strd	r0, r1, [sp, #8]
10008734:	fc51 0409 	dcp_pymd r0, r1
10008738:	e9cd 0104 	strd	r0, r1, [sp, #16]
1000873c:	ec51 040a 	dcp_refd r0, r1
10008740:	e9cd 0106 	strd	r0, r1, [sp, #24]
10008744:	bc03      	pop	{r0, r1}
10008746:	47f0      	blx	lr

10008748 <generic_restore_state>:
10008748:	e8bd 5000 	ldmia.w	sp!, {ip, lr}
1000874c:	ec4e c400 	dcp_wxmd ip, lr
10008750:	e8bd 5000 	ldmia.w	sp!, {ip, lr}
10008754:	ec4e c401 	dcp_wymd ip, lr
10008758:	e8bd 5000 	ldmia.w	sp!, {ip, lr}
1000875c:	ec4e c402 	dcp_wefd ip, lr
10008760:	bd00      	pop	{pc}
10008762:	0000      	movs	r0, r0
10008764:	b500      	push	{lr}
10008766:	f7ff ffdf 	bl	10008728 <generic_save_state>
1000876a:	e002      	b.n	10008772 <__wrap___aeabi_dadd+0x6>

1000876c <__wrap___aeabi_dadd>:
1000876c:	fe10 f430 	dcp_pcmp APSR_nzcv
10008770:	d4f8      	bmi.n	10008764 <generic_restore_state+0x1c>
10008772:	ec41 0410 	dcp_wxup r0, r1
10008776:	ec43 2411 	dcp_wyup r2, r3
1000877a:	ee00 0401 	dcp_add0
1000877e:	ee10 0401 	dcp_add1
10008782:	ee80 0420 	dcp_nrdd
10008786:	ec51 0410 	dcp_rdda r0, r1
1000878a:	4770      	bx	lr
1000878c:	b500      	push	{lr}
1000878e:	f7ff ffcb 	bl	10008728 <generic_save_state>
10008792:	e002      	b.n	1000879a <__wrap___aeabi_dsub+0x6>

10008794 <__wrap___aeabi_dsub>:
10008794:	fe10 f430 	dcp_pcmp APSR_nzcv
10008798:	d4f8      	bmi.n	1000878c <__wrap___aeabi_dadd+0x20>
1000879a:	ec41 0410 	dcp_wxup r0, r1
1000879e:	ec43 2411 	dcp_wyup r2, r3
100087a2:	ee00 0401 	dcp_add0
100087a6:	ee10 0421 	dcp_sub1
100087aa:	ee80 0420 	dcp_nrdd
100087ae:	ec51 0430 	dcp_rdds r0, r1
100087b2:	4770      	bx	lr
100087b4:	b500      	push	{lr}
100087b6:	f7ff ffb7 	bl	10008728 <generic_save_state>
100087ba:	e002      	b.n	100087c2 <__wrap___aeabi_dmul+0x6>

100087bc <__wrap___aeabi_dmul>:
100087bc:	fe10 f430 	dcp_pcmp APSR_nzcv
100087c0:	d4f8      	bmi.n	100087b4 <__wrap___aeabi_dsub+0x20>
100087c2:	b510      	push	{r4, lr}
100087c4:	ec41 0410 	dcp_wxup r0, r1
100087c8:	ec43 2411 	dcp_wyup r2, r3
100087cc:	ec51 0404 	dcp_rxms r0, r1, #0x0
100087d0:	ec53 2405 	dcp_ryms r2, r3, #0x0
100087d4:	fba0 4c02 	umull	r4, ip, r0, r2
100087d8:	f05f 0e00 	movs.w	lr, #0
100087dc:	fbe0 ce03 	umlal	ip, lr, r0, r3
100087e0:	fbe1 ce02 	umlal	ip, lr, r1, r2
100087e4:	ec4c 4420 	dcp_wxms r4, ip
100087e8:	2400      	movs	r4, #0
100087ea:	fbe1 e403 	umlal	lr, r4, r1, r3
100087ee:	ec44 e430 	dcp_wxmo lr, r4
100087f2:	ee80 0420 	dcp_nrdd
100087f6:	ec51 0450 	dcp_rddm r0, r1
100087fa:	e8bd 4010 	ldmia.w	sp!, {r4, lr}
100087fe:	4770      	bx	lr
10008800:	b500      	push	{lr}
10008802:	f7ff ff91 	bl	10008728 <generic_save_state>
10008806:	e002      	b.n	1000880e <__wrap___aeabi_ddiv+0x6>

10008808 <__wrap___aeabi_ddiv>:
10008808:	fe10 f430 	dcp_pcmp APSR_nzcv
1000880c:	d4f8      	bmi.n	10008800 <__wrap___aeabi_dmul+0x44>
1000880e:	ec41 0410 	dcp_wxup r0, r1
10008812:	ec43 2411 	dcp_wyup r2, r3
10008816:	ec51 0421 	dcp_rymr r0, r1
1000881a:	fba0 1201 	umull	r1, r2, r0, r1
1000881e:	ea6f 0282 	mvn.w	r2, r2, lsl #2
10008822:	fb52 0010 	smmlar	r0, r2, r0, r0
10008826:	fb52 f212 	smmulr	r2, r2, r2
1000882a:	fb52 0010 	smmlar	r0, r2, r0, r0
1000882e:	eba0 7cd0 	sub.w	ip, r0, r0, lsr #31
10008832:	ec53 2404 	dcp_rxms r2, r3, #0x0
10008836:	fb5c f113 	smmulr	r1, ip, r3
1000883a:	ec53 2415 	dcp_ryms r2, r3, #0x1
1000883e:	fba1 2002 	umull	r2, r0, r1, r2
10008842:	fb01 0003 	mla	r0, r1, r3, r0
10008846:	ec53 2444 	dcp_rxms r2, r3, #0x4
1000884a:	eba2 0000 	sub.w	r0, r2, r0
1000884e:	fb50 f21c 	smmulr	r2, r0, ip
10008852:	ea4f 1311 	mov.w	r3, r1, lsr #4
10008856:	eb12 7001 	adds.w	r0, r2, r1, lsl #28
1000885a:	eb43 71e2 	adc.w	r1, r3, r2, asr #31
1000885e:	ea40 5051 	orr.w	r0, r0, r1, lsr #21
10008862:	ea20 5091 	bic.w	r0, r0, r1, lsr #22
10008866:	f020 0007 	bic.w	r0, r0, #7
1000886a:	ec53 2475 	dcp_ryms r2, r3, #0x7
1000886e:	fba0 3c02 	umull	r3, ip, r0, r2
10008872:	ec53 2475 	dcp_ryms r2, r3, #0x7
10008876:	fb00 cc03 	mla	ip, r0, r3, ip
1000887a:	fb01 cc02 	mla	ip, r1, r2, ip
1000887e:	ec53 2404 	dcp_rxms r2, r3, #0x0
10008882:	ebac 4c82 	sub.w	ip, ip, r2, lsl #18
10008886:	ea40 705c 	orr.w	r0, r0, ip, lsr #29
1000888a:	f1a0 0001 	sub.w	r0, r0, #1
1000888e:	ec41 0440 	dcp_wxdd r0, r1
10008892:	ee80 0420 	dcp_nrdd
10008896:	ec51 0470 	dcp_rddd r0, r1
1000889a:	4770      	bx	lr
1000889c:	b500      	push	{lr}
1000889e:	f7ff ff43 	bl	10008728 <generic_save_state>
100088a2:	e002      	b.n	100088aa <__wrap___aeabi_i2d+0x6>

100088a4 <__wrap___aeabi_i2d>:
100088a4:	fe10 f430 	dcp_pcmp APSR_nzcv
100088a8:	d4f8      	bmi.n	1000889c <__wrap___aeabi_ddiv+0x94>
100088aa:	ec40 0470 	dcp_wxic r0, r0
100088ae:	ee00 0401 	dcp_add0
100088b2:	ee10 0421 	dcp_sub1
100088b6:	ee80 0420 	dcp_nrdd
100088ba:	ec51 0430 	dcp_rdds r0, r1
100088be:	4770      	bx	lr
100088c0:	b500      	push	{lr}
100088c2:	f7ff ff31 	bl	10008728 <generic_save_state>
100088c6:	e002      	b.n	100088ce <__wrap___aeabi_ui2d+0x6>

100088c8 <__wrap___aeabi_ui2d>:
100088c8:	fe10 f430 	dcp_pcmp APSR_nzcv
100088cc:	d4f8      	bmi.n	100088c0 <__wrap___aeabi_i2d+0x1c>
100088ce:	ec40 0460 	dcp_wxuc r0, r0
100088d2:	ee00 0401 	dcp_add0
100088d6:	ee10 0421 	dcp_sub1
100088da:	ee80 0420 	dcp_nrdd
100088de:	ec51 0430 	dcp_rdds r0, r1
100088e2:	4770      	bx	lr
100088e4:	b500      	push	{lr}
100088e6:	f7ff ff1f 	bl	10008728 <generic_save_state>
100088ea:	e002      	b.n	100088f2 <__wrap___aeabi_d2iz+0x6>

100088ec <__wrap___aeabi_d2iz>:
100088ec:	fe10 f430 	dcp_pcmp APSR_nzcv
100088f0:	d4f8      	bmi.n	100088e4 <__wrap___aeabi_ui2d+0x1c>
100088f2:	ec41 0480 	dcp_wxdc r0, r1
100088f6:	ee00 0401 	dcp_add0
100088fa:	ee10 0401 	dcp_add1
100088fe:	ee80 0440 	dcp_ntdc
10008902:	ee10 0413 	dcp_rdic r0
10008906:	4770      	bx	lr
10008908:	b500      	push	{lr}
1000890a:	f7ff ff0d 	bl	10008728 <generic_save_state>
1000890e:	e002      	b.n	10008916 <__wrap___aeabi_d2uiz+0x6>

10008910 <__wrap___aeabi_d2uiz>:
10008910:	fe10 f430 	dcp_pcmp APSR_nzcv
10008914:	d4f8      	bmi.n	10008908 <__wrap___aeabi_d2iz+0x1c>
10008916:	ec41 0480 	dcp_wxdc r0, r1
1000891a:	ee00 0401 	dcp_add0
1000891e:	ee10 0401 	dcp_add1
10008922:	ee80 0440 	dcp_ntdc
10008926:	ee10 0433 	dcp_rduc r0
1000892a:	4770      	bx	lr
1000892c:	b500      	push	{lr}
1000892e:	f7ff fefb 	bl	10008728 <generic_save_state>
10008932:	e002      	b.n	1000893a <__wrap___aeabi_dcmpun+0x6>

10008934 <__wrap___aeabi_dcmpun>:
10008934:	fe10 f430 	dcp_pcmp APSR_nzcv
10008938:	d4f8      	bmi.n	1000892c <__wrap___aeabi_d2uiz+0x1c>
1000893a:	ec41 0410 	dcp_wxup r0, r1
1000893e:	ec43 2411 	dcp_wyup r2, r3
10008942:	ee00 0401 	dcp_add0
10008946:	ee10 0430 	dcp_rcmp r0
1000894a:	f3c0 7000 	ubfx	r0, r0, #28, #1
1000894e:	4770      	bx	lr
10008950:	b500      	push	{lr}
10008952:	f7ff fee9 	bl	10008728 <generic_save_state>
10008956:	e002      	b.n	1000895e <__wrap___aeabi_dcmplt+0x6>

10008958 <__wrap___aeabi_dcmplt>:
10008958:	fe10 f430 	dcp_pcmp APSR_nzcv
1000895c:	d4f8      	bmi.n	10008950 <__wrap___aeabi_dcmpun+0x1c>
1000895e:	ec43 2410 	dcp_wxup r2, r3
10008962:	ec41 0411 	dcp_wyup r0, r1
10008966:	ee00 0401 	dcp_add0
1000896a:	ee10 f430 	dcp_rcmp APSR_nzcv
1000896e:	bf8c      	ite	hi
10008970:	2001      	movhi	r0, #1
10008972:	2000      	movls	r0, #0
10008974:	4770      	bx	lr
10008976:	bf00      	nop
10008978:	b500      	push	{lr}
1000897a:	f7ff fed5 	bl	10008728 <generic_save_state>
1000897e:	e002      	b.n	10008986 <__wrap___aeabi_dcmple+0x6>

10008980 <__wrap___aeabi_dcmple>:
10008980:	fe10 f430 	dcp_pcmp APSR_nzcv
10008984:	d4f8      	bmi.n	10008978 <__wrap___aeabi_dcmplt+0x20>
10008986:	ec43 2410 	dcp_wxup r2, r3
1000898a:	ec41 0411 	dcp_wyup r0, r1
1000898e:	ee00 0401 	dcp_add0
10008992:	ee10 f430 	dcp_rcmp APSR_nzcv
10008996:	bf2c      	ite	cs
10008998:	2001      	movcs	r0, #1
1000899a:	2000      	movcc	r0, #0
1000899c:	4770      	bx	lr
1000899e:	bf00      	nop
100089a0:	b500      	push	{lr}
100089a2:	f7ff fec1 	bl	10008728 <generic_save_state>
100089a6:	e002      	b.n	100089ae <__wrap___aeabi_dcmpge+0x6>

100089a8 <__wrap___aeabi_dcmpge>:
100089a8:	fe10 f430 	dcp_pcmp APSR_nzcv
100089ac:	d4f8      	bmi.n	100089a0 <__wrap___aeabi_dcmple+0x20>
100089ae:	ec41 0410 	dcp_wxup r0, r1
100089b2:	ec43 2411 	dcp_wyup r2, r3
100089b6:	ee00 0401 	dcp_add0
100089ba:	ee10 f430 	dcp_rcmp APSR_nzcv
100089be:	bf2c      	ite	cs
100089c0:	2001      	movcs	r0, #1
100089c2:	2000      	movcc	r0, #0
100089c4:	4770      	bx	lr
100089c6:	bf00      	nop
100089c8:	b500      	push	{lr}
100089ca:	f7ff fead 	bl	10008728 <generic_save_state>
100089ce:	e002      	b.n	100089d6 <__wrap___aeabi_dcmpgt+0x6>

100089d0 <__wrap___aeabi_dcmpgt>:
100089d0:	fe10 f430 	dcp_pcmp APSR_nzcv
100089d4:	d4f8      	bmi.n	100089c8 <__wrap___aeabi_dcmpge+0x20>
100089d6:	ec41 0410 	dcp_wxup r0, r1
100089da:	ec43 2411 	dcp_wyup r2, r3
100089de:	ee00 0401 	dcp_add0
